0001   0000             
0002   0000             	MACRO stop
0003   0000~            	db 0xDD, 0xDD, 0x00
0004   0000             	ENDM
0005   0000             	
0006   0000             	MACRO STOP
0007   0000~            	db 0xDD, 0xDD, 0x00
0008   0000             	ENDM
0009   0000             
0010   0000             	OUTPUT test_z80.obj
0011   0000             
0012   0000                     org 0
0013   0000 8E                  adc  a,(hl)             ; 0000 8E
0014   0001 8E                  ADC  A,(HL)             ; 0001 8E
0015   0002 DD 8E 80            adc  a,(ix+-128)        ; 0002 DD 8E 80
0016   0005 DD 8E 80            ADC  A,(IX+-128)        ; 0005 DD 8E 80
0017   0008 DD 8E 80            adc  a,(ix-128)         ; 0008 DD 8E 80
0018   000B DD 8E 81            adc  a,(ix+-127)        ; 000B DD 8E 81
0019   000E DD 8E 81            adc  a,(ix-127)         ; 000E DD 8E 81
0020   0011 DD 8E FF            adc  a,(ix+-1)          ; 0011 DD 8E FF
0021   0014 DD 8E FF            adc  a,(ix-1)           ; 0014 DD 8E FF
0022   0017 DD 8E 00            adc  a,(ix+-0)          ; 0017 DD 8E 00
0023   001A DD 8E 00            adc  a,(ix-0)           ; 001A DD 8E 00
0024   001D DD 8E 00            adc  a,(ix+0)           ; 001D DD 8E 00
0025   0020 DD 8E 00            adc  a,(ix)             ; 0020 DD 8E 00
0026   0023 DD 8E 01            adc  a,(ix+1)           ; 0023 DD 8E 01
0027   0026 DD 8E 7E            adc  a,(ix+126)         ; 0026 DD 8E 7E
0028   0029 DD 8E 7F            adc  a,(ix+127)         ; 0029 DD 8E 7F
0029   002C FD 8E 7F            adc  a,(iy+127)         ; 002C FD 8E 7F
0030   002F FD 8E 7F            ADC  A,(IY+127)         ; 002F FD 8E 7F
0031   0032 CE 80               adc  a,-128             ; 0032 CE 80
0032   0034 CE 81               adc  a,-127             ; 0034 CE 81
0033   0036 CE FE               adc  a,-2               ; 0036 CE FE
0034   0038 CE FF               adc  a,-1               ; 0038 CE FF
0035   003A CE 00               adc  a,0                ; 003A CE 00
0036   003C CE 01               adc  a,1                ; 003C CE 01
0037   003E CE 7E               adc  a,126              ; 003E CE 7E
0038   0040 CE 7F               adc  a,127              ; 0040 CE 7F
0039   0042 CE 80               adc  a,128              ; 0042 CE 80
0040   0044 CE 81               adc  a,129              ; 0044 CE 81
0041   0046 CE FE               adc  a,254              ; 0046 CE FE
0042   0048 CE FF               adc  a,255              ; 0048 CE FF
0043   004A 8E                  adc  a,[hl]             ; 004A 8E
0044   004B DD 8E 7F            adc  a,[ix+127]         ; 004B DD 8E 7F
0045   004E FD 8E 7F            adc  a,[iy+127]         ; 004E FD 8E 7F
0046   0051 8F                  adc  a,a                ; 0051 8F
0047   0052 88                  adc  a,b                ; 0052 88
0048   0053 88                  ADC  A,B                ; 0053 88
0049   0054 89                  adc  a,c                ; 0054 89
0050   0055 89                  ADC  A,C                ; 0055 89
0051   0056 8A                  adc  a,d                ; 0056 8A
0052   0057 8A                  ADC  A,D                ; 0057 8A
0053   0058 8B                  adc  a,e                ; 0058 8B
0054   0059 8B                  ADC  A,E                ; 0059 8B
0055   005A 8C                  adc  a,h                ; 005A 8C
0056   005B 8C                  ADC  A,H                ; 005B 8C
0057   005C DD 8C               adc  a,hx               ; 005C DD 8C
0058   005E DD 8C               ADC  A,HX               ; 005E DD 8C
0059   0060 FD 8C               adc  a,hy               ; 0060 FD 8C
0060   0062 FD 8C               ADC  A,HY               ; 0062 FD 8C
0061   0064 DD 8C               adc  a,ixh              ; 0064 DD 8C
0062   0066 DD 8C               ADC  A,IXH              ; 0066 DD 8C
0063   0068 DD 8D               adc  a,ixl              ; 0068 DD 8D
0064   006A DD 8D               ADC  A,IXL              ; 006A DD 8D
0065   006C FD 8C               adc  a,iyh              ; 006C FD 8C
0066   006E FD 8C               ADC  A,IYH              ; 006E FD 8C
0067   0070 FD 8D               adc  a,iyl              ; 0070 FD 8D
0068   0072 FD 8D               ADC  A,IYL              ; 0072 FD 8D
0069   0074 8D                  adc  a,l                ; 0074 8D
0070   0075 8D                  ADC  A,L                ; 0075 8D
0071   0076 DD 8D               adc  a,lx               ; 0076 DD 8D
0072   0078 DD 8D               ADC  A,LX               ; 0078 DD 8D
0073   007A FD 8D               adc  a,ly               ; 007A FD 8D
0074   007C FD 8D               ADC  A,LY               ; 007C FD 8D
0075   007E DD 8C               adc  a,xh               ; 007E DD 8C
0076   0080 DD 8C               ADC  A,XH               ; 0080 DD 8C
0077   0082 DD 8D               adc  a,xl               ; 0082 DD 8D
0078   0084 DD 8D               ADC  A,XL               ; 0084 DD 8D
0079   0086 FD 8C               adc  a,yh               ; 0086 FD 8C
0080   0088 FD 8C               ADC  A,YH               ; 0088 FD 8C
0081   008A FD 8D               adc  a,yl               ; 008A FD 8D
0082   008C FD 8D               ADC  A,YL               ; 008C FD 8D
0083   008E ED 4A               adc  hl,bc              ; 008E ED 4A
0084   0090 ED 4A               ADC  HL,BC              ; 0090 ED 4A
0085   0092 ED 5A               adc  hl,de              ; 0092 ED 5A
0086   0094 ED 5A               ADC  HL,DE              ; 0094 ED 5A
0087   0096 ED 6A               adc  hl,hl              ; 0096 ED 6A
0088   0098 ED 7A               adc  hl,sp              ; 0098 ED 7A
0089   009A ED 7A               ADC  HL,SP              ; 009A ED 7A
0090   009C 86                  add  a,(hl)             ; 009C 86
0091   009D 86                  ADD  A,(HL)             ; 009D 86
0092   009E DD 86 7F            add  a,(ix+127)         ; 009E DD 86 7F
0093   00A1 FD 86 7F            add  a,(iy+127)         ; 00A1 FD 86 7F
0094   00A4 C6 FF               add  a,255              ; 00A4 C6 FF
0095   00A6 86                  add  a,[hl]             ; 00A6 86
0096   00A7 DD 86 7F            add  a,[ix+127]         ; 00A7 DD 86 7F
0097   00AA FD 86 7F            add  a,[iy+127]         ; 00AA FD 86 7F
0098   00AD 87                  add  a,a                ; 00AD 87
0099   00AE 80                  add  a,b                ; 00AE 80
0100   00AF 81                  add  a,c                ; 00AF 81
0101   00B0 82                  add  a,d                ; 00B0 82
0102   00B1 83                  add  a,e                ; 00B1 83
0103   00B2 84                  add  a,h                ; 00B2 84
0104   00B3 DD 84               add  a,hx               ; 00B3 DD 84
0105   00B5 FD 84               add  a,hy               ; 00B5 FD 84
0106   00B7 DD 84               add  a,ixh              ; 00B7 DD 84
0107   00B9 DD 85               add  a,ixl              ; 00B9 DD 85
0108   00BB FD 84               add  a,iyh              ; 00BB FD 84
0109   00BD FD 85               add  a,iyl              ; 00BD FD 85
0110   00BF 85                  add  a,l                ; 00BF 85
0111   00C0 DD 85               add  a,lx               ; 00C0 DD 85
0112   00C2 FD 85               add  a,ly               ; 00C2 FD 85
0113   00C4 DD 84               add  a,xh               ; 00C4 DD 84
0114   00C6 DD 85               add  a,xl               ; 00C6 DD 85
0115   00C8 FD 84               add  a,yh               ; 00C8 FD 84
0116   00CA FD 85               add  a,yl               ; 00CA FD 85
0117   00CC 09                  add  hl,bc              ; 00CC 09
0118   00CD 19                  add  hl,de              ; 00CD 19
0119   00CE 29                  add  hl,hl              ; 00CE 29
0120   00CF 39                  add  hl,sp              ; 00CF 39
0121   00D0 DD 09               add  ix,bc              ; 00D0 DD 09
0122   00D2 DD 19               add  ix,de              ; 00D2 DD 19
0123   00D4 DD 29               add  ix,ix              ; 00D4 DD 29
0124   00D6 DD 39               add  ix,sp              ; 00D6 DD 39
0125   00D8 FD 09               add  iy,bc              ; 00D8 FD 09
0126   00DA FD 19               add  iy,de              ; 00DA FD 19
0127   00DC FD 29               add  iy,iy              ; 00DC FD 29
0128   00DE FD 39               add  iy,sp              ; 00DE FD 39
0129   00E0 A6                  and  (hl)               ; 00E0 A6
0130   00E1 A6                  AND  (HL)               ; 00E1 A6
0131   00E2 DD A6 7F            and  (ix+127)           ; 00E2 DD A6 7F
0132   00E5 FD A6 7F            and  (iy+127)           ; 00E5 FD A6 7F
0133   00E8 E6 FF               and  255                ; 00E8 E6 FF
0134   00EA A6                  and  [hl]               ; 00EA A6
0135   00EB DD A6 7F            and  [ix+127]           ; 00EB DD A6 7F
0136   00EE FD A6 7F            and  [iy+127]           ; 00EE FD A6 7F
0137   00F1 A7                  and  a                  ; 00F1 A7
0138   00F2 A0                  and  b                  ; 00F2 A0
0139   00F3 A1                  and  c                  ; 00F3 A1
0140   00F4 A2                  and  d                  ; 00F4 A2
0141   00F5 A3                  and  e                  ; 00F5 A3
0142   00F6 A4                  and  h                  ; 00F6 A4
0143   00F7 DD A4               and  hx                 ; 00F7 DD A4
0144   00F9 FD A4               and  hy                 ; 00F9 FD A4
0145   00FB DD A4               and  ixh                ; 00FB DD A4
0146   00FD DD A5               and  ixl                ; 00FD DD A5
0147   00FF FD A4               and  iyh                ; 00FF FD A4
0148   0101 FD A5               and  iyl                ; 0101 FD A5
0149   0103 A5                  and  l                  ; 0103 A5
0150   0104 DD A5               and  lx                 ; 0104 DD A5
0151   0106 FD A5               and  ly                 ; 0106 FD A5
0152   0108 DD A4               and  xh                 ; 0108 DD A4
0153   010A DD A5               and  xl                 ; 010A DD A5
0154   010C FD A4               and  yh                 ; 010C FD A4
0155   010E FD A5               and  yl                 ; 010E FD A5
0156   0110 CB 46               bit  0,(hl)             ; 0110 CB 46
0157   0112 CB 46               BIT  0,(HL)             ; 0112 CB 46
0158   0114 DD CB 7F 46         bit  0,(ix+127)         ; 0114 DD CB 7F 46
0159   0118 FD CB 7F 46         bit  0,(iy+127)         ; 0118 FD CB 7F 46
0160   011C CB 46               bit  0,[hl]             ; 011C CB 46
0161   011E DD CB 7F 46         bit  0,[ix+127]         ; 011E DD CB 7F 46
0162   0122 FD CB 7F 46         bit  0,[iy+127]         ; 0122 FD CB 7F 46
0163   0126 CB 47               bit  0,a                ; 0126 CB 47
0164   0128 CB 40               bit  0,b                ; 0128 CB 40
0165   012A CB 41               bit  0,c                ; 012A CB 41
0166   012C CB 42               bit  0,d                ; 012C CB 42
0167   012E CB 43               bit  0,e                ; 012E CB 43
0168   0130 CB 44               bit  0,h                ; 0130 CB 44
0169   0132 CB 45               bit  0,l                ; 0132 CB 45
0170   0134 CB 4E               bit  1,(hl)             ; 0134 CB 4E
0171   0136 DD CB 7F 4E         bit  1,(ix+127)         ; 0136 DD CB 7F 4E
0172   013A FD CB 7F 4E         bit  1,(iy+127)         ; 013A FD CB 7F 4E
0173   013E CB 4E               bit  1,[hl]             ; 013E CB 4E
0174   0140 DD CB 7F 4E         bit  1,[ix+127]         ; 0140 DD CB 7F 4E
0175   0144 FD CB 7F 4E         bit  1,[iy+127]         ; 0144 FD CB 7F 4E
0176   0148 CB 4F               bit  1,a                ; 0148 CB 4F
0177   014A CB 48               bit  1,b                ; 014A CB 48
0178   014C CB 49               bit  1,c                ; 014C CB 49
0179   014E CB 4A               bit  1,d                ; 014E CB 4A
0180   0150 CB 4B               bit  1,e                ; 0150 CB 4B
0181   0152 CB 4C               bit  1,h                ; 0152 CB 4C
0182   0154 CB 4D               bit  1,l                ; 0154 CB 4D
0183   0156 CB 56               bit  2,(hl)             ; 0156 CB 56
0184   0158 DD CB 7F 56         bit  2,(ix+127)         ; 0158 DD CB 7F 56
0185   015C FD CB 7F 56         bit  2,(iy+127)         ; 015C FD CB 7F 56
0186   0160 CB 56               bit  2,[hl]             ; 0160 CB 56
0187   0162 DD CB 7F 56         bit  2,[ix+127]         ; 0162 DD CB 7F 56
0188   0166 FD CB 7F 56         bit  2,[iy+127]         ; 0166 FD CB 7F 56
0189   016A CB 57               bit  2,a                ; 016A CB 57
0190   016C CB 50               bit  2,b                ; 016C CB 50
0191   016E CB 51               bit  2,c                ; 016E CB 51
0192   0170 CB 52               bit  2,d                ; 0170 CB 52
0193   0172 CB 53               bit  2,e                ; 0172 CB 53
0194   0174 CB 54               bit  2,h                ; 0174 CB 54
0195   0176 CB 55               bit  2,l                ; 0176 CB 55
0196   0178 CB 5E               bit  3,(hl)             ; 0178 CB 5E
0197   017A DD CB 7F 5E         bit  3,(ix+127)         ; 017A DD CB 7F 5E
0198   017E FD CB 7F 5E         bit  3,(iy+127)         ; 017E FD CB 7F 5E
0199   0182 CB 5E               bit  3,[hl]             ; 0182 CB 5E
0200   0184 DD CB 7F 5E         bit  3,[ix+127]         ; 0184 DD CB 7F 5E
0201   0188 FD CB 7F 5E         bit  3,[iy+127]         ; 0188 FD CB 7F 5E
0202   018C CB 5F               bit  3,a                ; 018C CB 5F
0203   018E CB 58               bit  3,b                ; 018E CB 58
0204   0190 CB 59               bit  3,c                ; 0190 CB 59
0205   0192 CB 5A               bit  3,d                ; 0192 CB 5A
0206   0194 CB 5B               bit  3,e                ; 0194 CB 5B
0207   0196 CB 5C               bit  3,h                ; 0196 CB 5C
0208   0198 CB 5D               bit  3,l                ; 0198 CB 5D
0209   019A CB 66               bit  4,(hl)             ; 019A CB 66
0210   019C DD CB 7F 66         bit  4,(ix+127)         ; 019C DD CB 7F 66
0211   01A0 FD CB 7F 66         bit  4,(iy+127)         ; 01A0 FD CB 7F 66
0212   01A4 CB 66               bit  4,[hl]             ; 01A4 CB 66
0213   01A6 DD CB 7F 66         bit  4,[ix+127]         ; 01A6 DD CB 7F 66
0214   01AA FD CB 7F 66         bit  4,[iy+127]         ; 01AA FD CB 7F 66
0215   01AE CB 67               bit  4,a                ; 01AE CB 67
0216   01B0 CB 60               bit  4,b                ; 01B0 CB 60
0217   01B2 CB 61               bit  4,c                ; 01B2 CB 61
0218   01B4 CB 62               bit  4,d                ; 01B4 CB 62
0219   01B6 CB 63               bit  4,e                ; 01B6 CB 63
0220   01B8 CB 64               bit  4,h                ; 01B8 CB 64
0221   01BA CB 65               bit  4,l                ; 01BA CB 65
0222   01BC CB 6E               bit  5,(hl)             ; 01BC CB 6E
0223   01BE DD CB 7F 6E         bit  5,(ix+127)         ; 01BE DD CB 7F 6E
0224   01C2 FD CB 7F 6E         bit  5,(iy+127)         ; 01C2 FD CB 7F 6E
0225   01C6 CB 6E               bit  5,[hl]             ; 01C6 CB 6E
0226   01C8 DD CB 7F 6E         bit  5,[ix+127]         ; 01C8 DD CB 7F 6E
0227   01CC FD CB 7F 6E         bit  5,[iy+127]         ; 01CC FD CB 7F 6E
0228   01D0 CB 6F               bit  5,a                ; 01D0 CB 6F
0229   01D2 CB 68               bit  5,b                ; 01D2 CB 68
0230   01D4 CB 69               bit  5,c                ; 01D4 CB 69
0231   01D6 CB 6A               bit  5,d                ; 01D6 CB 6A
0232   01D8 CB 6B               bit  5,e                ; 01D8 CB 6B
0233   01DA CB 6C               bit  5,h                ; 01DA CB 6C
0234   01DC CB 6D               bit  5,l                ; 01DC CB 6D
0235   01DE CB 76               bit  6,(hl)             ; 01DE CB 76
0236   01E0 DD CB 7F 76         bit  6,(ix+127)         ; 01E0 DD CB 7F 76
0237   01E4 FD CB 7F 76         bit  6,(iy+127)         ; 01E4 FD CB 7F 76
0238   01E8 CB 76               bit  6,[hl]             ; 01E8 CB 76
0239   01EA DD CB 7F 76         bit  6,[ix+127]         ; 01EA DD CB 7F 76
0240   01EE FD CB 7F 76         bit  6,[iy+127]         ; 01EE FD CB 7F 76
0241   01F2 CB 77               bit  6,a                ; 01F2 CB 77
0242   01F4 CB 70               bit  6,b                ; 01F4 CB 70
0243   01F6 CB 71               bit  6,c                ; 01F6 CB 71
0244   01F8 CB 72               bit  6,d                ; 01F8 CB 72
0245   01FA CB 73               bit  6,e                ; 01FA CB 73
0246   01FC CB 74               bit  6,h                ; 01FC CB 74
0247   01FE CB 75               bit  6,l                ; 01FE CB 75
0248   0200 CB 7E               bit  7,(hl)             ; 0200 CB 7E
0249   0202 DD CB 7F 7E         bit  7,(ix+127)         ; 0202 DD CB 7F 7E
0250   0206 FD CB 7F 7E         bit  7,(iy+127)         ; 0206 FD CB 7F 7E
0251   020A CB 7E               bit  7,[hl]             ; 020A CB 7E
0252   020C DD CB 7F 7E         bit  7,[ix+127]         ; 020C DD CB 7F 7E
0253   0210 FD CB 7F 7E         bit  7,[iy+127]         ; 0210 FD CB 7F 7E
0254   0214 CB 7F               bit  7,a                ; 0214 CB 7F
0255   0216 CB 78               bit  7,b                ; 0216 CB 78
0256   0218 CB 79               bit  7,c                ; 0218 CB 79
0257   021A CB 7A               bit  7,d                ; 021A CB 7A
0258   021C CB 7B               bit  7,e                ; 021C CB 7B
0259   021E CB 7C               bit  7,h                ; 021E CB 7C
0260   0220 CB 7D               bit  7,l                ; 0220 CB 7D
0261   0222 CD 00 80            call -32768             ; 0222 CD 00 80
0262   0225 CD 00 80            CALL -32768             ; 0225 CD 00 80
0263   0228 CD 01 80            call -32767             ; 0228 CD 01 80
0264   022B CD 80 FF            call -128               ; 022B CD 80 FF
0265   022E CD FF FF            call -1                 ; 022E CD FF FF
0266   0231 CD 00 00            call 0                  ; 0231 CD 00 00
0267   0234 CD 01 00            call 1                  ; 0234 CD 01 00
0268   0237 CD 7F 00            call 127                ; 0237 CD 7F 00
0269   023A CD 80 00            call 128                ; 023A CD 80 00
0270   023D CD FF 00            call 255                ; 023D CD FF 00
0271   0240 CD 00 01            call 256                ; 0240 CD 00 01
0272   0243 CD FF 7F            call 32767              ; 0243 CD FF 7F
0273   0246 CD 00 80            call 32768              ; 0246 CD 00 80
0274   0249 CD FE FF            call 65534              ; 0249 CD FE FF
0275   024C CD FF FF            call 65535              ; 024C CD FF FF
0276   024F DC FF FF            call c,65535            ; 024F DC FF FF
0277   0252 FC FF FF            call m,65535            ; 0252 FC FF FF
0278   0255 FC FF FF            CALL M,65535            ; 0255 FC FF FF
0279   0258 D4 FF FF            call nc,65535           ; 0258 D4 FF FF
0280   025B D4 FF FF            CALL NC,65535           ; 025B D4 FF FF
0281   025E C4 FF FF            call nz,65535           ; 025E C4 FF FF
0282   0261 C4 FF FF            CALL NZ,65535           ; 0261 C4 FF FF
0283   0264 F4 FF FF            call p,65535            ; 0264 F4 FF FF
0284   0267 F4 FF FF            CALL P,65535            ; 0267 F4 FF FF
0285   026A EC FF FF            call pe,65535           ; 026A EC FF FF
0286   026D EC FF FF            CALL PE,65535           ; 026D EC FF FF
0287   0270 E4 FF FF            call po,65535           ; 0270 E4 FF FF
0288   0273 E4 FF FF            CALL PO,65535           ; 0273 E4 FF FF
0289   0276 CC FF FF            call z,65535            ; 0276 CC FF FF
0290   0279 CC FF FF            CALL Z,65535            ; 0279 CC FF FF
0291   027C 3F                  ccf                     ; 027C 3F
0292   027D 3F                  CCF                     ; 027D 3F
0293   027E BE                  cp   (hl)               ; 027E BE
0294   027F BE                  CP   (HL)               ; 027F BE
0295   0280 DD BE 7F            cp   (ix+127)           ; 0280 DD BE 7F
0296   0283 FD BE 7F            cp   (iy+127)           ; 0283 FD BE 7F
0297   0286 FE FF               cp   255                ; 0286 FE FF
0298   0288 BE                  cp   [hl]               ; 0288 BE
0299   0289 DD BE 7F            cp   [ix+127]           ; 0289 DD BE 7F
0300   028C FD BE 7F            cp   [iy+127]           ; 028C FD BE 7F
0301   028F BF                  cp   a                  ; 028F BF
0302   0290 B8                  cp   b                  ; 0290 B8
0303   0291 B9                  cp   c                  ; 0291 B9
0304   0292 BA                  cp   d                  ; 0292 BA
0305   0293 BB                  cp   e                  ; 0293 BB
0306   0294 BC                  cp   h                  ; 0294 BC
0307   0295 DD BC               cp   hx                 ; 0295 DD BC
0308   0297 FD BC               cp   hy                 ; 0297 FD BC
0309   0299 DD BC               cp   ixh                ; 0299 DD BC
0310   029B DD BD               cp   ixl                ; 029B DD BD
0311   029D FD BC               cp   iyh                ; 029D FD BC
0312   029F FD BD               cp   iyl                ; 029F FD BD
0313   02A1 BD                  cp   l                  ; 02A1 BD
0314   02A2 DD BD               cp   lx                 ; 02A2 DD BD
0315   02A4 FD BD               cp   ly                 ; 02A4 FD BD
0316   02A6 DD BC               cp   xh                 ; 02A6 DD BC
0317   02A8 DD BD               cp   xl                 ; 02A8 DD BD
0318   02AA FD BC               cp   yh                 ; 02AA FD BC
0319   02AC FD BD               cp   yl                 ; 02AC FD BD
0320   02AE ED A9               cpd                     ; 02AE ED A9
0321   02B0 ED A9               CPD                     ; 02B0 ED A9
0322   02B2 ED B9               cpdr                    ; 02B2 ED B9
0323   02B4 ED B9               CPDR                    ; 02B4 ED B9
0324   02B6 ED A1               cpi                     ; 02B6 ED A1
0325   02B8 ED A1               CPI                     ; 02B8 ED A1
0326   02BA ED B1               cpir                    ; 02BA ED B1
0327   02BC ED B1               CPIR                    ; 02BC ED B1
0328   02BE 2F                  cpl                     ; 02BE 2F
0329   02BF 2F                  CPL                     ; 02BF 2F
0330   02C0 27                  daa                     ; 02C0 27
0331   02C1 27                  DAA                     ; 02C1 27
0332   02C2 35                  dec  (hl)               ; 02C2 35
0333   02C3 35                  DEC  (HL)               ; 02C3 35
0334   02C4 DD 35 7F            dec  (ix+127)           ; 02C4 DD 35 7F
0335   02C7 FD 35 7F            dec  (iy+127)           ; 02C7 FD 35 7F
0336   02CA 35                  dec  [hl]               ; 02CA 35
0337   02CB DD 35 7F            dec  [ix+127]           ; 02CB DD 35 7F
0338   02CE FD 35 7F            dec  [iy+127]           ; 02CE FD 35 7F
0339   02D1 3D                  dec  a                  ; 02D1 3D
0340   02D2 05                  dec  b                  ; 02D2 05
0341   02D3 0B                  dec  bc                 ; 02D3 0B
0342   02D4 0D                  dec  c                  ; 02D4 0D
0343   02D5 15                  dec  d                  ; 02D5 15
0344   02D6 1B                  dec  de                 ; 02D6 1B
0345   02D7 1D                  dec  e                  ; 02D7 1D
0346   02D8 25                  dec  h                  ; 02D8 25
0347   02D9 2B                  dec  hl                 ; 02D9 2B
0348   02DA DD 25               dec  hx                 ; 02DA DD 25
0349   02DC FD 25               dec  hy                 ; 02DC FD 25
0350   02DE DD 2B               dec  ix                 ; 02DE DD 2B
0351   02E0 DD 25               dec  ixh                ; 02E0 DD 25
0352   02E2 DD 2D               dec  ixl                ; 02E2 DD 2D
0353   02E4 FD 2B               dec  iy                 ; 02E4 FD 2B
0354   02E6 FD 25               dec  iyh                ; 02E6 FD 25
0355   02E8 FD 2D               dec  iyl                ; 02E8 FD 2D
0356   02EA 2D                  dec  l                  ; 02EA 2D
0357   02EB DD 2D               dec  lx                 ; 02EB DD 2D
0358   02ED FD 2D               dec  ly                 ; 02ED FD 2D
0359   02EF 3B                  dec  sp                 ; 02EF 3B
0360   02F0 DD 25               dec  xh                 ; 02F0 DD 25
0361   02F2 DD 2D               dec  xl                 ; 02F2 DD 2D
0362   02F4 FD 25               dec  yh                 ; 02F4 FD 25
0363   02F6 FD 2D               dec  yl                 ; 02F6 FD 2D
0364   02F8 F3                  di                      ; 02F8 F3
0365   02F9 F3                  DI                      ; 02F9 F3
0366   02FA 10 80               djnz 636                ; 02FA 10 80
0367   02FC 10 80               DJNZ 638                ; 02FC 10 80
0368   02FE 10 81               djnz 641                ; 02FE 10 81
0369   0300 10 FE               djnz 768                ; 0300 10 FE
0370   0302 10 00               djnz 772                ; 0302 10 00
0371   0304 10 01               djnz 775                ; 0304 10 01
0372   0306 10 7E               djnz 902                ; 0306 10 7E
0373   0308 10 7F               djnz 905                ; 0308 10 7F
0374   030A FB                  ei                      ; 030A FB
0375   030B FB                  EI                      ; 030B FB
0376   030C E3                  ex   (sp),hl            ; 030C E3
0377   030D E3                  EX   (SP),HL            ; 030D E3
0378   030E DD E3               ex   (sp),ix            ; 030E DD E3
0379   0310 FD E3               ex   (sp),iy            ; 0310 FD E3
0380   0312 E3                  ex   [sp],hl            ; 0312 E3
0381   0313 DD E3               ex   [sp],ix            ; 0313 DD E3
0382   0315 FD E3               ex   [sp],iy            ; 0315 FD E3
0383   0317 08                  ex   af                 ; 0317 08
0384   0318 08                  EX   AF                 ; 0318 08
0385   0319 08                  ex   af,af              ; 0319 08
0386   031A 08                  ex   af,af'             ; 031A 08
0387   031B 08                  EX   AF,AF'             ; 031B 08
0388   031C EB                  ex   de,hl              ; 031C EB
0389   031D 08                  exa                     ; 031D 08
0390   031E 08                  EXA                     ; 031E 08
0391   031F D9                  exx                     ; 031F D9
0392   0320 D9                  EXX                     ; 0320 D9
0393   0321 76                  halt                    ; 0321 76
0394   0322 76                  HALT                    ; 0322 76
0395   0323 ED 46               im   0                  ; 0323 ED 46
0396   0325 ED 46               IM   0                  ; 0325 ED 46
0397   0327 ED 56               im   1                  ; 0327 ED 56
0398   0329 ED 5E               im   2                  ; 0329 ED 5E
0399   032B DB FF               in   a,(255)            ; 032B DB FF
0400   032D DB FF               IN   A,(255)            ; 032D DB FF
0401   032F ED 78               in   a,(c)              ; 032F ED 78
0402   0331 DB FF               in   a,[255]            ; 0331 DB FF
0403   0333 ED 78               in   a,[c]              ; 0333 ED 78
0404   0335 ED 40               in   b,(c)              ; 0335 ED 40
0405   0337 ED 40               in   b,[c]              ; 0337 ED 40
0406   0339 ED 48               in   c,(c)              ; 0339 ED 48
0407   033B ED 48               in   c,[c]              ; 033B ED 48
0408   033D ED 50               in   d,(c)              ; 033D ED 50
0409   033F ED 50               in   d,[c]              ; 033F ED 50
0410   0341 ED 58               in   e,(c)              ; 0341 ED 58
0411   0343 ED 58               in   e,[c]              ; 0343 ED 58
0412   0345 ED 70               in   f,(c)              ; 0345 ED 70
0413   0347 ED 70               IN   F,(C)              ; 0347 ED 70
0414   0349 ED 70               in   f,[c]              ; 0349 ED 70
0415   034B ED 60               in   h,(c)              ; 034B ED 60
0416   034D ED 60               in   h,[c]              ; 034D ED 60
0417   034F ED 68               in   l,(c)              ; 034F ED 68
0418   0351 ED 68               in   l,[c]              ; 0351 ED 68
0419   0353 34                  inc  (hl)               ; 0353 34
0420   0354 34                  INC  (HL)               ; 0354 34
0421   0355 DD 34 7F            inc  (ix+127)           ; 0355 DD 34 7F
0422   0358 FD 34 7F            inc  (iy+127)           ; 0358 FD 34 7F
0423   035B 34                  inc  [hl]               ; 035B 34
0424   035C DD 34 7F            inc  [ix+127]           ; 035C DD 34 7F
0425   035F FD 34 7F            inc  [iy+127]           ; 035F FD 34 7F
0426   0362 3C                  inc  a                  ; 0362 3C
0427   0363 04                  inc  b                  ; 0363 04
0428   0364 03                  inc  bc                 ; 0364 03
0429   0365 0C                  inc  c                  ; 0365 0C
0430   0366 14                  inc  d                  ; 0366 14
0431   0367 13                  inc  de                 ; 0367 13
0432   0368 1C                  inc  e                  ; 0368 1C
0433   0369 24                  inc  h                  ; 0369 24
0434   036A 23                  inc  hl                 ; 036A 23
0435   036B DD 24               inc  hx                 ; 036B DD 24
0436   036D FD 24               inc  hy                 ; 036D FD 24
0437   036F DD 23               inc  ix                 ; 036F DD 23
0438   0371 DD 24               inc  ixh                ; 0371 DD 24
0439   0373 DD 2C               inc  ixl                ; 0373 DD 2C
0440   0375 FD 23               inc  iy                 ; 0375 FD 23
0441   0377 FD 24               inc  iyh                ; 0377 FD 24
0442   0379 FD 2C               inc  iyl                ; 0379 FD 2C
0443   037B 2C                  inc  l                  ; 037B 2C
0444   037C DD 2C               inc  lx                 ; 037C DD 2C
0445   037E FD 2C               inc  ly                 ; 037E FD 2C
0446   0380 33                  inc  sp                 ; 0380 33
0447   0381 DD 24               inc  xh                 ; 0381 DD 24
0448   0383 DD 2C               inc  xl                 ; 0383 DD 2C
0449   0385 FD 24               inc  yh                 ; 0385 FD 24
0450   0387 FD 2C               inc  yl                 ; 0387 FD 2C
0451   0389 ED AA               ind                     ; 0389 ED AA
0452   038B ED AA               IND                     ; 038B ED AA
0453   038D ED BA               indr                    ; 038D ED BA
0454   038F ED BA               INDR                    ; 038F ED BA
0455   0391 ED A2               ini                     ; 0391 ED A2
0456   0393 ED A2               INI                     ; 0393 ED A2
0457   0395 ED B2               inir                    ; 0395 ED B2
0458   0397 ED B2               INIR                    ; 0397 ED B2
0459   0399 E9                  jp   (hl)               ; 0399 E9
0460   039A E9                  JP   (HL)               ; 039A E9
0461   039B DD E9               jp   (ix)               ; 039B DD E9
0462   039D FD E9               jp   (iy)               ; 039D FD E9
0463   039F C3 FF FF            jp   65535              ; 039F C3 FF FF
0464   03A2 E9                  jp   [hl]               ; 03A2 E9
0465   03A3 DD E9               jp   [ix]               ; 03A3 DD E9
0466   03A5 FD E9               jp   [iy]               ; 03A5 FD E9
0467   03A7 DA FF FF            jp   c,65535            ; 03A7 DA FF FF
0468   03AA E9                  jp   hl                 ; 03AA E9
0469   03AB DD E9               jp   ix                 ; 03AB DD E9
0470   03AD FD E9               jp   iy                 ; 03AD FD E9
0471   03AF FA FF FF            jp   m,65535            ; 03AF FA FF FF
0472   03B2 D2 FF FF            jp   nc,65535           ; 03B2 D2 FF FF
0473   03B5 C2 FF FF            jp   nz,65535           ; 03B5 C2 FF FF
0474   03B8 F2 FF FF            jp   p,65535            ; 03B8 F2 FF FF
0475   03BB EA FF FF            jp   pe,65535           ; 03BB EA FF FF
0476   03BE E2 FF FF            jp   po,65535           ; 03BE E2 FF FF
0477   03C1 CA FF FF            jp   z,65535            ; 03C1 CA FF FF
0478   03C4 18 7F               jr   1093               ; 03C4 18 7F
0479   03C6 18 7F               JR   1095               ; 03C6 18 7F
0480   03C8 38 7F               jr   c,1097             ; 03C8 38 7F
0481   03CA 30 7F               jr   nc,1099            ; 03CA 30 7F
0482   03CC 20 7F               jr   nz,1101            ; 03CC 20 7F
0483   03CE 28 7F               jr   z,1103             ; 03CE 28 7F
0484   03D0 32 FF FF            ld   (65535),a          ; 03D0 32 FF FF
0485   03D3 32 FF FF            LD   (65535),A          ; 03D3 32 FF FF
0486   03D6 ED 43 FF FF         ld   (65535),bc         ; 03D6 ED 43 FF FF
0487   03DA ED 53 FF FF         ld   (65535),de         ; 03DA ED 53 FF FF
0488   03DE 22 FF FF            ld   (65535),hl         ; 03DE 22 FF FF
0489   03E1 DD 22 FF FF         ld   (65535),ix         ; 03E1 DD 22 FF FF
0490   03E5 FD 22 FF FF         ld   (65535),iy         ; 03E5 FD 22 FF FF
0491   03E9 ED 73 FF FF         ld   (65535),sp         ; 03E9 ED 73 FF FF
0492   03ED 02                  ld   (bc),a             ; 03ED 02
0493   03EE 12                  ld   (de),a             ; 03EE 12
0494   03EF 36 FF               ld   (hl),255           ; 03EF 36 FF
0495   03F1 77                  ld   (hl),a             ; 03F1 77
0496   03F2 70                  ld   (hl),b             ; 03F2 70
0497   03F3 71 23 70 2B         ld   (hl),bc            ; 03F3 71 23 70 2B
0498   03F7 71                  ld   (hl),c             ; 03F7 71
0499   03F8 72                  ld   (hl),d             ; 03F8 72
0500   03F9 73 23 72 2B         ld   (hl),de            ; 03F9 73 23 72 2B
0501   03FD 73                  ld   (hl),e             ; 03FD 73
0502   03FE 74                  ld   (hl),h             ; 03FE 74
0503   03FF 75                  ld   (hl),l             ; 03FF 75
0504   0400 DD 36 7F FF         ld   (ix+127),255       ; 0400 DD 36 7F FF
0505   0404 DD 77 7F            ld   (ix+127),a         ; 0404 DD 77 7F
0506   0407 DD 70 7F            ld   (ix+127),b         ; 0407 DD 70 7F
0507   040A                     ld   (ix+126),bc        ; 040A DD 71 7E DD 70 7F
0507   040A DD717EDD707F
0508   0410 DD 71 7F            ld   (ix+127),c         ; 0410 DD 71 7F
0509   0413 DD 72 7F            ld   (ix+127),d         ; 0413 DD 72 7F
0510   0416                     ld   (ix+126),de        ; 0416 DD 73 7E DD 72 7F
0510   0416 DD737EDD727F
0511   041C DD 73 7F            ld   (ix+127),e         ; 041C DD 73 7F
0512   041F DD 74 7F            ld   (ix+127),h         ; 041F DD 74 7F
0513   0422                     ld   (ix+126),hl        ; 0422 DD 75 7E DD 74 7F
0513   0422 DD757EDD747F
0514   0428 DD 75 7F            ld   (ix+127),l         ; 0428 DD 75 7F
0515   042B FD 36 7F FF         ld   (iy+127),255       ; 042B FD 36 7F FF
0516   042F FD 77 7F            ld   (iy+127),a         ; 042F FD 77 7F
0517   0432 FD 70 7F            ld   (iy+127),b         ; 0432 FD 70 7F
0518   0435                     ld   (iy+126),bc        ; 0435 FD 71 7E FD 70 7F
0518   0435 FD717EFD707F
0519   043B FD 71 7F            ld   (iy+127),c         ; 043B FD 71 7F
0520   043E FD 72 7F            ld   (iy+127),d         ; 043E FD 72 7F
0521   0441                     ld   (iy+126),de        ; 0441 FD 73 7E FD 72 7F
0521   0441 FD737EFD727F
0522   0447 FD 73 7F            ld   (iy+127),e         ; 0447 FD 73 7F
0523   044A FD 74 7F            ld   (iy+127),h         ; 044A FD 74 7F
0524   044D                     ld   (iy+126),hl        ; 044D FD 75 7E FD 74 7F
0524   044D FD757EFD747F
0525   0453 FD 75 7F            ld   (iy+127),l         ; 0453 FD 75 7F
0526   0456 32 FF FF            ld   [65535],a          ; 0456 32 FF FF
0527   0459 ED 43 FF FF         ld   [65535],bc         ; 0459 ED 43 FF FF
0528   045D ED 53 FF FF         ld   [65535],de         ; 045D ED 53 FF FF
0529   0461 22 FF FF            ld   [65535],hl         ; 0461 22 FF FF
0530   0464 DD 22 FF FF         ld   [65535],ix         ; 0464 DD 22 FF FF
0531   0468 FD 22 FF FF         ld   [65535],iy         ; 0468 FD 22 FF FF
0532   046C ED 73 FF FF         ld   [65535],sp         ; 046C ED 73 FF FF
0533   0470 02                  ld   [bc],a             ; 0470 02
0534   0471 12                  ld   [de],a             ; 0471 12
0535   0472 36 FF               ld   [hl],255           ; 0472 36 FF
0536   0474 77                  ld   [hl],a             ; 0474 77
0537   0475 70                  ld   [hl],b             ; 0475 70
0538   0476 71 23 70 2B         ld   [hl],bc            ; 0476 71 23 70 2B
0539   047A 71                  ld   [hl],c             ; 047A 71
0540   047B 72                  ld   [hl],d             ; 047B 72
0541   047C 73 23 72 2B         ld   [hl],de            ; 047C 73 23 72 2B
0542   0480 73                  ld   [hl],e             ; 0480 73
0543   0481 74                  ld   [hl],h             ; 0481 74
0544   0482 75                  ld   [hl],l             ; 0482 75
0545   0483 DD 36 7F FF         ld   [ix+127],255       ; 0483 DD 36 7F FF
0546   0487 DD 77 7F            ld   [ix+127],a         ; 0487 DD 77 7F
0547   048A DD 70 7F            ld   [ix+127],b         ; 048A DD 70 7F
0548   048D                     ld   [ix+126],bc        ; 048D DD 71 7E DD 70 7F
0548   048D DD717EDD707F
0549   0493 DD 71 7F            ld   [ix+127],c         ; 0493 DD 71 7F
0550   0496 DD 72 7F            ld   [ix+127],d         ; 0496 DD 72 7F
0551   0499                     ld   [ix+126],de        ; 0499 DD 73 7E DD 72 7F
0551   0499 DD737EDD727F
0552   049F DD 73 7F            ld   [ix+127],e         ; 049F DD 73 7F
0553   04A2 DD 74 7F            ld   [ix+127],h         ; 04A2 DD 74 7F
0554   04A5                     ld   [ix+126],hl        ; 04A5 DD 75 7E DD 74 7F
0554   04A5 DD757EDD747F
0555   04AB DD 75 7F            ld   [ix+127],l         ; 04AB DD 75 7F
0556   04AE FD 36 7F FF         ld   [iy+127],255       ; 04AE FD 36 7F FF
0557   04B2 FD 77 7F            ld   [iy+127],a         ; 04B2 FD 77 7F
0558   04B5 FD 70 7F            ld   [iy+127],b         ; 04B5 FD 70 7F
0559   04B8                     ld   [iy+126],bc        ; 04B8 FD 71 7E FD 70 7F
0559   04B8 FD717EFD707F
0560   04BE FD 71 7F            ld   [iy+127],c         ; 04BE FD 71 7F
0561   04C1 FD 72 7F            ld   [iy+127],d         ; 04C1 FD 72 7F
0562   04C4                     ld   [iy+126],de        ; 04C4 FD 73 7E FD 72 7F
0562   04C4 FD737EFD727F
0563   04CA FD 73 7F            ld   [iy+127],e         ; 04CA FD 73 7F
0564   04CD FD 74 7F            ld   [iy+127],h         ; 04CD FD 74 7F
0565   04D0                     ld   [iy+126],hl        ; 04D0 FD 75 7E FD 74 7F
0565   04D0 FD757EFD747F
0566   04D6 FD 75 7F            ld   [iy+127],l         ; 04D6 FD 75 7F
0567   04D9 3A FF FF            ld   a,(65535)          ; 04D9 3A FF FF
0568   04DC 0A                  ld   a,(bc)             ; 04DC 0A
0569   04DD 1A                  ld   a,(de)             ; 04DD 1A
0570   04DE 7E                  ld   a,(hl)             ; 04DE 7E
0571   04DF DD 7E 7F            ld   a,(ix+127)         ; 04DF DD 7E 7F
0572   04E2 FD 7E 7F            ld   a,(iy+127)         ; 04E2 FD 7E 7F
0573   04E5 3E FF               ld   a,255              ; 04E5 3E FF
0574   04E7 3A FF FF            ld   a,[65535]          ; 04E7 3A FF FF
0575   04EA 0A                  ld   a,[bc]             ; 04EA 0A
0576   04EB 1A                  ld   a,[de]             ; 04EB 1A
0577   04EC 7E                  ld   a,[hl]             ; 04EC 7E
0578   04ED DD 7E 7F            ld   a,[ix+127]         ; 04ED DD 7E 7F
0579   04F0 FD 7E 7F            ld   a,[iy+127]         ; 04F0 FD 7E 7F
0580   04F3 7F                  ld   a,a                ; 04F3 7F
0581   04F4 78                  ld   a,b                ; 04F4 78
0582   04F5 79                  ld   a,c                ; 04F5 79
0583   04F6 7A                  ld   a,d                ; 04F6 7A
0584   04F7 7B                  ld   a,e                ; 04F7 7B
0585   04F8 7C                  ld   a,h                ; 04F8 7C
0586   04F9 DD 7C               ld   a,hx               ; 04F9 DD 7C
0587   04FB FD 7C               ld   a,hy               ; 04FB FD 7C
0588   04FD ED 57               ld   a,i                ; 04FD ED 57
0589   04FF ED 57               LD   A,I                ; 04FF ED 57
0590   0501 DD 7C               ld   a,ixh              ; 0501 DD 7C
0591   0503 DD 7D               ld   a,ixl              ; 0503 DD 7D
0592   0505 FD 7C               ld   a,iyh              ; 0505 FD 7C
0593   0507 FD 7D               ld   a,iyl              ; 0507 FD 7D
0594   0509 7D                  ld   a,l                ; 0509 7D
0595   050A DD 7D               ld   a,lx               ; 050A DD 7D
0596   050C FD 7D               ld   a,ly               ; 050C FD 7D
0597   050E ED 5F               ld   a,r                ; 050E ED 5F
0598   0510 ED 5F               LD   A,R                ; 0510 ED 5F
0599   0512 DD 7C               ld   a,xh               ; 0512 DD 7C
0600   0514 DD 7D               ld   a,xl               ; 0514 DD 7D
0601   0516 FD 7C               ld   a,yh               ; 0516 FD 7C
0602   0518 FD 7D               ld   a,yl               ; 0518 FD 7D
0603   051A 46                  ld   b,(hl)             ; 051A 46
0604   051B DD 46 7F            ld   b,(ix+127)         ; 051B DD 46 7F
0605   051E FD 46 7F            ld   b,(iy+127)         ; 051E FD 46 7F
0606   0521 06 FF               ld   b,255              ; 0521 06 FF
0607   0523 46                  ld   b,[hl]             ; 0523 46
0608   0524 DD 46 7F            ld   b,[ix+127]         ; 0524 DD 46 7F
0609   0527 FD 46 7F            ld   b,[iy+127]         ; 0527 FD 46 7F
0610   052A 47                  ld   b,a                ; 052A 47
0611   052B 40                  ld   b,b                ; 052B 40
0612   052C 41                  ld   b,c                ; 052C 41
0613   052D 42                  ld   b,d                ; 052D 42
0614   052E 43                  ld   b,e                ; 052E 43
0615   052F 44                  ld   b,h                ; 052F 44
0616   0530 DD 44               ld   b,hx               ; 0530 DD 44
0617   0532 FD 44               ld   b,hy               ; 0532 FD 44
0618   0534 DD 44               ld   b,ixh              ; 0534 DD 44
0619   0536 DD 45               ld   b,ixl              ; 0536 DD 45
0620   0538 FD 44               ld   b,iyh              ; 0538 FD 44
0621   053A FD 45               ld   b,iyl              ; 053A FD 45
0622   053C 45                  ld   b,l                ; 053C 45
0623   053D DD 45               ld   b,lx               ; 053D DD 45
0624   053F FD 45               ld   b,ly               ; 053F FD 45
0625   0541 DD 44               ld   b,xh               ; 0541 DD 44
0626   0543 DD 45               ld   b,xl               ; 0543 DD 45
0627   0545 FD 44               ld   b,yh               ; 0545 FD 44
0628   0547 FD 45               ld   b,yl               ; 0547 FD 45
0629   0549 ED 4B FF FF         ld   bc,(65535)         ; 0549 ED 4B FF FF
0630   054D 4E 23 46 2B         ld   bc,(hl)            ; 054D 4E 23 46 2B
0631   0551                     ld   bc,(ix+126)        ; 0551 DD 4E 7E DD 46 7F
0631   0551 DD4E7EDD467F
0632   0557                     ld   bc,(iy+126)        ; 0557 FD 4E 7E FD 46 7F
0632   0557 FD4E7EFD467F
0633   055D 01 FF FF            ld   bc,65535           ; 055D 01 FF FF
0634   0560 ED 4B FF FF         ld   bc,[65535]         ; 0560 ED 4B FF FF
0635   0564 4E 23 46 2B         ld   bc,[hl]            ; 0564 4E 23 46 2B
0636   0568                     ld   bc,[ix+126]        ; 0568 DD 4E 7E DD 46 7F
0636   0568 DD4E7EDD467F
0637   056E                     ld   bc,[iy+126]        ; 056E FD 4E 7E FD 46 7F
0637   056E FD4E7EFD467F
0638   0574 40 49               ld   bc,bc              ; 0574 40 49
0639   0576 42 4B               ld   bc,de              ; 0576 42 4B
0640   0578 44 4D               ld   bc,hl              ; 0578 44 4D
0641   057A DD 44 DD 4D         ld   bc,ix              ; 057A DD 44 DD 4D
0642   057E FD 44 FD 4D         ld   bc,iy              ; 057E FD 44 FD 4D
0643   0582 4E                  ld   c,(hl)             ; 0582 4E
0644   0583 DD 4E 7F            ld   c,(ix+127)         ; 0583 DD 4E 7F
0645   0586 FD 4E 7F            ld   c,(iy+127)         ; 0586 FD 4E 7F
0646   0589 0E FF               ld   c,255              ; 0589 0E FF
0647   058B 4E                  ld   c,[hl]             ; 058B 4E
0648   058C DD 4E 7F            ld   c,[ix+127]         ; 058C DD 4E 7F
0649   058F FD 4E 7F            ld   c,[iy+127]         ; 058F FD 4E 7F
0650   0592 4F                  ld   c,a                ; 0592 4F
0651   0593 48                  ld   c,b                ; 0593 48
0652   0594 49                  ld   c,c                ; 0594 49
0653   0595 4A                  ld   c,d                ; 0595 4A
0654   0596 4B                  ld   c,e                ; 0596 4B
0655   0597 4C                  ld   c,h                ; 0597 4C
0656   0598 DD 4C               ld   c,hx               ; 0598 DD 4C
0657   059A FD 4C               ld   c,hy               ; 059A FD 4C
0658   059C DD 4C               ld   c,ixh              ; 059C DD 4C
0659   059E DD 4D               ld   c,ixl              ; 059E DD 4D
0660   05A0 FD 4C               ld   c,iyh              ; 05A0 FD 4C
0661   05A2 FD 4D               ld   c,iyl              ; 05A2 FD 4D
0662   05A4 4D                  ld   c,l                ; 05A4 4D
0663   05A5 DD 4D               ld   c,lx               ; 05A5 DD 4D
0664   05A7 FD 4D               ld   c,ly               ; 05A7 FD 4D
0665   05A9 DD 4C               ld   c,xh               ; 05A9 DD 4C
0666   05AB DD 4D               ld   c,xl               ; 05AB DD 4D
0667   05AD FD 4C               ld   c,yh               ; 05AD FD 4C
0668   05AF FD 4D               ld   c,yl               ; 05AF FD 4D
0669   05B1 56                  ld   d,(hl)             ; 05B1 56
0670   05B2 DD 56 7F            ld   d,(ix+127)         ; 05B2 DD 56 7F
0671   05B5 FD 56 7F            ld   d,(iy+127)         ; 05B5 FD 56 7F
0672   05B8 16 FF               ld   d,255              ; 05B8 16 FF
0673   05BA 56                  ld   d,[hl]             ; 05BA 56
0674   05BB DD 56 7F            ld   d,[ix+127]         ; 05BB DD 56 7F
0675   05BE FD 56 7F            ld   d,[iy+127]         ; 05BE FD 56 7F
0676   05C1 57                  ld   d,a                ; 05C1 57
0677   05C2 50                  ld   d,b                ; 05C2 50
0678   05C3 51                  ld   d,c                ; 05C3 51
0679   05C4 52                  ld   d,d                ; 05C4 52
0680   05C5 53                  ld   d,e                ; 05C5 53
0681   05C6 54                  ld   d,h                ; 05C6 54
0682   05C7 DD 54               ld   d,hx               ; 05C7 DD 54
0683   05C9 FD 54               ld   d,hy               ; 05C9 FD 54
0684   05CB DD 54               ld   d,ixh              ; 05CB DD 54
0685   05CD DD 55               ld   d,ixl              ; 05CD DD 55
0686   05CF FD 54               ld   d,iyh              ; 05CF FD 54
0687   05D1 FD 55               ld   d,iyl              ; 05D1 FD 55
0688   05D3 55                  ld   d,l                ; 05D3 55
0689   05D4 DD 55               ld   d,lx               ; 05D4 DD 55
0690   05D6 FD 55               ld   d,ly               ; 05D6 FD 55
0691   05D8 DD 54               ld   d,xh               ; 05D8 DD 54
0692   05DA DD 55               ld   d,xl               ; 05DA DD 55
0693   05DC FD 54               ld   d,yh               ; 05DC FD 54
0694   05DE FD 55               ld   d,yl               ; 05DE FD 55
0695   05E0 ED 5B FF FF         ld   de,(65535)         ; 05E0 ED 5B FF FF
0696   05E4 5E 23 56 2B         ld   de,(hl)            ; 05E4 5E 23 56 2B
0697   05E8                     ld   de,(ix+126)        ; 05E8 DD 5E 7E DD 56 7F
0697   05E8 DD5E7EDD567F
0698   05EE                     ld   de,(iy+126)        ; 05EE FD 5E 7E FD 56 7F
0698   05EE FD5E7EFD567F
0699   05F4 11 FF FF            ld   de,65535           ; 05F4 11 FF FF
0700   05F7 ED 5B FF FF         ld   de,[65535]         ; 05F7 ED 5B FF FF
0701   05FB 5E 23 56 2B         ld   de,[hl]            ; 05FB 5E 23 56 2B
0702   05FF                     ld   de,[ix+126]        ; 05FF DD 5E 7E DD 56 7F
0702   05FF DD5E7EDD567F
0703   0605                     ld   de,[iy+126]        ; 0605 FD 5E 7E FD 56 7F
0703   0605 FD5E7EFD567F
0704   060B 50 59               ld   de,bc              ; 060B 50 59
0705   060D 52 5B               ld   de,de              ; 060D 52 5B
0706   060F 54 5D               ld   de,hl              ; 060F 54 5D
0707   0611 DD 54 DD 5D         ld   de,ix              ; 0611 DD 54 DD 5D
0708   0615 FD 54 FD 5D         ld   de,iy              ; 0615 FD 54 FD 5D
0709   0619 5E                  ld   e,(hl)             ; 0619 5E
0710   061A DD 5E 7F            ld   e,(ix+127)         ; 061A DD 5E 7F
0711   061D FD 5E 7F            ld   e,(iy+127)         ; 061D FD 5E 7F
0712   0620 1E FF               ld   e,255              ; 0620 1E FF
0713   0622 5E                  ld   e,[hl]             ; 0622 5E
0714   0623 DD 5E 7F            ld   e,[ix+127]         ; 0623 DD 5E 7F
0715   0626 FD 5E 7F            ld   e,[iy+127]         ; 0626 FD 5E 7F
0716   0629 5F                  ld   e,a                ; 0629 5F
0717   062A 58                  ld   e,b                ; 062A 58
0718   062B 59                  ld   e,c                ; 062B 59
0719   062C 5A                  ld   e,d                ; 062C 5A
0720   062D 5B                  ld   e,e                ; 062D 5B
0721   062E 5C                  ld   e,h                ; 062E 5C
0722   062F DD 5C               ld   e,hx               ; 062F DD 5C
0723   0631 FD 5C               ld   e,hy               ; 0631 FD 5C
0724   0633 DD 5C               ld   e,ixh              ; 0633 DD 5C
0725   0635 DD 5D               ld   e,ixl              ; 0635 DD 5D
0726   0637 FD 5C               ld   e,iyh              ; 0637 FD 5C
0727   0639 FD 5D               ld   e,iyl              ; 0639 FD 5D
0728   063B 5D                  ld   e,l                ; 063B 5D
0729   063C DD 5D               ld   e,lx               ; 063C DD 5D
0730   063E FD 5D               ld   e,ly               ; 063E FD 5D
0731   0640 DD 5C               ld   e,xh               ; 0640 DD 5C
0732   0642 DD 5D               ld   e,xl               ; 0642 DD 5D
0733   0644 FD 5C               ld   e,yh               ; 0644 FD 5C
0734   0646 FD 5D               ld   e,yl               ; 0646 FD 5D
0735   0648 66                  ld   h,(hl)             ; 0648 66
0736   0649 DD 66 7F            ld   h,(ix+127)         ; 0649 DD 66 7F
0737   064C FD 66 7F            ld   h,(iy+127)         ; 064C FD 66 7F
0738   064F 26 FF               ld   h,255              ; 064F 26 FF
0739   0651 66                  ld   h,[hl]             ; 0651 66
0740   0652 DD 66 7F            ld   h,[ix+127]         ; 0652 DD 66 7F
0741   0655 FD 66 7F            ld   h,[iy+127]         ; 0655 FD 66 7F
0742   0658 67                  ld   h,a                ; 0658 67
0743   0659 60                  ld   h,b                ; 0659 60
0744   065A 61                  ld   h,c                ; 065A 61
0745   065B 62                  ld   h,d                ; 065B 62
0746   065C 63                  ld   h,e                ; 065C 63
0747   065D 64                  ld   h,h                ; 065D 64
0748   065E 65                  ld   h,l                ; 065E 65
0749   065F 2A FF FF            ld   hl,(65535)         ; 065F 2A FF FF
0750   0662                     ld   hl,(ix+126)        ; 0662 DD 6E 7E DD 66 7F
0750   0662 DD6E7EDD667F
0751   0668                     ld   hl,(iy+126)        ; 0668 FD 6E 7E FD 66 7F
0751   0668 FD6E7EFD667F
0752   066E 21 FF FF            ld   hl,65535           ; 066E 21 FF FF
0753   0671 2A FF FF            ld   hl,[65535]         ; 0671 2A FF FF
0754   0674                     ld   hl,[ix+126]        ; 0674 DD 6E 7E DD 66 7F
0754   0674 DD6E7EDD667F
0755   067A                     ld   hl,[iy+126]        ; 067A FD 6E 7E FD 66 7F
0755   067A FD6E7EFD667F
0756   0680 60 69               ld   hl,bc              ; 0680 60 69
0757   0682 62 6B               ld   hl,de              ; 0682 62 6B
0758   0684 64 6D               ld   hl,hl              ; 0684 64 6D
0759   0686 DD E5 E1            ld   hl,ix              ; 0686 DD E5 E1
0760   0689 FD E5 E1            ld   hl,iy              ; 0689 FD E5 E1
0761   068C DD 26 FF            ld   hx,255             ; 068C DD 26 FF
0762   068F DD 67               ld   hx,a               ; 068F DD 67
0763   0691 DD 60               ld   hx,b               ; 0691 DD 60
0764   0693 DD 61               ld   hx,c               ; 0693 DD 61
0765   0695 DD 62               ld   hx,d               ; 0695 DD 62
0766   0697 DD 63               ld   hx,e               ; 0697 DD 63
0767   0699 DD 64               ld   hx,hx              ; 0699 DD 64
0768   069B DD 65               ld   hx,lx              ; 069B DD 65
0769   069D FD 26 FF            ld   hy,255             ; 069D FD 26 FF
0770   06A0 FD 67               ld   hy,a               ; 06A0 FD 67
0771   06A2 FD 60               ld   hy,b               ; 06A2 FD 60
0772   06A4 FD 61               ld   hy,c               ; 06A4 FD 61
0773   06A6 FD 62               ld   hy,d               ; 06A6 FD 62
0774   06A8 FD 63               ld   hy,e               ; 06A8 FD 63
0775   06AA FD 64               ld   hy,hy              ; 06AA FD 64
0776   06AC FD 65               ld   hy,ly              ; 06AC FD 65
0777   06AE ED 47               ld   i,a                ; 06AE ED 47
0778   06B0 DD 2A FF FF         ld   ix,(65535)         ; 06B0 DD 2A FF FF
0779   06B4 DD 21 FF FF         ld   ix,65535           ; 06B4 DD 21 FF FF
0780   06B8 DD 2A FF FF         ld   ix,[65535]         ; 06B8 DD 2A FF FF
0781   06BC DD 69 DD 60         ld   ix,bc              ; 06BC DD 69 DD 60
0782   06C0 DD 6B DD 62         ld   ix,de              ; 06C0 DD 6B DD 62
0783   06C4 E5 DD E1            ld   ix,hl              ; 06C4 E5 DD E1
0784   06C7 DD 6D DD 64         ld   ix,ix              ; 06C7 DD 6D DD 64
0785   06CB FD E5 DD E1         ld   ix,iy              ; 06CB FD E5 DD E1
0786   06CF DD 26 FF            ld   ixh,255            ; 06CF DD 26 FF
0787   06D2 DD 67               ld   ixh,a              ; 06D2 DD 67
0788   06D4 DD 60               ld   ixh,b              ; 06D4 DD 60
0789   06D6 DD 61               ld   ixh,c              ; 06D6 DD 61
0790   06D8 DD 62               ld   ixh,d              ; 06D8 DD 62
0791   06DA DD 63               ld   ixh,e              ; 06DA DD 63
0792   06DC DD 64               ld   ixh,ixh            ; 06DC DD 64
0793   06DE DD 65               ld   ixh,ixl            ; 06DE DD 65
0794   06E0 DD 2E FF            ld   ixl,255            ; 06E0 DD 2E FF
0795   06E3 DD 6F               ld   ixl,a              ; 06E3 DD 6F
0796   06E5 DD 68               ld   ixl,b              ; 06E5 DD 68
0797   06E7 DD 69               ld   ixl,c              ; 06E7 DD 69
0798   06E9 DD 6A               ld   ixl,d              ; 06E9 DD 6A
0799   06EB DD 6B               ld   ixl,e              ; 06EB DD 6B
0800   06ED DD 6C               ld   ixl,ixh            ; 06ED DD 6C
0801   06EF DD 6D               ld   ixl,ixl            ; 06EF DD 6D
0802   06F1 FD 2A FF FF         ld   iy,(65535)         ; 06F1 FD 2A FF FF
0803   06F5 FD 21 FF FF         ld   iy,65535           ; 06F5 FD 21 FF FF
0804   06F9 FD 2A FF FF         ld   iy,[65535]         ; 06F9 FD 2A FF FF
0805   06FD FD 69 FD 60         ld   iy,bc              ; 06FD FD 69 FD 60
0806   0701 FD 6B FD 62         ld   iy,de              ; 0701 FD 6B FD 62
0807   0705 E5 FD E1            ld   iy,hl              ; 0705 E5 FD E1
0808   0708 DD E5 FD E1         ld   iy,ix              ; 0708 DD E5 FD E1
0809   070C FD 6D FD 64         ld   iy,iy              ; 070C FD 6D FD 64
0810   0710 FD 26 FF            ld   iyh,255            ; 0710 FD 26 FF
0811   0713 FD 67               ld   iyh,a              ; 0713 FD 67
0812   0715 FD 60               ld   iyh,b              ; 0715 FD 60
0813   0717 FD 61               ld   iyh,c              ; 0717 FD 61
0814   0719 FD 62               ld   iyh,d              ; 0719 FD 62
0815   071B FD 63               ld   iyh,e              ; 071B FD 63
0816   071D FD 64               ld   iyh,iyh            ; 071D FD 64
0817   071F FD 65               ld   iyh,iyl            ; 071F FD 65
0818   0721 FD 2E FF            ld   iyl,255            ; 0721 FD 2E FF
0819   0724 FD 6F               ld   iyl,a              ; 0724 FD 6F
0820   0726 FD 68               ld   iyl,b              ; 0726 FD 68
0821   0728 FD 69               ld   iyl,c              ; 0728 FD 69
0822   072A FD 6A               ld   iyl,d              ; 072A FD 6A
0823   072C FD 6B               ld   iyl,e              ; 072C FD 6B
0824   072E FD 6C               ld   iyl,iyh            ; 072E FD 6C
0825   0730 FD 6D               ld   iyl,iyl            ; 0730 FD 6D
0826   0732 6E                  ld   l,(hl)             ; 0732 6E
0827   0733 DD 6E 7F            ld   l,(ix+127)         ; 0733 DD 6E 7F
0828   0736 FD 6E 7F            ld   l,(iy+127)         ; 0736 FD 6E 7F
0829   0739 2E FF               ld   l,255              ; 0739 2E FF
0830   073B 6E                  ld   l,[hl]             ; 073B 6E
0831   073C DD 6E 7F            ld   l,[ix+127]         ; 073C DD 6E 7F
0832   073F FD 6E 7F            ld   l,[iy+127]         ; 073F FD 6E 7F
0833   0742 6F                  ld   l,a                ; 0742 6F
0834   0743 68                  ld   l,b                ; 0743 68
0835   0744 69                  ld   l,c                ; 0744 69
0836   0745 6A                  ld   l,d                ; 0745 6A
0837   0746 6B                  ld   l,e                ; 0746 6B
0838   0747 6C                  ld   l,h                ; 0747 6C
0839   0748 6D                  ld   l,l                ; 0748 6D
0840   0749 DD 2E FF            ld   lx,255             ; 0749 DD 2E FF
0841   074C DD 6F               ld   lx,a               ; 074C DD 6F
0842   074E DD 68               ld   lx,b               ; 074E DD 68
0843   0750 DD 69               ld   lx,c               ; 0750 DD 69
0844   0752 DD 6A               ld   lx,d               ; 0752 DD 6A
0845   0754 DD 6B               ld   lx,e               ; 0754 DD 6B
0846   0756 DD 6C               ld   lx,hx              ; 0756 DD 6C
0847   0758 DD 6D               ld   lx,lx              ; 0758 DD 6D
0848   075A FD 2E FF            ld   ly,255             ; 075A FD 2E FF
0849   075D FD 6F               ld   ly,a               ; 075D FD 6F
0850   075F FD 68               ld   ly,b               ; 075F FD 68
0851   0761 FD 69               ld   ly,c               ; 0761 FD 69
0852   0763 FD 6A               ld   ly,d               ; 0763 FD 6A
0853   0765 FD 6B               ld   ly,e               ; 0765 FD 6B
0854   0767 FD 6C               ld   ly,hy              ; 0767 FD 6C
0855   0769 FD 6D               ld   ly,ly              ; 0769 FD 6D
0856   076B ED 4F               ld   r,a                ; 076B ED 4F
0857   076D ED 7B FF FF         ld   sp,(65535)         ; 076D ED 7B FF FF
0858   0771 31 FF FF            ld   sp,65535           ; 0771 31 FF FF
0859   0774 ED 7B FF FF         ld   sp,[65535]         ; 0774 ED 7B FF FF
0860   0778 F9                  ld   sp,hl              ; 0778 F9
0861   0779 DD F9               ld   sp,ix              ; 0779 DD F9
0862   077B FD F9               ld   sp,iy              ; 077B FD F9
0863   077D DD 26 FF            ld   xh,255             ; 077D DD 26 FF
0864   0780 DD 67               ld   xh,a               ; 0780 DD 67
0865   0782 DD 60               ld   xh,b               ; 0782 DD 60
0866   0784 DD 61               ld   xh,c               ; 0784 DD 61
0867   0786 DD 62               ld   xh,d               ; 0786 DD 62
0868   0788 DD 63               ld   xh,e               ; 0788 DD 63
0869   078A DD 64               ld   xh,xh              ; 078A DD 64
0870   078C DD 65               ld   xh,xl              ; 078C DD 65
0871   078E DD 2E FF            ld   xl,255             ; 078E DD 2E FF
0872   0791 DD 6F               ld   xl,a               ; 0791 DD 6F
0873   0793 DD 68               ld   xl,b               ; 0793 DD 68
0874   0795 DD 69               ld   xl,c               ; 0795 DD 69
0875   0797 DD 6A               ld   xl,d               ; 0797 DD 6A
0876   0799 DD 6B               ld   xl,e               ; 0799 DD 6B
0877   079B DD 6C               ld   xl,xh              ; 079B DD 6C
0878   079D DD 6D               ld   xl,xl              ; 079D DD 6D
0879   079F FD 26 FF            ld   yh,255             ; 079F FD 26 FF
0880   07A2 FD 67               ld   yh,a               ; 07A2 FD 67
0881   07A4 FD 60               ld   yh,b               ; 07A4 FD 60
0882   07A6 FD 61               ld   yh,c               ; 07A6 FD 61
0883   07A8 FD 62               ld   yh,d               ; 07A8 FD 62
0884   07AA FD 63               ld   yh,e               ; 07AA FD 63
0885   07AC FD 64               ld   yh,yh              ; 07AC FD 64
0886   07AE FD 65               ld   yh,yl              ; 07AE FD 65
0887   07B0 FD 2E FF            ld   yl,255             ; 07B0 FD 2E FF
0888   07B3 FD 6F               ld   yl,a               ; 07B3 FD 6F
0889   07B5 FD 68               ld   yl,b               ; 07B5 FD 68
0890   07B7 FD 69               ld   yl,c               ; 07B7 FD 69
0891   07B9 FD 6A               ld   yl,d               ; 07B9 FD 6A
0892   07BB FD 6B               ld   yl,e               ; 07BB FD 6B
0893   07BD FD 6C               ld   yl,yh              ; 07BD FD 6C
0894   07BF FD 6D               ld   yl,yl              ; 07BF FD 6D
0895   07C1 ED A8               ldd                     ; 07C1 ED A8
0896   07C3 ED A8               LDD                     ; 07C3 ED A8
0897   07C5 02 0B               ldd  (bc),a             ; 07C5 02 0B
0898   07C7 12 1B               ldd  (de),a             ; 07C7 12 1B
0899   07C9 36 FF 2B            ldd  (hl),255           ; 07C9 36 FF 2B
0900   07CC 77 2B               ldd  (hl),a             ; 07CC 77 2B
0901   07CE 70 2B               ldd  (hl),b             ; 07CE 70 2B
0902   07D0 71 2B               ldd  (hl),c             ; 07D0 71 2B
0903   07D2 72 2B               ldd  (hl),d             ; 07D2 72 2B
0904   07D4 73 2B               ldd  (hl),e             ; 07D4 73 2B
0905   07D6 74 2B               ldd  (hl),h             ; 07D6 74 2B
0906   07D8 75 2B               ldd  (hl),l             ; 07D8 75 2B
0907   07DA                     ldd  (ix+127),255       ; 07DA DD 36 7F FF DD 2B
0907   07DA DD367FFFDD2B
0908   07E0 DD777FDD2B          ldd  (ix+127),a         ; 07E0 DD 77 7F DD 2B
0909   07E5 DD707FDD2B          ldd  (ix+127),b         ; 07E5 DD 70 7F DD 2B
0910   07EA DD717FDD2B          ldd  (ix+127),c         ; 07EA DD 71 7F DD 2B
0911   07EF DD727FDD2B          ldd  (ix+127),d         ; 07EF DD 72 7F DD 2B
0912   07F4 DD737FDD2B          ldd  (ix+127),e         ; 07F4 DD 73 7F DD 2B
0913   07F9 DD747FDD2B          ldd  (ix+127),h         ; 07F9 DD 74 7F DD 2B
0914   07FE DD757FDD2B          ldd  (ix+127),l         ; 07FE DD 75 7F DD 2B
0915   0803                     ldd  (iy+127),255       ; 0803 FD 36 7F FF FD 2B
0915   0803 FD367FFFFD2B
0916   0809 FD777FFD2B          ldd  (iy+127),a         ; 0809 FD 77 7F FD 2B
0917   080E FD707FFD2B          ldd  (iy+127),b         ; 080E FD 70 7F FD 2B
0918   0813 FD717FFD2B          ldd  (iy+127),c         ; 0813 FD 71 7F FD 2B
0919   0818 FD727FFD2B          ldd  (iy+127),d         ; 0818 FD 72 7F FD 2B
0920   081D FD737FFD2B          ldd  (iy+127),e         ; 081D FD 73 7F FD 2B
0921   0822 FD747FFD2B          ldd  (iy+127),h         ; 0822 FD 74 7F FD 2B
0922   0827 FD757FFD2B          ldd  (iy+127),l         ; 0827 FD 75 7F FD 2B
0923   082C 02 0B               ldd  [bc],a             ; 082C 02 0B
0924   082E 12 1B               ldd  [de],a             ; 082E 12 1B
0925   0830 36 FF 2B            ldd  [hl],255           ; 0830 36 FF 2B
0926   0833 77 2B               ldd  [hl],a             ; 0833 77 2B
0927   0835 70 2B               ldd  [hl],b             ; 0835 70 2B
0928   0837 71 2B               ldd  [hl],c             ; 0837 71 2B
0929   0839 72 2B               ldd  [hl],d             ; 0839 72 2B
0930   083B 73 2B               ldd  [hl],e             ; 083B 73 2B
0931   083D 74 2B               ldd  [hl],h             ; 083D 74 2B
0932   083F 75 2B               ldd  [hl],l             ; 083F 75 2B
0933   0841                     ldd  [ix+127],255       ; 0841 DD 36 7F FF DD 2B
0933   0841 DD367FFFDD2B
0934   0847 DD777FDD2B          ldd  [ix+127],a         ; 0847 DD 77 7F DD 2B
0935   084C DD707FDD2B          ldd  [ix+127],b         ; 084C DD 70 7F DD 2B
0936   0851 DD717FDD2B          ldd  [ix+127],c         ; 0851 DD 71 7F DD 2B
0937   0856 DD727FDD2B          ldd  [ix+127],d         ; 0856 DD 72 7F DD 2B
0938   085B DD737FDD2B          ldd  [ix+127],e         ; 085B DD 73 7F DD 2B
0939   0860 DD747FDD2B          ldd  [ix+127],h         ; 0860 DD 74 7F DD 2B
0940   0865 DD757FDD2B          ldd  [ix+127],l         ; 0865 DD 75 7F DD 2B
0941   086A                     ldd  [iy+127],255       ; 086A FD 36 7F FF FD 2B
0941   086A FD367FFFFD2B
0942   0870 FD777FFD2B          ldd  [iy+127],a         ; 0870 FD 77 7F FD 2B
0943   0875 FD707FFD2B          ldd  [iy+127],b         ; 0875 FD 70 7F FD 2B
0944   087A FD717FFD2B          ldd  [iy+127],c         ; 087A FD 71 7F FD 2B
0945   087F FD727FFD2B          ldd  [iy+127],d         ; 087F FD 72 7F FD 2B
0946   0884 FD737FFD2B          ldd  [iy+127],e         ; 0884 FD 73 7F FD 2B
0947   0889 FD747FFD2B          ldd  [iy+127],h         ; 0889 FD 74 7F FD 2B
0948   088E FD757FFD2B          ldd  [iy+127],l         ; 088E FD 75 7F FD 2B
0949   0893 0A 0B               ldd  a,(bc)             ; 0893 0A 0B
0950   0895 1A 1B               ldd  a,(de)             ; 0895 1A 1B
0951   0897 7E 2B               ldd  a,(hl)             ; 0897 7E 2B
0952   0899 DD7E7FDD2B          ldd  a,(ix+127)         ; 0899 DD 7E 7F DD 2B
0953   089E FD7E7FFD2B          ldd  a,(iy+127)         ; 089E FD 7E 7F FD 2B
0954   08A3 0A 0B               ldd  a,[bc]             ; 08A3 0A 0B
0955   08A5 1A 1B               ldd  a,[de]             ; 08A5 1A 1B
0956   08A7 7E 2B               ldd  a,[hl]             ; 08A7 7E 2B
0957   08A9 DD7E7FDD2B          ldd  a,[ix+127]         ; 08A9 DD 7E 7F DD 2B
0958   08AE FD7E7FFD2B          ldd  a,[iy+127]         ; 08AE FD 7E 7F FD 2B
0959   08B3 46 2B               ldd  b,(hl)             ; 08B3 46 2B
0960   08B5 DD467FDD2B          ldd  b,(ix+127)         ; 08B5 DD 46 7F DD 2B
0961   08BA FD467FFD2B          ldd  b,(iy+127)         ; 08BA FD 46 7F FD 2B
0962   08BF 46 2B               ldd  b,[hl]             ; 08BF 46 2B
0963   08C1 DD467FDD2B          ldd  b,[ix+127]         ; 08C1 DD 46 7F DD 2B
0964   08C6 FD467FFD2B          ldd  b,[iy+127]         ; 08C6 FD 46 7F FD 2B
0965   08CB 4E 2B               ldd  c,(hl)             ; 08CB 4E 2B
0966   08CD DD4E7FDD2B          ldd  c,(ix+127)         ; 08CD DD 4E 7F DD 2B
0967   08D2 FD4E7FFD2B          ldd  c,(iy+127)         ; 08D2 FD 4E 7F FD 2B
0968   08D7 4E 2B               ldd  c,[hl]             ; 08D7 4E 2B
0969   08D9 DD4E7FDD2B          ldd  c,[ix+127]         ; 08D9 DD 4E 7F DD 2B
0970   08DE FD4E7FFD2B          ldd  c,[iy+127]         ; 08DE FD 4E 7F FD 2B
0971   08E3 56 2B               ldd  d,(hl)             ; 08E3 56 2B
0972   08E5 DD567FDD2B          ldd  d,(ix+127)         ; 08E5 DD 56 7F DD 2B
0973   08EA FD567FFD2B          ldd  d,(iy+127)         ; 08EA FD 56 7F FD 2B
0974   08EF 56 2B               ldd  d,[hl]             ; 08EF 56 2B
0975   08F1 DD567FDD2B          ldd  d,[ix+127]         ; 08F1 DD 56 7F DD 2B
0976   08F6 FD567FFD2B          ldd  d,[iy+127]         ; 08F6 FD 56 7F FD 2B
0977   08FB 5E 2B               ldd  e,(hl)             ; 08FB 5E 2B
0978   08FD DD5E7FDD2B          ldd  e,(ix+127)         ; 08FD DD 5E 7F DD 2B
0979   0902 FD5E7FFD2B          ldd  e,(iy+127)         ; 0902 FD 5E 7F FD 2B
0980   0907 5E 2B               ldd  e,[hl]             ; 0907 5E 2B
0981   0909 DD5E7FDD2B          ldd  e,[ix+127]         ; 0909 DD 5E 7F DD 2B
0982   090E FD5E7FFD2B          ldd  e,[iy+127]         ; 090E FD 5E 7F FD 2B
0983   0913 66 2B               ldd  h,(hl)             ; 0913 66 2B
0984   0915 DD667FDD2B          ldd  h,(ix+127)         ; 0915 DD 66 7F DD 2B
0985   091A FD667FFD2B          ldd  h,(iy+127)         ; 091A FD 66 7F FD 2B
0986   091F 66 2B               ldd  h,[hl]             ; 091F 66 2B
0987   0921 DD667FDD2B          ldd  h,[ix+127]         ; 0921 DD 66 7F DD 2B
0988   0926 FD667FFD2B          ldd  h,[iy+127]         ; 0926 FD 66 7F FD 2B
0989   092B 6E 2B               ldd  l,(hl)             ; 092B 6E 2B
0990   092D DD6E7FDD2B          ldd  l,(ix+127)         ; 092D DD 6E 7F DD 2B
0991   0932 FD6E7FFD2B          ldd  l,(iy+127)         ; 0932 FD 6E 7F FD 2B
0992   0937 6E 2B               ldd  l,[hl]             ; 0937 6E 2B
0993   0939 DD6E7FDD2B          ldd  l,[ix+127]         ; 0939 DD 6E 7F DD 2B
0994   093E FD6E7FFD2B          ldd  l,[iy+127]         ; 093E FD 6E 7F FD 2B
0995   0943 ED B8               lddr                    ; 0943 ED B8
0996   0945 ED B8               LDDR                    ; 0945 ED B8
0997   0947 ED A0               ldi                     ; 0947 ED A0
0998   0949 ED A0               LDI                     ; 0949 ED A0
0999   094B 02 03               ldi  (bc),a             ; 094B 02 03
1000   094D 12 13               ldi  (de),a             ; 094D 12 13
1001   094F 36 FF 23            ldi  (hl),255           ; 094F 36 FF 23
1002   0952 77 23               ldi  (hl),a             ; 0952 77 23
1003   0954 70 23               ldi  (hl),b             ; 0954 70 23
1004   0956 71 23 70 23         ldi  (hl),bc            ; 0956 71 23 70 23
1005   095A 71 23               ldi  (hl),c             ; 095A 71 23
1006   095C 72 23               ldi  (hl),d             ; 095C 72 23
1007   095E 73 23 72 23         ldi  (hl),de            ; 095E 73 23 72 23
1008   0962 73 23               ldi  (hl),e             ; 0962 73 23
1009   0964 74 23               ldi  (hl),h             ; 0964 74 23
1010   0966 75 23               ldi  (hl),l             ; 0966 75 23
1011   0968                     ldi  (ix+127),255       ; 0968 DD 36 7F FF DD 23
1011   0968 DD367FFFDD23
1012   096E DD777FDD23          ldi  (ix+127),a         ; 096E DD 77 7F DD 23
1013   0973 DD707FDD23          ldi  (ix+127),b         ; 0973 DD 70 7F DD 23
1014   0978                     ldi  (ix+126),bc        ; 0978 DD 71 7E DD 23 DD 70 7E DD 23
1014   0978 DD717EDD23DD707EDD23
1015   0982 DD717FDD23          ldi  (ix+127),c         ; 0982 DD 71 7F DD 23
1016   0987 DD727FDD23          ldi  (ix+127),d         ; 0987 DD 72 7F DD 23
1017   098C                     ldi  (ix+126),de        ; 098C DD 73 7E DD 23 DD 72 7E DD 23
1017   098C DD737EDD23DD727EDD23
1018   0996 DD737FDD23          ldi  (ix+127),e         ; 0996 DD 73 7F DD 23
1019   099B DD747FDD23          ldi  (ix+127),h         ; 099B DD 74 7F DD 23
1020   09A0                     ldi  (ix+126),hl        ; 09A0 DD 75 7E DD 23 DD 74 7E DD 23
1020   09A0 DD757EDD23DD747EDD23
1021   09AA DD757FDD23          ldi  (ix+127),l         ; 09AA DD 75 7F DD 23
1022   09AF                     ldi  (iy+127),255       ; 09AF FD 36 7F FF FD 23
1022   09AF FD367FFFFD23
1023   09B5 FD777FFD23          ldi  (iy+127),a         ; 09B5 FD 77 7F FD 23
1024   09BA FD707FFD23          ldi  (iy+127),b         ; 09BA FD 70 7F FD 23
1025   09BF                     ldi  (iy+126),bc        ; 09BF FD 71 7E FD 23 FD 70 7E FD 23
1025   09BF FD717EFD23FD707EFD23
1026   09C9 FD717FFD23          ldi  (iy+127),c         ; 09C9 FD 71 7F FD 23
1027   09CE FD727FFD23          ldi  (iy+127),d         ; 09CE FD 72 7F FD 23
1028   09D3                     ldi  (iy+126),de        ; 09D3 FD 73 7E FD 23 FD 72 7E FD 23
1028   09D3 FD737EFD23FD727EFD23
1029   09DD FD737FFD23          ldi  (iy+127),e         ; 09DD FD 73 7F FD 23
1030   09E2 FD747FFD23          ldi  (iy+127),h         ; 09E2 FD 74 7F FD 23
1031   09E7                     ldi  (iy+126),hl        ; 09E7 FD 75 7E FD 23 FD 74 7E FD 23
1031   09E7 FD757EFD23FD747EFD23
1032   09F1 FD757FFD23          ldi  (iy+127),l         ; 09F1 FD 75 7F FD 23
1033   09F6 02 03               ldi  [bc],a             ; 09F6 02 03
1034   09F8 12 13               ldi  [de],a             ; 09F8 12 13
1035   09FA 36 FF 23            ldi  [hl],255           ; 09FA 36 FF 23
1036   09FD 77 23               ldi  [hl],a             ; 09FD 77 23
1037   09FF 70 23               ldi  [hl],b             ; 09FF 70 23
1038   0A01 71 23 70 23         ldi  [hl],bc            ; 0A01 71 23 70 23
1039   0A05 71 23               ldi  [hl],c             ; 0A05 71 23
1040   0A07 72 23               ldi  [hl],d             ; 0A07 72 23
1041   0A09 73 23 72 23         ldi  [hl],de            ; 0A09 73 23 72 23
1042   0A0D 73 23               ldi  [hl],e             ; 0A0D 73 23
1043   0A0F 74 23               ldi  [hl],h             ; 0A0F 74 23
1044   0A11 75 23               ldi  [hl],l             ; 0A11 75 23
1045   0A13                     ldi  [ix+127],255       ; 0A13 DD 36 7F FF DD 23
1045   0A13 DD367FFFDD23
1046   0A19 DD777FDD23          ldi  [ix+127],a         ; 0A19 DD 77 7F DD 23
1047   0A1E DD707FDD23          ldi  [ix+127],b         ; 0A1E DD 70 7F DD 23
1048   0A23                     ldi  [ix+126],bc        ; 0A23 DD 71 7E DD 23 DD 70 7E DD 23
1048   0A23 DD717EDD23DD707EDD23
1049   0A2D DD717FDD23          ldi  [ix+127],c         ; 0A2D DD 71 7F DD 23
1050   0A32 DD727FDD23          ldi  [ix+127],d         ; 0A32 DD 72 7F DD 23
1051   0A37                     ldi  [ix+126],de        ; 0A37 DD 73 7E DD 23 DD 72 7E DD 23
1051   0A37 DD737EDD23DD727EDD23
1052   0A41 DD737FDD23          ldi  [ix+127],e         ; 0A41 DD 73 7F DD 23
1053   0A46 DD747FDD23          ldi  [ix+127],h         ; 0A46 DD 74 7F DD 23
1054   0A4B                     ldi  [ix+126],hl        ; 0A4B DD 75 7E DD 23 DD 74 7E DD 23
1054   0A4B DD757EDD23DD747EDD23
1055   0A55 DD757FDD23          ldi  [ix+127],l         ; 0A55 DD 75 7F DD 23
1056   0A5A                     ldi  [iy+127],255       ; 0A5A FD 36 7F FF FD 23
1056   0A5A FD367FFFFD23
1057   0A60 FD777FFD23          ldi  [iy+127],a         ; 0A60 FD 77 7F FD 23
1058   0A65 FD707FFD23          ldi  [iy+127],b         ; 0A65 FD 70 7F FD 23
1059   0A6A                     ldi  [iy+126],bc        ; 0A6A FD 71 7E FD 23 FD 70 7E FD 23
1059   0A6A FD717EFD23FD707EFD23
1060   0A74 FD717FFD23          ldi  [iy+127],c         ; 0A74 FD 71 7F FD 23
1061   0A79 FD727FFD23          ldi  [iy+127],d         ; 0A79 FD 72 7F FD 23
1062   0A7E                     ldi  [iy+126],de        ; 0A7E FD 73 7E FD 23 FD 72 7E FD 23
1062   0A7E FD737EFD23FD727EFD23
1063   0A88 FD737FFD23          ldi  [iy+127],e         ; 0A88 FD 73 7F FD 23
1064   0A8D FD747FFD23          ldi  [iy+127],h         ; 0A8D FD 74 7F FD 23
1065   0A92                     ldi  [iy+126],hl        ; 0A92 FD 75 7E FD 23 FD 74 7E FD 23
1065   0A92 FD757EFD23FD747EFD23
1066   0A9C FD757FFD23          ldi  [iy+127],l         ; 0A9C FD 75 7F FD 23
1067   0AA1 0A 03               ldi  a,(bc)             ; 0AA1 0A 03
1068   0AA3 1A 13               ldi  a,(de)             ; 0AA3 1A 13
1069   0AA5 7E 23               ldi  a,(hl)             ; 0AA5 7E 23
1070   0AA7 DD7E7FDD23          ldi  a,(ix+127)         ; 0AA7 DD 7E 7F DD 23
1071   0AAC FD7E7FFD23          ldi  a,(iy+127)         ; 0AAC FD 7E 7F FD 23
1072   0AB1 0A 03               ldi  a,[bc]             ; 0AB1 0A 03
1073   0AB3 1A 13               ldi  a,[de]             ; 0AB3 1A 13
1074   0AB5 7E 23               ldi  a,[hl]             ; 0AB5 7E 23
1075   0AB7 DD7E7FDD23          ldi  a,[ix+127]         ; 0AB7 DD 7E 7F DD 23
1076   0ABC FD7E7FFD23          ldi  a,[iy+127]         ; 0ABC FD 7E 7F FD 23
1077   0AC1 46 23               ldi  b,(hl)             ; 0AC1 46 23
1078   0AC3 DD467FDD23          ldi  b,(ix+127)         ; 0AC3 DD 46 7F DD 23
1079   0AC8 FD467FFD23          ldi  b,(iy+127)         ; 0AC8 FD 46 7F FD 23
1080   0ACD 46 23               ldi  b,[hl]             ; 0ACD 46 23
1081   0ACF DD467FDD23          ldi  b,[ix+127]         ; 0ACF DD 46 7F DD 23
1082   0AD4 FD467FFD23          ldi  b,[iy+127]         ; 0AD4 FD 46 7F FD 23
1083   0AD9 4E 23 46 23         ldi  bc,(hl)            ; 0AD9 4E 23 46 23
1084   0ADD                     ldi  bc,(ix+126)        ; 0ADD DD 4E 7E DD 23 DD 46 7E DD 23
1084   0ADD DD4E7EDD23DD467EDD23
1085   0AE7                     ldi  bc,(iy+126)        ; 0AE7 FD 4E 7E FD 23 FD 46 7E FD 23
1085   0AE7 FD4E7EFD23FD467EFD23
1086   0AF1 4E 23 46 23         ldi  bc,[hl]            ; 0AF1 4E 23 46 23
1087   0AF5                     ldi  bc,[ix+126]        ; 0AF5 DD 4E 7E DD 23 DD 46 7E DD 23
1087   0AF5 DD4E7EDD23DD467EDD23
1088   0AFF                     ldi  bc,[iy+126]        ; 0AFF FD 4E 7E FD 23 FD 46 7E FD 23
1088   0AFF FD4E7EFD23FD467EFD23
1089   0B09 4E 23               ldi  c,(hl)             ; 0B09 4E 23
1090   0B0B DD4E7FDD23          ldi  c,(ix+127)         ; 0B0B DD 4E 7F DD 23
1091   0B10 FD4E7FFD23          ldi  c,(iy+127)         ; 0B10 FD 4E 7F FD 23
1092   0B15 4E 23               ldi  c,[hl]             ; 0B15 4E 23
1093   0B17 DD4E7FDD23          ldi  c,[ix+127]         ; 0B17 DD 4E 7F DD 23
1094   0B1C FD4E7FFD23          ldi  c,[iy+127]         ; 0B1C FD 4E 7F FD 23
1095   0B21 56 23               ldi  d,(hl)             ; 0B21 56 23
1096   0B23 DD567FDD23          ldi  d,(ix+127)         ; 0B23 DD 56 7F DD 23
1097   0B28 FD567FFD23          ldi  d,(iy+127)         ; 0B28 FD 56 7F FD 23
1098   0B2D 56 23               ldi  d,[hl]             ; 0B2D 56 23
1099   0B2F DD567FDD23          ldi  d,[ix+127]         ; 0B2F DD 56 7F DD 23
1100   0B34 FD567FFD23          ldi  d,[iy+127]         ; 0B34 FD 56 7F FD 23
1101   0B39 5E 23 56 23         ldi  de,(hl)            ; 0B39 5E 23 56 23
1102   0B3D                     ldi  de,(ix+126)        ; 0B3D DD 5E 7E DD 23 DD 56 7E DD 23
1102   0B3D DD5E7EDD23DD567EDD23
1103   0B47                     ldi  de,(iy+126)        ; 0B47 FD 5E 7E FD 23 FD 56 7E FD 23
1103   0B47 FD5E7EFD23FD567EFD23
1104   0B51 5E 23 56 23         ldi  de,[hl]            ; 0B51 5E 23 56 23
1105   0B55                     ldi  de,[ix+126]        ; 0B55 DD 5E 7E DD 23 DD 56 7E DD 23
1105   0B55 DD5E7EDD23DD567EDD23
1106   0B5F                     ldi  de,[iy+126]        ; 0B5F FD 5E 7E FD 23 FD 56 7E FD 23
1106   0B5F FD5E7EFD23FD567EFD23
1107   0B69 5E 23               ldi  e,(hl)             ; 0B69 5E 23
1108   0B6B DD5E7FDD23          ldi  e,(ix+127)         ; 0B6B DD 5E 7F DD 23
1109   0B70 FD5E7FFD23          ldi  e,(iy+127)         ; 0B70 FD 5E 7F FD 23
1110   0B75 5E 23               ldi  e,[hl]             ; 0B75 5E 23
1111   0B77 DD5E7FDD23          ldi  e,[ix+127]         ; 0B77 DD 5E 7F DD 23
1112   0B7C FD5E7FFD23          ldi  e,[iy+127]         ; 0B7C FD 5E 7F FD 23
1113   0B81 66 23               ldi  h,(hl)             ; 0B81 66 23
1114   0B83 DD667FDD23          ldi  h,(ix+127)         ; 0B83 DD 66 7F DD 23
1115   0B88 FD667FFD23          ldi  h,(iy+127)         ; 0B88 FD 66 7F FD 23
1116   0B8D 66 23               ldi  h,[hl]             ; 0B8D 66 23
1117   0B8F DD667FDD23          ldi  h,[ix+127]         ; 0B8F DD 66 7F DD 23
1118   0B94 FD667FFD23          ldi  h,[iy+127]         ; 0B94 FD 66 7F FD 23
1119   0B99                     ldi  hl,(ix+126)        ; 0B99 DD 6E 7E DD 23 DD 66 7E DD 23
1119   0B99 DD6E7EDD23DD667EDD23
1120   0BA3                     ldi  hl,(iy+126)        ; 0BA3 FD 6E 7E FD 23 FD 66 7E FD 23
1120   0BA3 FD6E7EFD23FD667EFD23
1121   0BAD                     ldi  hl,[ix+126]        ; 0BAD DD 6E 7E DD 23 DD 66 7E DD 23
1121   0BAD DD6E7EDD23DD667EDD23
1122   0BB7                     ldi  hl,[iy+126]        ; 0BB7 FD 6E 7E FD 23 FD 66 7E FD 23
1122   0BB7 FD6E7EFD23FD667EFD23
1123   0BC1 6E 23               ldi  l,(hl)             ; 0BC1 6E 23
1124   0BC3 DD6E7FDD23          ldi  l,(ix+127)         ; 0BC3 DD 6E 7F DD 23
1125   0BC8 FD6E7FFD23          ldi  l,(iy+127)         ; 0BC8 FD 6E 7F FD 23
1126   0BCD 6E 23               ldi  l,[hl]             ; 0BCD 6E 23
1127   0BCF DD6E7FDD23          ldi  l,[ix+127]         ; 0BCF DD 6E 7F DD 23
1128   0BD4 FD6E7FFD23          ldi  l,[iy+127]         ; 0BD4 FD 6E 7F FD 23
1129   0BD9 ED B0               ldir                    ; 0BD9 ED B0
1130   0BDB ED B0               LDIR                    ; 0BDB ED B0
1131   0BDD ED 44               neg                     ; 0BDD ED 44
1132   0BDF ED 44               NEG                     ; 0BDF ED 44
1133   0BE1 00                  nop                     ; 0BE1 00
1134   0BE2 00                  NOP                     ; 0BE2 00
1135   0BE3 B6                  or   (hl)               ; 0BE3 B6
1136   0BE4 B6                  OR   (HL)               ; 0BE4 B6
1137   0BE5 DD B6 7F            or   (ix+127)           ; 0BE5 DD B6 7F
1138   0BE8 FD B6 7F            or   (iy+127)           ; 0BE8 FD B6 7F
1139   0BEB F6 FF               or   255                ; 0BEB F6 FF
1140   0BED B6                  or   [hl]               ; 0BED B6
1141   0BEE DD B6 7F            or   [ix+127]           ; 0BEE DD B6 7F
1142   0BF1 FD B6 7F            or   [iy+127]           ; 0BF1 FD B6 7F
1143   0BF4 B7                  or   a                  ; 0BF4 B7
1144   0BF5 B0                  or   b                  ; 0BF5 B0
1145   0BF6 B1                  or   c                  ; 0BF6 B1
1146   0BF7 B2                  or   d                  ; 0BF7 B2
1147   0BF8 B3                  or   e                  ; 0BF8 B3
1148   0BF9 B4                  or   h                  ; 0BF9 B4
1149   0BFA DD B4               or   hx                 ; 0BFA DD B4
1150   0BFC FD B4               or   hy                 ; 0BFC FD B4
1151   0BFE DD B4               or   ixh                ; 0BFE DD B4
1152   0C00 DD B5               or   ixl                ; 0C00 DD B5
1153   0C02 FD B4               or   iyh                ; 0C02 FD B4
1154   0C04 FD B5               or   iyl                ; 0C04 FD B5
1155   0C06 B5                  or   l                  ; 0C06 B5
1156   0C07 DD B5               or   lx                 ; 0C07 DD B5
1157   0C09 FD B5               or   ly                 ; 0C09 FD B5
1158   0C0B DD B4               or   xh                 ; 0C0B DD B4
1159   0C0D DD B5               or   xl                 ; 0C0D DD B5
1160   0C0F FD B4               or   yh                 ; 0C0F FD B4
1161   0C11 FD B5               or   yl                 ; 0C11 FD B5
1162   0C13 ED BB               otdr                    ; 0C13 ED BB
1163   0C15 ED BB               OTDR                    ; 0C15 ED BB
1164   0C17 ED B3               otir                    ; 0C17 ED B3
1165   0C19 ED B3               OTIR                    ; 0C19 ED B3
1166   0C1B D3 FF               out  (255),a            ; 0C1B D3 FF
1167   0C1D D3 FF               OUT  (255),A            ; 0C1D D3 FF
1168   0C1F ED 71               out  (c),0              ; 0C1F ED 71
1169   0C21 ED 79               out  (c),a              ; 0C21 ED 79
1170   0C23 ED 41               out  (c),b              ; 0C23 ED 41
1171   0C25 ED 49               out  (c),c              ; 0C25 ED 49
1172   0C27 ED 51               out  (c),d              ; 0C27 ED 51
1173   0C29 ED 59               out  (c),e              ; 0C29 ED 59
1174   0C2B ED 61               out  (c),h              ; 0C2B ED 61
1175   0C2D ED 69               out  (c),l              ; 0C2D ED 69
1176   0C2F D3 FF               out  [255],a            ; 0C2F D3 FF
1177   0C31 ED 71               out  [c],0              ; 0C31 ED 71
1178   0C33 ED 79               out  [c],a              ; 0C33 ED 79
1179   0C35 ED 41               out  [c],b              ; 0C35 ED 41
1180   0C37 ED 49               out  [c],c              ; 0C37 ED 49
1181   0C39 ED 51               out  [c],d              ; 0C39 ED 51
1182   0C3B ED 59               out  [c],e              ; 0C3B ED 59
1183   0C3D ED 61               out  [c],h              ; 0C3D ED 61
1184   0C3F ED 69               out  [c],l              ; 0C3F ED 69
1185   0C41 ED AB               outd                    ; 0C41 ED AB
1186   0C43 ED AB               OUTD                    ; 0C43 ED AB
1187   0C45 ED A3               outi                    ; 0C45 ED A3
1188   0C47 ED A3               OUTI                    ; 0C47 ED A3
1189   0C49 F1                  pop  af                 ; 0C49 F1
1190   0C4A F1                  POP  AF                 ; 0C4A F1
1191   0C4B C1                  pop  bc                 ; 0C4B C1
1192   0C4C D1                  pop  de                 ; 0C4C D1
1193   0C4D E1                  pop  hl                 ; 0C4D E1
1194   0C4E DD E1               pop  ix                 ; 0C4E DD E1
1195   0C50 FD E1               pop  iy                 ; 0C50 FD E1
1196   0C52 F5                  push af                 ; 0C52 F5
1197   0C53 F5                  PUSH AF                 ; 0C53 F5
1198   0C54 C5                  push bc                 ; 0C54 C5
1199   0C55 D5                  push de                 ; 0C55 D5
1200   0C56 E5                  push hl                 ; 0C56 E5
1201   0C57 DD E5               push ix                 ; 0C57 DD E5
1202   0C59 FD E5               push iy                 ; 0C59 FD E5
1203   0C5B CB 86               res  0,(hl)             ; 0C5B CB 86
1204   0C5D CB 86               RES  0,(HL)             ; 0C5D CB 86
1205   0C5F DD CB 7F 86         res  0,(ix+127)         ; 0C5F DD CB 7F 86
1206   0C63 DD CB 7F 87         res  0,(ix+127),a       ; 0C63 DD CB 7F 87
1207   0C67 DD CB 7F 80         res  0,(ix+127),b       ; 0C67 DD CB 7F 80
1208   0C6B DD CB 7F 81         res  0,(ix+127),c       ; 0C6B DD CB 7F 81
1209   0C6F DD CB 7F 82         res  0,(ix+127),d       ; 0C6F DD CB 7F 82
1210   0C73 DD CB 7F 83         res  0,(ix+127),e       ; 0C73 DD CB 7F 83
1211   0C77 DD CB 7F 84         res  0,(ix+127),h       ; 0C77 DD CB 7F 84
1212   0C7B DD CB 7F 85         res  0,(ix+127),l       ; 0C7B DD CB 7F 85
1213   0C7F FD CB 7F 86         res  0,(iy+127)         ; 0C7F FD CB 7F 86
1214   0C83 FD CB 7F 87         res  0,(iy+127),a       ; 0C83 FD CB 7F 87
1215   0C87 FD CB 7F 80         res  0,(iy+127),b       ; 0C87 FD CB 7F 80
1216   0C8B FD CB 7F 81         res  0,(iy+127),c       ; 0C8B FD CB 7F 81
1217   0C8F FD CB 7F 82         res  0,(iy+127),d       ; 0C8F FD CB 7F 82
1218   0C93 FD CB 7F 83         res  0,(iy+127),e       ; 0C93 FD CB 7F 83
1219   0C97 FD CB 7F 84         res  0,(iy+127),h       ; 0C97 FD CB 7F 84
1220   0C9B FD CB 7F 85         res  0,(iy+127),l       ; 0C9B FD CB 7F 85
1221   0C9F CB 86               res  0,[hl]             ; 0C9F CB 86
1222   0CA1 DD CB 7F 86         res  0,[ix+127]         ; 0CA1 DD CB 7F 86
1223   0CA5 DD CB 7F 87         res  0,[ix+127],a       ; 0CA5 DD CB 7F 87
1224   0CA9 DD CB 7F 80         res  0,[ix+127],b       ; 0CA9 DD CB 7F 80
1225   0CAD DD CB 7F 81         res  0,[ix+127],c       ; 0CAD DD CB 7F 81
1226   0CB1 DD CB 7F 82         res  0,[ix+127],d       ; 0CB1 DD CB 7F 82
1227   0CB5 DD CB 7F 83         res  0,[ix+127],e       ; 0CB5 DD CB 7F 83
1228   0CB9 DD CB 7F 84         res  0,[ix+127],h       ; 0CB9 DD CB 7F 84
1229   0CBD DD CB 7F 85         res  0,[ix+127],l       ; 0CBD DD CB 7F 85
1230   0CC1 FD CB 7F 86         res  0,[iy+127]         ; 0CC1 FD CB 7F 86
1231   0CC5 FD CB 7F 87         res  0,[iy+127],a       ; 0CC5 FD CB 7F 87
1232   0CC9 FD CB 7F 80         res  0,[iy+127],b       ; 0CC9 FD CB 7F 80
1233   0CCD FD CB 7F 81         res  0,[iy+127],c       ; 0CCD FD CB 7F 81
1234   0CD1 FD CB 7F 82         res  0,[iy+127],d       ; 0CD1 FD CB 7F 82
1235   0CD5 FD CB 7F 83         res  0,[iy+127],e       ; 0CD5 FD CB 7F 83
1236   0CD9 FD CB 7F 84         res  0,[iy+127],h       ; 0CD9 FD CB 7F 84
1237   0CDD FD CB 7F 85         res  0,[iy+127],l       ; 0CDD FD CB 7F 85
1238   0CE1 CB 87               res  0,a                ; 0CE1 CB 87
1239   0CE3 CB 80               res  0,b                ; 0CE3 CB 80
1240   0CE5 CB 81               res  0,c                ; 0CE5 CB 81
1241   0CE7 CB 82               res  0,d                ; 0CE7 CB 82
1242   0CE9 CB 83               res  0,e                ; 0CE9 CB 83
1243   0CEB CB 84               res  0,h                ; 0CEB CB 84
1244   0CED CB 85               res  0,l                ; 0CED CB 85
1245   0CEF CB 8E               res  1,(hl)             ; 0CEF CB 8E
1246   0CF1 DD CB 7F 8E         res  1,(ix+127)         ; 0CF1 DD CB 7F 8E
1247   0CF5 DD CB 7F 8F         res  1,(ix+127),a       ; 0CF5 DD CB 7F 8F
1248   0CF9 DD CB 7F 88         res  1,(ix+127),b       ; 0CF9 DD CB 7F 88
1249   0CFD DD CB 7F 89         res  1,(ix+127),c       ; 0CFD DD CB 7F 89
1250   0D01 DD CB 7F 8A         res  1,(ix+127),d       ; 0D01 DD CB 7F 8A
1251   0D05 DD CB 7F 8B         res  1,(ix+127),e       ; 0D05 DD CB 7F 8B
1252   0D09 DD CB 7F 8C         res  1,(ix+127),h       ; 0D09 DD CB 7F 8C
1253   0D0D DD CB 7F 8D         res  1,(ix+127),l       ; 0D0D DD CB 7F 8D
1254   0D11 FD CB 7F 8E         res  1,(iy+127)         ; 0D11 FD CB 7F 8E
1255   0D15 FD CB 7F 8F         res  1,(iy+127),a       ; 0D15 FD CB 7F 8F
1256   0D19 FD CB 7F 88         res  1,(iy+127),b       ; 0D19 FD CB 7F 88
1257   0D1D FD CB 7F 89         res  1,(iy+127),c       ; 0D1D FD CB 7F 89
1258   0D21 FD CB 7F 8A         res  1,(iy+127),d       ; 0D21 FD CB 7F 8A
1259   0D25 FD CB 7F 8B         res  1,(iy+127),e       ; 0D25 FD CB 7F 8B
1260   0D29 FD CB 7F 8C         res  1,(iy+127),h       ; 0D29 FD CB 7F 8C
1261   0D2D FD CB 7F 8D         res  1,(iy+127),l       ; 0D2D FD CB 7F 8D
1262   0D31 CB 8E               res  1,[hl]             ; 0D31 CB 8E
1263   0D33 DD CB 7F 8E         res  1,[ix+127]         ; 0D33 DD CB 7F 8E
1264   0D37 DD CB 7F 8F         res  1,[ix+127],a       ; 0D37 DD CB 7F 8F
1265   0D3B DD CB 7F 88         res  1,[ix+127],b       ; 0D3B DD CB 7F 88
1266   0D3F DD CB 7F 89         res  1,[ix+127],c       ; 0D3F DD CB 7F 89
1267   0D43 DD CB 7F 8A         res  1,[ix+127],d       ; 0D43 DD CB 7F 8A
1268   0D47 DD CB 7F 8B         res  1,[ix+127],e       ; 0D47 DD CB 7F 8B
1269   0D4B DD CB 7F 8C         res  1,[ix+127],h       ; 0D4B DD CB 7F 8C
1270   0D4F DD CB 7F 8D         res  1,[ix+127],l       ; 0D4F DD CB 7F 8D
1271   0D53 FD CB 7F 8E         res  1,[iy+127]         ; 0D53 FD CB 7F 8E
1272   0D57 FD CB 7F 8F         res  1,[iy+127],a       ; 0D57 FD CB 7F 8F
1273   0D5B FD CB 7F 88         res  1,[iy+127],b       ; 0D5B FD CB 7F 88
1274   0D5F FD CB 7F 89         res  1,[iy+127],c       ; 0D5F FD CB 7F 89
1275   0D63 FD CB 7F 8A         res  1,[iy+127],d       ; 0D63 FD CB 7F 8A
1276   0D67 FD CB 7F 8B         res  1,[iy+127],e       ; 0D67 FD CB 7F 8B
1277   0D6B FD CB 7F 8C         res  1,[iy+127],h       ; 0D6B FD CB 7F 8C
1278   0D6F FD CB 7F 8D         res  1,[iy+127],l       ; 0D6F FD CB 7F 8D
1279   0D73 CB 8F               res  1,a                ; 0D73 CB 8F
1280   0D75 CB 88               res  1,b                ; 0D75 CB 88
1281   0D77 CB 89               res  1,c                ; 0D77 CB 89
1282   0D79 CB 8A               res  1,d                ; 0D79 CB 8A
1283   0D7B CB 8B               res  1,e                ; 0D7B CB 8B
1284   0D7D CB 8C               res  1,h                ; 0D7D CB 8C
1285   0D7F CB 8D               res  1,l                ; 0D7F CB 8D
1286   0D81 CB 96               res  2,(hl)             ; 0D81 CB 96
1287   0D83 DD CB 7F 96         res  2,(ix+127)         ; 0D83 DD CB 7F 96
1288   0D87 DD CB 7F 97         res  2,(ix+127),a       ; 0D87 DD CB 7F 97
1289   0D8B DD CB 7F 90         res  2,(ix+127),b       ; 0D8B DD CB 7F 90
1290   0D8F DD CB 7F 91         res  2,(ix+127),c       ; 0D8F DD CB 7F 91
1291   0D93 DD CB 7F 92         res  2,(ix+127),d       ; 0D93 DD CB 7F 92
1292   0D97 DD CB 7F 93         res  2,(ix+127),e       ; 0D97 DD CB 7F 93
1293   0D9B DD CB 7F 94         res  2,(ix+127),h       ; 0D9B DD CB 7F 94
1294   0D9F DD CB 7F 95         res  2,(ix+127),l       ; 0D9F DD CB 7F 95
1295   0DA3 FD CB 7F 96         res  2,(iy+127)         ; 0DA3 FD CB 7F 96
1296   0DA7 FD CB 7F 97         res  2,(iy+127),a       ; 0DA7 FD CB 7F 97
1297   0DAB FD CB 7F 90         res  2,(iy+127),b       ; 0DAB FD CB 7F 90
1298   0DAF FD CB 7F 91         res  2,(iy+127),c       ; 0DAF FD CB 7F 91
1299   0DB3 FD CB 7F 92         res  2,(iy+127),d       ; 0DB3 FD CB 7F 92
1300   0DB7 FD CB 7F 93         res  2,(iy+127),e       ; 0DB7 FD CB 7F 93
1301   0DBB FD CB 7F 94         res  2,(iy+127),h       ; 0DBB FD CB 7F 94
1302   0DBF FD CB 7F 95         res  2,(iy+127),l       ; 0DBF FD CB 7F 95
1303   0DC3 CB 96               res  2,[hl]             ; 0DC3 CB 96
1304   0DC5 DD CB 7F 96         res  2,[ix+127]         ; 0DC5 DD CB 7F 96
1305   0DC9 DD CB 7F 97         res  2,[ix+127],a       ; 0DC9 DD CB 7F 97
1306   0DCD DD CB 7F 90         res  2,[ix+127],b       ; 0DCD DD CB 7F 90
1307   0DD1 DD CB 7F 91         res  2,[ix+127],c       ; 0DD1 DD CB 7F 91
1308   0DD5 DD CB 7F 92         res  2,[ix+127],d       ; 0DD5 DD CB 7F 92
1309   0DD9 DD CB 7F 93         res  2,[ix+127],e       ; 0DD9 DD CB 7F 93
1310   0DDD DD CB 7F 94         res  2,[ix+127],h       ; 0DDD DD CB 7F 94
1311   0DE1 DD CB 7F 95         res  2,[ix+127],l       ; 0DE1 DD CB 7F 95
1312   0DE5 FD CB 7F 96         res  2,[iy+127]         ; 0DE5 FD CB 7F 96
1313   0DE9 FD CB 7F 97         res  2,[iy+127],a       ; 0DE9 FD CB 7F 97
1314   0DED FD CB 7F 90         res  2,[iy+127],b       ; 0DED FD CB 7F 90
1315   0DF1 FD CB 7F 91         res  2,[iy+127],c       ; 0DF1 FD CB 7F 91
1316   0DF5 FD CB 7F 92         res  2,[iy+127],d       ; 0DF5 FD CB 7F 92
1317   0DF9 FD CB 7F 93         res  2,[iy+127],e       ; 0DF9 FD CB 7F 93
1318   0DFD FD CB 7F 94         res  2,[iy+127],h       ; 0DFD FD CB 7F 94
1319   0E01 FD CB 7F 95         res  2,[iy+127],l       ; 0E01 FD CB 7F 95
1320   0E05 CB 97               res  2,a                ; 0E05 CB 97
1321   0E07 CB 90               res  2,b                ; 0E07 CB 90
1322   0E09 CB 91               res  2,c                ; 0E09 CB 91
1323   0E0B CB 92               res  2,d                ; 0E0B CB 92
1324   0E0D CB 93               res  2,e                ; 0E0D CB 93
1325   0E0F CB 94               res  2,h                ; 0E0F CB 94
1326   0E11 CB 95               res  2,l                ; 0E11 CB 95
1327   0E13 CB 9E               res  3,(hl)             ; 0E13 CB 9E
1328   0E15 DD CB 7F 9E         res  3,(ix+127)         ; 0E15 DD CB 7F 9E
1329   0E19 DD CB 7F 9F         res  3,(ix+127),a       ; 0E19 DD CB 7F 9F
1330   0E1D DD CB 7F 98         res  3,(ix+127),b       ; 0E1D DD CB 7F 98
1331   0E21 DD CB 7F 99         res  3,(ix+127),c       ; 0E21 DD CB 7F 99
1332   0E25 DD CB 7F 9A         res  3,(ix+127),d       ; 0E25 DD CB 7F 9A
1333   0E29 DD CB 7F 9B         res  3,(ix+127),e       ; 0E29 DD CB 7F 9B
1334   0E2D DD CB 7F 9C         res  3,(ix+127),h       ; 0E2D DD CB 7F 9C
1335   0E31 DD CB 7F 9D         res  3,(ix+127),l       ; 0E31 DD CB 7F 9D
1336   0E35 FD CB 7F 9E         res  3,(iy+127)         ; 0E35 FD CB 7F 9E
1337   0E39 FD CB 7F 9F         res  3,(iy+127),a       ; 0E39 FD CB 7F 9F
1338   0E3D FD CB 7F 98         res  3,(iy+127),b       ; 0E3D FD CB 7F 98
1339   0E41 FD CB 7F 99         res  3,(iy+127),c       ; 0E41 FD CB 7F 99
1340   0E45 FD CB 7F 9A         res  3,(iy+127),d       ; 0E45 FD CB 7F 9A
1341   0E49 FD CB 7F 9B         res  3,(iy+127),e       ; 0E49 FD CB 7F 9B
1342   0E4D FD CB 7F 9C         res  3,(iy+127),h       ; 0E4D FD CB 7F 9C
1343   0E51 FD CB 7F 9D         res  3,(iy+127),l       ; 0E51 FD CB 7F 9D
1344   0E55 CB 9E               res  3,[hl]             ; 0E55 CB 9E
1345   0E57 DD CB 7F 9E         res  3,[ix+127]         ; 0E57 DD CB 7F 9E
1346   0E5B DD CB 7F 9F         res  3,[ix+127],a       ; 0E5B DD CB 7F 9F
1347   0E5F DD CB 7F 98         res  3,[ix+127],b       ; 0E5F DD CB 7F 98
1348   0E63 DD CB 7F 99         res  3,[ix+127],c       ; 0E63 DD CB 7F 99
1349   0E67 DD CB 7F 9A         res  3,[ix+127],d       ; 0E67 DD CB 7F 9A
1350   0E6B DD CB 7F 9B         res  3,[ix+127],e       ; 0E6B DD CB 7F 9B
1351   0E6F DD CB 7F 9C         res  3,[ix+127],h       ; 0E6F DD CB 7F 9C
1352   0E73 DD CB 7F 9D         res  3,[ix+127],l       ; 0E73 DD CB 7F 9D
1353   0E77 FD CB 7F 9E         res  3,[iy+127]         ; 0E77 FD CB 7F 9E
1354   0E7B FD CB 7F 9F         res  3,[iy+127],a       ; 0E7B FD CB 7F 9F
1355   0E7F FD CB 7F 98         res  3,[iy+127],b       ; 0E7F FD CB 7F 98
1356   0E83 FD CB 7F 99         res  3,[iy+127],c       ; 0E83 FD CB 7F 99
1357   0E87 FD CB 7F 9A         res  3,[iy+127],d       ; 0E87 FD CB 7F 9A
1358   0E8B FD CB 7F 9B         res  3,[iy+127],e       ; 0E8B FD CB 7F 9B
1359   0E8F FD CB 7F 9C         res  3,[iy+127],h       ; 0E8F FD CB 7F 9C
1360   0E93 FD CB 7F 9D         res  3,[iy+127],l       ; 0E93 FD CB 7F 9D
1361   0E97 CB 9F               res  3,a                ; 0E97 CB 9F
1362   0E99 CB 98               res  3,b                ; 0E99 CB 98
1363   0E9B CB 99               res  3,c                ; 0E9B CB 99
1364   0E9D CB 9A               res  3,d                ; 0E9D CB 9A
1365   0E9F CB 9B               res  3,e                ; 0E9F CB 9B
1366   0EA1 CB 9C               res  3,h                ; 0EA1 CB 9C
1367   0EA3 CB 9D               res  3,l                ; 0EA3 CB 9D
1368   0EA5 CB A6               res  4,(hl)             ; 0EA5 CB A6
1369   0EA7 DD CB 7F A6         res  4,(ix+127)         ; 0EA7 DD CB 7F A6
1370   0EAB DD CB 7F A7         res  4,(ix+127),a       ; 0EAB DD CB 7F A7
1371   0EAF DD CB 7F A0         res  4,(ix+127),b       ; 0EAF DD CB 7F A0
1372   0EB3 DD CB 7F A1         res  4,(ix+127),c       ; 0EB3 DD CB 7F A1
1373   0EB7 DD CB 7F A2         res  4,(ix+127),d       ; 0EB7 DD CB 7F A2
1374   0EBB DD CB 7F A3         res  4,(ix+127),e       ; 0EBB DD CB 7F A3
1375   0EBF DD CB 7F A4         res  4,(ix+127),h       ; 0EBF DD CB 7F A4
1376   0EC3 DD CB 7F A5         res  4,(ix+127),l       ; 0EC3 DD CB 7F A5
1377   0EC7 FD CB 7F A6         res  4,(iy+127)         ; 0EC7 FD CB 7F A6
1378   0ECB FD CB 7F A7         res  4,(iy+127),a       ; 0ECB FD CB 7F A7
1379   0ECF FD CB 7F A0         res  4,(iy+127),b       ; 0ECF FD CB 7F A0
1380   0ED3 FD CB 7F A1         res  4,(iy+127),c       ; 0ED3 FD CB 7F A1
1381   0ED7 FD CB 7F A2         res  4,(iy+127),d       ; 0ED7 FD CB 7F A2
1382   0EDB FD CB 7F A3         res  4,(iy+127),e       ; 0EDB FD CB 7F A3
1383   0EDF FD CB 7F A4         res  4,(iy+127),h       ; 0EDF FD CB 7F A4
1384   0EE3 FD CB 7F A5         res  4,(iy+127),l       ; 0EE3 FD CB 7F A5
1385   0EE7 CB A6               res  4,[hl]             ; 0EE7 CB A6
1386   0EE9 DD CB 7F A6         res  4,[ix+127]         ; 0EE9 DD CB 7F A6
1387   0EED DD CB 7F A7         res  4,[ix+127],a       ; 0EED DD CB 7F A7
1388   0EF1 DD CB 7F A0         res  4,[ix+127],b       ; 0EF1 DD CB 7F A0
1389   0EF5 DD CB 7F A1         res  4,[ix+127],c       ; 0EF5 DD CB 7F A1
1390   0EF9 DD CB 7F A2         res  4,[ix+127],d       ; 0EF9 DD CB 7F A2
1391   0EFD DD CB 7F A3         res  4,[ix+127],e       ; 0EFD DD CB 7F A3
1392   0F01 DD CB 7F A4         res  4,[ix+127],h       ; 0F01 DD CB 7F A4
1393   0F05 DD CB 7F A5         res  4,[ix+127],l       ; 0F05 DD CB 7F A5
1394   0F09 FD CB 7F A6         res  4,[iy+127]         ; 0F09 FD CB 7F A6
1395   0F0D FD CB 7F A7         res  4,[iy+127],a       ; 0F0D FD CB 7F A7
1396   0F11 FD CB 7F A0         res  4,[iy+127],b       ; 0F11 FD CB 7F A0
1397   0F15 FD CB 7F A1         res  4,[iy+127],c       ; 0F15 FD CB 7F A1
1398   0F19 FD CB 7F A2         res  4,[iy+127],d       ; 0F19 FD CB 7F A2
1399   0F1D FD CB 7F A3         res  4,[iy+127],e       ; 0F1D FD CB 7F A3
1400   0F21 FD CB 7F A4         res  4,[iy+127],h       ; 0F21 FD CB 7F A4
1401   0F25 FD CB 7F A5         res  4,[iy+127],l       ; 0F25 FD CB 7F A5
1402   0F29 CB A7               res  4,a                ; 0F29 CB A7
1403   0F2B CB A0               res  4,b                ; 0F2B CB A0
1404   0F2D CB A1               res  4,c                ; 0F2D CB A1
1405   0F2F CB A2               res  4,d                ; 0F2F CB A2
1406   0F31 CB A3               res  4,e                ; 0F31 CB A3
1407   0F33 CB A4               res  4,h                ; 0F33 CB A4
1408   0F35 CB A5               res  4,l                ; 0F35 CB A5
1409   0F37 CB AE               res  5,(hl)             ; 0F37 CB AE
1410   0F39 DD CB 7F AE         res  5,(ix+127)         ; 0F39 DD CB 7F AE
1411   0F3D DD CB 7F AF         res  5,(ix+127),a       ; 0F3D DD CB 7F AF
1412   0F41 DD CB 7F A8         res  5,(ix+127),b       ; 0F41 DD CB 7F A8
1413   0F45 DD CB 7F A9         res  5,(ix+127),c       ; 0F45 DD CB 7F A9
1414   0F49 DD CB 7F AA         res  5,(ix+127),d       ; 0F49 DD CB 7F AA
1415   0F4D DD CB 7F AB         res  5,(ix+127),e       ; 0F4D DD CB 7F AB
1416   0F51 DD CB 7F AC         res  5,(ix+127),h       ; 0F51 DD CB 7F AC
1417   0F55 DD CB 7F AD         res  5,(ix+127),l       ; 0F55 DD CB 7F AD
1418   0F59 FD CB 7F AE         res  5,(iy+127)         ; 0F59 FD CB 7F AE
1419   0F5D FD CB 7F AF         res  5,(iy+127),a       ; 0F5D FD CB 7F AF
1420   0F61 FD CB 7F A8         res  5,(iy+127),b       ; 0F61 FD CB 7F A8
1421   0F65 FD CB 7F A9         res  5,(iy+127),c       ; 0F65 FD CB 7F A9
1422   0F69 FD CB 7F AA         res  5,(iy+127),d       ; 0F69 FD CB 7F AA
1423   0F6D FD CB 7F AB         res  5,(iy+127),e       ; 0F6D FD CB 7F AB
1424   0F71 FD CB 7F AC         res  5,(iy+127),h       ; 0F71 FD CB 7F AC
1425   0F75 FD CB 7F AD         res  5,(iy+127),l       ; 0F75 FD CB 7F AD
1426   0F79 CB AE               res  5,[hl]             ; 0F79 CB AE
1427   0F7B DD CB 7F AE         res  5,[ix+127]         ; 0F7B DD CB 7F AE
1428   0F7F DD CB 7F AF         res  5,[ix+127],a       ; 0F7F DD CB 7F AF
1429   0F83 DD CB 7F A8         res  5,[ix+127],b       ; 0F83 DD CB 7F A8
1430   0F87 DD CB 7F A9         res  5,[ix+127],c       ; 0F87 DD CB 7F A9
1431   0F8B DD CB 7F AA         res  5,[ix+127],d       ; 0F8B DD CB 7F AA
1432   0F8F DD CB 7F AB         res  5,[ix+127],e       ; 0F8F DD CB 7F AB
1433   0F93 DD CB 7F AC         res  5,[ix+127],h       ; 0F93 DD CB 7F AC
1434   0F97 DD CB 7F AD         res  5,[ix+127],l       ; 0F97 DD CB 7F AD
1435   0F9B FD CB 7F AE         res  5,[iy+127]         ; 0F9B FD CB 7F AE
1436   0F9F FD CB 7F AF         res  5,[iy+127],a       ; 0F9F FD CB 7F AF
1437   0FA3 FD CB 7F A8         res  5,[iy+127],b       ; 0FA3 FD CB 7F A8
1438   0FA7 FD CB 7F A9         res  5,[iy+127],c       ; 0FA7 FD CB 7F A9
1439   0FAB FD CB 7F AA         res  5,[iy+127],d       ; 0FAB FD CB 7F AA
1440   0FAF FD CB 7F AB         res  5,[iy+127],e       ; 0FAF FD CB 7F AB
1441   0FB3 FD CB 7F AC         res  5,[iy+127],h       ; 0FB3 FD CB 7F AC
1442   0FB7 FD CB 7F AD         res  5,[iy+127],l       ; 0FB7 FD CB 7F AD
1443   0FBB CB AF               res  5,a                ; 0FBB CB AF
1444   0FBD CB A8               res  5,b                ; 0FBD CB A8
1445   0FBF CB A9               res  5,c                ; 0FBF CB A9
1446   0FC1 CB AA               res  5,d                ; 0FC1 CB AA
1447   0FC3 CB AB               res  5,e                ; 0FC3 CB AB
1448   0FC5 CB AC               res  5,h                ; 0FC5 CB AC
1449   0FC7 CB AD               res  5,l                ; 0FC7 CB AD
1450   0FC9 CB B6               res  6,(hl)             ; 0FC9 CB B6
1451   0FCB DD CB 7F B6         res  6,(ix+127)         ; 0FCB DD CB 7F B6
1452   0FCF DD CB 7F B7         res  6,(ix+127),a       ; 0FCF DD CB 7F B7
1453   0FD3 DD CB 7F B0         res  6,(ix+127),b       ; 0FD3 DD CB 7F B0
1454   0FD7 DD CB 7F B1         res  6,(ix+127),c       ; 0FD7 DD CB 7F B1
1455   0FDB DD CB 7F B2         res  6,(ix+127),d       ; 0FDB DD CB 7F B2
1456   0FDF DD CB 7F B3         res  6,(ix+127),e       ; 0FDF DD CB 7F B3
1457   0FE3 DD CB 7F B4         res  6,(ix+127),h       ; 0FE3 DD CB 7F B4
1458   0FE7 DD CB 7F B5         res  6,(ix+127),l       ; 0FE7 DD CB 7F B5
1459   0FEB FD CB 7F B6         res  6,(iy+127)         ; 0FEB FD CB 7F B6
1460   0FEF FD CB 7F B7         res  6,(iy+127),a       ; 0FEF FD CB 7F B7
1461   0FF3 FD CB 7F B0         res  6,(iy+127),b       ; 0FF3 FD CB 7F B0
1462   0FF7 FD CB 7F B1         res  6,(iy+127),c       ; 0FF7 FD CB 7F B1
1463   0FFB FD CB 7F B2         res  6,(iy+127),d       ; 0FFB FD CB 7F B2
1464   0FFF FD CB 7F B3         res  6,(iy+127),e       ; 0FFF FD CB 7F B3
1465   1003 FD CB 7F B4         res  6,(iy+127),h       ; 1003 FD CB 7F B4
1466   1007 FD CB 7F B5         res  6,(iy+127),l       ; 1007 FD CB 7F B5
1467   100B CB B6               res  6,[hl]             ; 100B CB B6
1468   100D DD CB 7F B6         res  6,[ix+127]         ; 100D DD CB 7F B6
1469   1011 DD CB 7F B7         res  6,[ix+127],a       ; 1011 DD CB 7F B7
1470   1015 DD CB 7F B0         res  6,[ix+127],b       ; 1015 DD CB 7F B0
1471   1019 DD CB 7F B1         res  6,[ix+127],c       ; 1019 DD CB 7F B1
1472   101D DD CB 7F B2         res  6,[ix+127],d       ; 101D DD CB 7F B2
1473   1021 DD CB 7F B3         res  6,[ix+127],e       ; 1021 DD CB 7F B3
1474   1025 DD CB 7F B4         res  6,[ix+127],h       ; 1025 DD CB 7F B4
1475   1029 DD CB 7F B5         res  6,[ix+127],l       ; 1029 DD CB 7F B5
1476   102D FD CB 7F B6         res  6,[iy+127]         ; 102D FD CB 7F B6
1477   1031 FD CB 7F B7         res  6,[iy+127],a       ; 1031 FD CB 7F B7
1478   1035 FD CB 7F B0         res  6,[iy+127],b       ; 1035 FD CB 7F B0
1479   1039 FD CB 7F B1         res  6,[iy+127],c       ; 1039 FD CB 7F B1
1480   103D FD CB 7F B2         res  6,[iy+127],d       ; 103D FD CB 7F B2
1481   1041 FD CB 7F B3         res  6,[iy+127],e       ; 1041 FD CB 7F B3
1482   1045 FD CB 7F B4         res  6,[iy+127],h       ; 1045 FD CB 7F B4
1483   1049 FD CB 7F B5         res  6,[iy+127],l       ; 1049 FD CB 7F B5
1484   104D CB B7               res  6,a                ; 104D CB B7
1485   104F CB B0               res  6,b                ; 104F CB B0
1486   1051 CB B1               res  6,c                ; 1051 CB B1
1487   1053 CB B2               res  6,d                ; 1053 CB B2
1488   1055 CB B3               res  6,e                ; 1055 CB B3
1489   1057 CB B4               res  6,h                ; 1057 CB B4
1490   1059 CB B5               res  6,l                ; 1059 CB B5
1491   105B CB BE               res  7,(hl)             ; 105B CB BE
1492   105D DD CB 7F BE         res  7,(ix+127)         ; 105D DD CB 7F BE
1493   1061 DD CB 7F BF         res  7,(ix+127),a       ; 1061 DD CB 7F BF
1494   1065 DD CB 7F B8         res  7,(ix+127),b       ; 1065 DD CB 7F B8
1495   1069 DD CB 7F B9         res  7,(ix+127),c       ; 1069 DD CB 7F B9
1496   106D DD CB 7F BA         res  7,(ix+127),d       ; 106D DD CB 7F BA
1497   1071 DD CB 7F BB         res  7,(ix+127),e       ; 1071 DD CB 7F BB
1498   1075 DD CB 7F BC         res  7,(ix+127),h       ; 1075 DD CB 7F BC
1499   1079 DD CB 7F BD         res  7,(ix+127),l       ; 1079 DD CB 7F BD
1500   107D FD CB 7F BE         res  7,(iy+127)         ; 107D FD CB 7F BE
1501   1081 FD CB 7F BF         res  7,(iy+127),a       ; 1081 FD CB 7F BF
1502   1085 FD CB 7F B8         res  7,(iy+127),b       ; 1085 FD CB 7F B8
1503   1089 FD CB 7F B9         res  7,(iy+127),c       ; 1089 FD CB 7F B9
1504   108D FD CB 7F BA         res  7,(iy+127),d       ; 108D FD CB 7F BA
1505   1091 FD CB 7F BB         res  7,(iy+127),e       ; 1091 FD CB 7F BB
1506   1095 FD CB 7F BC         res  7,(iy+127),h       ; 1095 FD CB 7F BC
1507   1099 FD CB 7F BD         res  7,(iy+127),l       ; 1099 FD CB 7F BD
1508   109D CB BE               res  7,[hl]             ; 109D CB BE
1509   109F DD CB 7F BE         res  7,[ix+127]         ; 109F DD CB 7F BE
1510   10A3 DD CB 7F BF         res  7,[ix+127],a       ; 10A3 DD CB 7F BF
1511   10A7 DD CB 7F B8         res  7,[ix+127],b       ; 10A7 DD CB 7F B8
1512   10AB DD CB 7F B9         res  7,[ix+127],c       ; 10AB DD CB 7F B9
1513   10AF DD CB 7F BA         res  7,[ix+127],d       ; 10AF DD CB 7F BA
1514   10B3 DD CB 7F BB         res  7,[ix+127],e       ; 10B3 DD CB 7F BB
1515   10B7 DD CB 7F BC         res  7,[ix+127],h       ; 10B7 DD CB 7F BC
1516   10BB DD CB 7F BD         res  7,[ix+127],l       ; 10BB DD CB 7F BD
1517   10BF FD CB 7F BE         res  7,[iy+127]         ; 10BF FD CB 7F BE
1518   10C3 FD CB 7F BF         res  7,[iy+127],a       ; 10C3 FD CB 7F BF
1519   10C7 FD CB 7F B8         res  7,[iy+127],b       ; 10C7 FD CB 7F B8
1520   10CB FD CB 7F B9         res  7,[iy+127],c       ; 10CB FD CB 7F B9
1521   10CF FD CB 7F BA         res  7,[iy+127],d       ; 10CF FD CB 7F BA
1522   10D3 FD CB 7F BB         res  7,[iy+127],e       ; 10D3 FD CB 7F BB
1523   10D7 FD CB 7F BC         res  7,[iy+127],h       ; 10D7 FD CB 7F BC
1524   10DB FD CB 7F BD         res  7,[iy+127],l       ; 10DB FD CB 7F BD
1525   10DF CB BF               res  7,a                ; 10DF CB BF
1526   10E1 CB B8               res  7,b                ; 10E1 CB B8
1527   10E3 CB B9               res  7,c                ; 10E3 CB B9
1528   10E5 CB BA               res  7,d                ; 10E5 CB BA
1529   10E7 CB BB               res  7,e                ; 10E7 CB BB
1530   10E9 CB BC               res  7,h                ; 10E9 CB BC
1531   10EB CB BD               res  7,l                ; 10EB CB BD
1532   10ED C9                  ret                     ; 10ED C9
1533   10EE C9                  RET                     ; 10EE C9
1534   10EF D8                  ret  c                  ; 10EF D8
1535   10F0 F8                  ret  m                  ; 10F0 F8
1536   10F1 D0                  ret  nc                 ; 10F1 D0
1537   10F2 C0                  ret  nz                 ; 10F2 C0
1538   10F3 F0                  ret  p                  ; 10F3 F0
1539   10F4 E8                  ret  pe                 ; 10F4 E8
1540   10F5 E0                  ret  po                 ; 10F5 E0
1541   10F6 C8                  ret  z                  ; 10F6 C8
1542   10F7 ED 4D               reti                    ; 10F7 ED 4D
1543   10F9 ED 4D               RETI                    ; 10F9 ED 4D
1544   10FB ED 45               retn                    ; 10FB ED 45
1545   10FD ED 45               RETN                    ; 10FD ED 45
1546   10FF CB 16               rl   (hl)               ; 10FF CB 16
1547   1101 CB 16               RL   (HL)               ; 1101 CB 16
1548   1103 DD CB 7F 16         rl   (ix+127)           ; 1103 DD CB 7F 16
1549   1107 DD CB 7F 17         rl   (ix+127),a         ; 1107 DD CB 7F 17
1550   110B DD CB 7F 10         rl   (ix+127),b         ; 110B DD CB 7F 10
1551   110F DD CB 7F 11         rl   (ix+127),c         ; 110F DD CB 7F 11
1552   1113 DD CB 7F 12         rl   (ix+127),d         ; 1113 DD CB 7F 12
1553   1117 DD CB 7F 13         rl   (ix+127),e         ; 1117 DD CB 7F 13
1554   111B DD CB 7F 14         rl   (ix+127),h         ; 111B DD CB 7F 14
1555   111F DD CB 7F 15         rl   (ix+127),l         ; 111F DD CB 7F 15
1556   1123 FD CB 7F 16         rl   (iy+127)           ; 1123 FD CB 7F 16
1557   1127 FD CB 7F 17         rl   (iy+127),a         ; 1127 FD CB 7F 17
1558   112B FD CB 7F 10         rl   (iy+127),b         ; 112B FD CB 7F 10
1559   112F FD CB 7F 11         rl   (iy+127),c         ; 112F FD CB 7F 11
1560   1133 FD CB 7F 12         rl   (iy+127),d         ; 1133 FD CB 7F 12
1561   1137 FD CB 7F 13         rl   (iy+127),e         ; 1137 FD CB 7F 13
1562   113B FD CB 7F 14         rl   (iy+127),h         ; 113B FD CB 7F 14
1563   113F FD CB 7F 15         rl   (iy+127),l         ; 113F FD CB 7F 15
1564   1143 CB 16               rl   [hl]               ; 1143 CB 16
1565   1145 DD CB 7F 16         rl   [ix+127]           ; 1145 DD CB 7F 16
1566   1149 DD CB 7F 17         rl   [ix+127],a         ; 1149 DD CB 7F 17
1567   114D DD CB 7F 10         rl   [ix+127],b         ; 114D DD CB 7F 10
1568   1151 DD CB 7F 11         rl   [ix+127],c         ; 1151 DD CB 7F 11
1569   1155 DD CB 7F 12         rl   [ix+127],d         ; 1155 DD CB 7F 12
1570   1159 DD CB 7F 13         rl   [ix+127],e         ; 1159 DD CB 7F 13
1571   115D DD CB 7F 14         rl   [ix+127],h         ; 115D DD CB 7F 14
1572   1161 DD CB 7F 15         rl   [ix+127],l         ; 1161 DD CB 7F 15
1573   1165 FD CB 7F 16         rl   [iy+127]           ; 1165 FD CB 7F 16
1574   1169 FD CB 7F 17         rl   [iy+127],a         ; 1169 FD CB 7F 17
1575   116D FD CB 7F 10         rl   [iy+127],b         ; 116D FD CB 7F 10
1576   1171 FD CB 7F 11         rl   [iy+127],c         ; 1171 FD CB 7F 11
1577   1175 FD CB 7F 12         rl   [iy+127],d         ; 1175 FD CB 7F 12
1578   1179 FD CB 7F 13         rl   [iy+127],e         ; 1179 FD CB 7F 13
1579   117D FD CB 7F 14         rl   [iy+127],h         ; 117D FD CB 7F 14
1580   1181 FD CB 7F 15         rl   [iy+127],l         ; 1181 FD CB 7F 15
1581   1185 CB 17               rl   a                  ; 1185 CB 17
1582   1187 CB 10               rl   b                  ; 1187 CB 10
1583   1189 CB 11 CB 10         rl   bc                 ; 1189 CB 11 CB 10
1584   118D CB 11               rl   c                  ; 118D CB 11
1585   118F CB 12               rl   d                  ; 118F CB 12
1586   1191 CB 13 CB 12         rl   de                 ; 1191 CB 13 CB 12
1587   1195 CB 13               rl   e                  ; 1195 CB 13
1588   1197 CB 14               rl   h                  ; 1197 CB 14
1589   1199 CB 15 CB 14         rl   hl                 ; 1199 CB 15 CB 14
1590   119D CB 15               rl   l                  ; 119D CB 15
1591   119F 17                  rla                     ; 119F 17
1592   11A0 17                  RLA                     ; 11A0 17
1593   11A1 CB 06               rlc  (hl)               ; 11A1 CB 06
1594   11A3 CB 06               RLC  (HL)               ; 11A3 CB 06
1595   11A5 DD CB 7F 06         rlc  (ix+127)           ; 11A5 DD CB 7F 06
1596   11A9 DD CB 7F 07         rlc  (ix+127),a         ; 11A9 DD CB 7F 07
1597   11AD DD CB 7F 00         rlc  (ix+127),b         ; 11AD DD CB 7F 00
1598   11B1 DD CB 7F 01         rlc  (ix+127),c         ; 11B1 DD CB 7F 01
1599   11B5 DD CB 7F 02         rlc  (ix+127),d         ; 11B5 DD CB 7F 02
1600   11B9 DD CB 7F 03         rlc  (ix+127),e         ; 11B9 DD CB 7F 03
1601   11BD DD CB 7F 04         rlc  (ix+127),h         ; 11BD DD CB 7F 04
1602   11C1 DD CB 7F 05         rlc  (ix+127),l         ; 11C1 DD CB 7F 05
1603   11C5 FD CB 7F 06         rlc  (iy+127)           ; 11C5 FD CB 7F 06
1604   11C9 FD CB 7F 07         rlc  (iy+127),a         ; 11C9 FD CB 7F 07
1605   11CD FD CB 7F 00         rlc  (iy+127),b         ; 11CD FD CB 7F 00
1606   11D1 FD CB 7F 01         rlc  (iy+127),c         ; 11D1 FD CB 7F 01
1607   11D5 FD CB 7F 02         rlc  (iy+127),d         ; 11D5 FD CB 7F 02
1608   11D9 FD CB 7F 03         rlc  (iy+127),e         ; 11D9 FD CB 7F 03
1609   11DD FD CB 7F 04         rlc  (iy+127),h         ; 11DD FD CB 7F 04
1610   11E1 FD CB 7F 05         rlc  (iy+127),l         ; 11E1 FD CB 7F 05
1611   11E5 CB 06               rlc  [hl]               ; 11E5 CB 06
1612   11E7 DD CB 7F 06         rlc  [ix+127]           ; 11E7 DD CB 7F 06
1613   11EB DD CB 7F 07         rlc  [ix+127],a         ; 11EB DD CB 7F 07
1614   11EF DD CB 7F 00         rlc  [ix+127],b         ; 11EF DD CB 7F 00
1615   11F3 DD CB 7F 01         rlc  [ix+127],c         ; 11F3 DD CB 7F 01
1616   11F7 DD CB 7F 02         rlc  [ix+127],d         ; 11F7 DD CB 7F 02
1617   11FB DD CB 7F 03         rlc  [ix+127],e         ; 11FB DD CB 7F 03
1618   11FF DD CB 7F 04         rlc  [ix+127],h         ; 11FF DD CB 7F 04
1619   1203 DD CB 7F 05         rlc  [ix+127],l         ; 1203 DD CB 7F 05
1620   1207 FD CB 7F 06         rlc  [iy+127]           ; 1207 FD CB 7F 06
1621   120B FD CB 7F 07         rlc  [iy+127],a         ; 120B FD CB 7F 07
1622   120F FD CB 7F 00         rlc  [iy+127],b         ; 120F FD CB 7F 00
1623   1213 FD CB 7F 01         rlc  [iy+127],c         ; 1213 FD CB 7F 01
1624   1217 FD CB 7F 02         rlc  [iy+127],d         ; 1217 FD CB 7F 02
1625   121B FD CB 7F 03         rlc  [iy+127],e         ; 121B FD CB 7F 03
1626   121F FD CB 7F 04         rlc  [iy+127],h         ; 121F FD CB 7F 04
1627   1223 FD CB 7F 05         rlc  [iy+127],l         ; 1223 FD CB 7F 05
1628   1227 CB 07               rlc  a                  ; 1227 CB 07
1629   1229 CB 00               rlc  b                  ; 1229 CB 00
1630   122B CB 01               rlc  c                  ; 122B CB 01
1631   122D CB 02               rlc  d                  ; 122D CB 02
1632   122F CB 03               rlc  e                  ; 122F CB 03
1633   1231 CB 04               rlc  h                  ; 1231 CB 04
1634   1233 CB 05               rlc  l                  ; 1233 CB 05
1635   1235 07                  rlca                    ; 1235 07
1636   1236 07                  RLCA                    ; 1236 07
1637   1237 ED 6F               rld                     ; 1237 ED 6F
1638   1239 ED 6F               RLD                     ; 1239 ED 6F
1639   123B CB 1E               rr   (hl)               ; 123B CB 1E
1640   123D CB 1E               RR   (HL)               ; 123D CB 1E
1641   123F DD CB 7F 1E         rr   (ix+127)           ; 123F DD CB 7F 1E
1642   1243 DD CB 7F 1F         rr   (ix+127),a         ; 1243 DD CB 7F 1F
1643   1247 DD CB 7F 18         rr   (ix+127),b         ; 1247 DD CB 7F 18
1644   124B DD CB 7F 19         rr   (ix+127),c         ; 124B DD CB 7F 19
1645   124F DD CB 7F 1A         rr   (ix+127),d         ; 124F DD CB 7F 1A
1646   1253 DD CB 7F 1B         rr   (ix+127),e         ; 1253 DD CB 7F 1B
1647   1257 DD CB 7F 1C         rr   (ix+127),h         ; 1257 DD CB 7F 1C
1648   125B DD CB 7F 1D         rr   (ix+127),l         ; 125B DD CB 7F 1D
1649   125F FD CB 7F 1E         rr   (iy+127)           ; 125F FD CB 7F 1E
1650   1263 FD CB 7F 1F         rr   (iy+127),a         ; 1263 FD CB 7F 1F
1651   1267 FD CB 7F 18         rr   (iy+127),b         ; 1267 FD CB 7F 18
1652   126B FD CB 7F 19         rr   (iy+127),c         ; 126B FD CB 7F 19
1653   126F FD CB 7F 1A         rr   (iy+127),d         ; 126F FD CB 7F 1A
1654   1273 FD CB 7F 1B         rr   (iy+127),e         ; 1273 FD CB 7F 1B
1655   1277 FD CB 7F 1C         rr   (iy+127),h         ; 1277 FD CB 7F 1C
1656   127B FD CB 7F 1D         rr   (iy+127),l         ; 127B FD CB 7F 1D
1657   127F CB 1E               rr   [hl]               ; 127F CB 1E
1658   1281 DD CB 7F 1E         rr   [ix+127]           ; 1281 DD CB 7F 1E
1659   1285 DD CB 7F 1F         rr   [ix+127],a         ; 1285 DD CB 7F 1F
1660   1289 DD CB 7F 18         rr   [ix+127],b         ; 1289 DD CB 7F 18
1661   128D DD CB 7F 19         rr   [ix+127],c         ; 128D DD CB 7F 19
1662   1291 DD CB 7F 1A         rr   [ix+127],d         ; 1291 DD CB 7F 1A
1663   1295 DD CB 7F 1B         rr   [ix+127],e         ; 1295 DD CB 7F 1B
1664   1299 DD CB 7F 1C         rr   [ix+127],h         ; 1299 DD CB 7F 1C
1665   129D DD CB 7F 1D         rr   [ix+127],l         ; 129D DD CB 7F 1D
1666   12A1 FD CB 7F 1E         rr   [iy+127]           ; 12A1 FD CB 7F 1E
1667   12A5 FD CB 7F 1F         rr   [iy+127],a         ; 12A5 FD CB 7F 1F
1668   12A9 FD CB 7F 18         rr   [iy+127],b         ; 12A9 FD CB 7F 18
1669   12AD FD CB 7F 19         rr   [iy+127],c         ; 12AD FD CB 7F 19
1670   12B1 FD CB 7F 1A         rr   [iy+127],d         ; 12B1 FD CB 7F 1A
1671   12B5 FD CB 7F 1B         rr   [iy+127],e         ; 12B5 FD CB 7F 1B
1672   12B9 FD CB 7F 1C         rr   [iy+127],h         ; 12B9 FD CB 7F 1C
1673   12BD FD CB 7F 1D         rr   [iy+127],l         ; 12BD FD CB 7F 1D
1674   12C1 CB 1F               rr   a                  ; 12C1 CB 1F
1675   12C3 CB 18               rr   b                  ; 12C3 CB 18
1676   12C5 CB 18 CB 19         rr   bc                 ; 12C5 CB 18 CB 19
1677   12C9 CB 19               rr   c                  ; 12C9 CB 19
1678   12CB CB 1A               rr   d                  ; 12CB CB 1A
1679   12CD CB 1A CB 1B         rr   de                 ; 12CD CB 1A CB 1B
1680   12D1 CB 1B               rr   e                  ; 12D1 CB 1B
1681   12D3 CB 1C               rr   h                  ; 12D3 CB 1C
1682   12D5 CB 1C CB 1D         rr   hl                 ; 12D5 CB 1C CB 1D
1683   12D9 CB 1D               rr   l                  ; 12D9 CB 1D
1684   12DB 1F                  rra                     ; 12DB 1F
1685   12DC 1F                  RRA                     ; 12DC 1F
1686   12DD CB 0E               rrc  (hl)               ; 12DD CB 0E
1687   12DF CB 0E               RRC  (HL)               ; 12DF CB 0E
1688   12E1 DD CB 7F 0E         rrc  (ix+127)           ; 12E1 DD CB 7F 0E
1689   12E5 DD CB 7F 0F         rrc  (ix+127),a         ; 12E5 DD CB 7F 0F
1690   12E9 DD CB 7F 08         rrc  (ix+127),b         ; 12E9 DD CB 7F 08
1691   12ED DD CB 7F 09         rrc  (ix+127),c         ; 12ED DD CB 7F 09
1692   12F1 DD CB 7F 0A         rrc  (ix+127),d         ; 12F1 DD CB 7F 0A
1693   12F5 DD CB 7F 0B         rrc  (ix+127),e         ; 12F5 DD CB 7F 0B
1694   12F9 DD CB 7F 0C         rrc  (ix+127),h         ; 12F9 DD CB 7F 0C
1695   12FD DD CB 7F 0D         rrc  (ix+127),l         ; 12FD DD CB 7F 0D
1696   1301 FD CB 7F 0E         rrc  (iy+127)           ; 1301 FD CB 7F 0E
1697   1305 FD CB 7F 0F         rrc  (iy+127),a         ; 1305 FD CB 7F 0F
1698   1309 FD CB 7F 08         rrc  (iy+127),b         ; 1309 FD CB 7F 08
1699   130D FD CB 7F 09         rrc  (iy+127),c         ; 130D FD CB 7F 09
1700   1311 FD CB 7F 0A         rrc  (iy+127),d         ; 1311 FD CB 7F 0A
1701   1315 FD CB 7F 0B         rrc  (iy+127),e         ; 1315 FD CB 7F 0B
1702   1319 FD CB 7F 0C         rrc  (iy+127),h         ; 1319 FD CB 7F 0C
1703   131D FD CB 7F 0D         rrc  (iy+127),l         ; 131D FD CB 7F 0D
1704   1321 CB 0E               rrc  [hl]               ; 1321 CB 0E
1705   1323 DD CB 7F 0E         rrc  [ix+127]           ; 1323 DD CB 7F 0E
1706   1327 DD CB 7F 0F         rrc  [ix+127],a         ; 1327 DD CB 7F 0F
1707   132B DD CB 7F 08         rrc  [ix+127],b         ; 132B DD CB 7F 08
1708   132F DD CB 7F 09         rrc  [ix+127],c         ; 132F DD CB 7F 09
1709   1333 DD CB 7F 0A         rrc  [ix+127],d         ; 1333 DD CB 7F 0A
1710   1337 DD CB 7F 0B         rrc  [ix+127],e         ; 1337 DD CB 7F 0B
1711   133B DD CB 7F 0C         rrc  [ix+127],h         ; 133B DD CB 7F 0C
1712   133F DD CB 7F 0D         rrc  [ix+127],l         ; 133F DD CB 7F 0D
1713   1343 FD CB 7F 0E         rrc  [iy+127]           ; 1343 FD CB 7F 0E
1714   1347 FD CB 7F 0F         rrc  [iy+127],a         ; 1347 FD CB 7F 0F
1715   134B FD CB 7F 08         rrc  [iy+127],b         ; 134B FD CB 7F 08
1716   134F FD CB 7F 09         rrc  [iy+127],c         ; 134F FD CB 7F 09
1717   1353 FD CB 7F 0A         rrc  [iy+127],d         ; 1353 FD CB 7F 0A
1718   1357 FD CB 7F 0B         rrc  [iy+127],e         ; 1357 FD CB 7F 0B
1719   135B FD CB 7F 0C         rrc  [iy+127],h         ; 135B FD CB 7F 0C
1720   135F FD CB 7F 0D         rrc  [iy+127],l         ; 135F FD CB 7F 0D
1721   1363 CB 0F               rrc  a                  ; 1363 CB 0F
1722   1365 CB 08               rrc  b                  ; 1365 CB 08
1723   1367 CB 09               rrc  c                  ; 1367 CB 09
1724   1369 CB 0A               rrc  d                  ; 1369 CB 0A
1725   136B CB 0B               rrc  e                  ; 136B CB 0B
1726   136D CB 0C               rrc  h                  ; 136D CB 0C
1727   136F CB 0D               rrc  l                  ; 136F CB 0D
1728   1371 0F                  rrca                    ; 1371 0F
1729   1372 0F                  RRCA                    ; 1372 0F
1730   1373 ED 67               rrd                     ; 1373 ED 67
1731   1375 ED 67               RRD                     ; 1375 ED 67
1732   1377 C7                  rst  0                  ; 1377 C7
1733   1378 C7                  RST  0                  ; 1378 C7
1734   1379 CF                  rst  8*1                ; 1379 CF
1735   137A D7                  rst  16                 ; 137A D7
1736   137B D7                  rst  8*2                ; 137B D7
1737   137C DF                  rst  24                 ; 137C DF
1738   137D DF                  rst  8*3                ; 137D DF
1739   137E E7                  rst  32                 ; 137E E7
1740   137F E7                  rst  8*4                ; 137F E7
1741   1380 EF                  rst  40                 ; 1380 EF
1742   1381 F7                  rst  48                 ; 1381 F7
1743   1382 EF                  rst  8*5                ; 1382 EF
1744   1383 FF                  rst  56                 ; 1383 FF
1745   1384 F7                  rst  8*6                ; 1384 F7
1746   1385 FF                  rst  8*7                ; 1385 FF
1747   1386 CF                  rst  8                  ; 1386 CF
1748   1387 9E                  sbc  a,(hl)             ; 1387 9E
1749   1388 9E                  SBC  A,(HL)             ; 1388 9E
1750   1389 DD 9E 7F            sbc  a,(ix+127)         ; 1389 DD 9E 7F
1751   138C FD 9E 7F            sbc  a,(iy+127)         ; 138C FD 9E 7F
1752   138F DE FF               sbc  a,255              ; 138F DE FF
1753   1391 9E                  sbc  a,[hl]             ; 1391 9E
1754   1392 DD 9E 7F            sbc  a,[ix+127]         ; 1392 DD 9E 7F
1755   1395 FD 9E 7F            sbc  a,[iy+127]         ; 1395 FD 9E 7F
1756   1398 9F                  sbc  a,a                ; 1398 9F
1757   1399 98                  sbc  a,b                ; 1399 98
1758   139A 99                  sbc  a,c                ; 139A 99
1759   139B 9A                  sbc  a,d                ; 139B 9A
1760   139C 9B                  sbc  a,e                ; 139C 9B
1761   139D 9C                  sbc  a,h                ; 139D 9C
1762   139E DD 9C               sbc  a,hx               ; 139E DD 9C
1763   13A0 FD 9C               sbc  a,hy               ; 13A0 FD 9C
1764   13A2 DD 9C               sbc  a,ixh              ; 13A2 DD 9C
1765   13A4 DD 9D               sbc  a,ixl              ; 13A4 DD 9D
1766   13A6 FD 9C               sbc  a,iyh              ; 13A6 FD 9C
1767   13A8 FD 9D               sbc  a,iyl              ; 13A8 FD 9D
1768   13AA 9D                  sbc  a,l                ; 13AA 9D
1769   13AB DD 9D               sbc  a,lx               ; 13AB DD 9D
1770   13AD FD 9D               sbc  a,ly               ; 13AD FD 9D
1771   13AF DD 9C               sbc  a,xh               ; 13AF DD 9C
1772   13B1 DD 9D               sbc  a,xl               ; 13B1 DD 9D
1773   13B3 FD 9C               sbc  a,yh               ; 13B3 FD 9C
1774   13B5 FD 9D               sbc  a,yl               ; 13B5 FD 9D
1775   13B7 ED 42               sbc  hl,bc              ; 13B7 ED 42
1776   13B9 ED 52               sbc  hl,de              ; 13B9 ED 52
1777   13BB ED 62               sbc  hl,hl              ; 13BB ED 62
1778   13BD ED 72               sbc  hl,sp              ; 13BD ED 72
1779   13BF 37                  scf                     ; 13BF 37
1780   13C0 37                  SCF                     ; 13C0 37
1781   13C1 CB C6               set  0,(hl)             ; 13C1 CB C6
1782   13C3 CB C6               SET  0,(HL)             ; 13C3 CB C6
1783   13C5 DD CB 7F C6         set  0,(ix+127)         ; 13C5 DD CB 7F C6
1784   13C9 DD CB 7F C7         set  0,(ix+127),a       ; 13C9 DD CB 7F C7
1785   13CD DD CB 7F C0         set  0,(ix+127),b       ; 13CD DD CB 7F C0
1786   13D1 DD CB 7F C1         set  0,(ix+127),c       ; 13D1 DD CB 7F C1
1787   13D5 DD CB 7F C2         set  0,(ix+127),d       ; 13D5 DD CB 7F C2
1788   13D9 DD CB 7F C3         set  0,(ix+127),e       ; 13D9 DD CB 7F C3
1789   13DD DD CB 7F C4         set  0,(ix+127),h       ; 13DD DD CB 7F C4
1790   13E1 DD CB 7F C5         set  0,(ix+127),l       ; 13E1 DD CB 7F C5
1791   13E5 FD CB 7F C6         set  0,(iy+127)         ; 13E5 FD CB 7F C6
1792   13E9 FD CB 7F C7         set  0,(iy+127),a       ; 13E9 FD CB 7F C7
1793   13ED FD CB 7F C0         set  0,(iy+127),b       ; 13ED FD CB 7F C0
1794   13F1 FD CB 7F C1         set  0,(iy+127),c       ; 13F1 FD CB 7F C1
1795   13F5 FD CB 7F C2         set  0,(iy+127),d       ; 13F5 FD CB 7F C2
1796   13F9 FD CB 7F C3         set  0,(iy+127),e       ; 13F9 FD CB 7F C3
1797   13FD FD CB 7F C4         set  0,(iy+127),h       ; 13FD FD CB 7F C4
1798   1401 FD CB 7F C5         set  0,(iy+127),l       ; 1401 FD CB 7F C5
1799   1405 CB C6               set  0,[hl]             ; 1405 CB C6
1800   1407 DD CB 7F C6         set  0,[ix+127]         ; 1407 DD CB 7F C6
1801   140B DD CB 7F C7         set  0,[ix+127],a       ; 140B DD CB 7F C7
1802   140F DD CB 7F C0         set  0,[ix+127],b       ; 140F DD CB 7F C0
1803   1413 DD CB 7F C1         set  0,[ix+127],c       ; 1413 DD CB 7F C1
1804   1417 DD CB 7F C2         set  0,[ix+127],d       ; 1417 DD CB 7F C2
1805   141B DD CB 7F C3         set  0,[ix+127],e       ; 141B DD CB 7F C3
1806   141F DD CB 7F C4         set  0,[ix+127],h       ; 141F DD CB 7F C4
1807   1423 DD CB 7F C5         set  0,[ix+127],l       ; 1423 DD CB 7F C5
1808   1427 FD CB 7F C6         set  0,[iy+127]         ; 1427 FD CB 7F C6
1809   142B FD CB 7F C7         set  0,[iy+127],a       ; 142B FD CB 7F C7
1810   142F FD CB 7F C0         set  0,[iy+127],b       ; 142F FD CB 7F C0
1811   1433 FD CB 7F C1         set  0,[iy+127],c       ; 1433 FD CB 7F C1
1812   1437 FD CB 7F C2         set  0,[iy+127],d       ; 1437 FD CB 7F C2
1813   143B FD CB 7F C3         set  0,[iy+127],e       ; 143B FD CB 7F C3
1814   143F FD CB 7F C4         set  0,[iy+127],h       ; 143F FD CB 7F C4
1815   1443 FD CB 7F C5         set  0,[iy+127],l       ; 1443 FD CB 7F C5
1816   1447 CB C7               set  0,a                ; 1447 CB C7
1817   1449 CB C0               set  0,b                ; 1449 CB C0
1818   144B CB C1               set  0,c                ; 144B CB C1
1819   144D CB C2               set  0,d                ; 144D CB C2
1820   144F CB C3               set  0,e                ; 144F CB C3
1821   1451 CB C4               set  0,h                ; 1451 CB C4
1822   1453 CB C5               set  0,l                ; 1453 CB C5
1823   1455 CB CE               set  1,(hl)             ; 1455 CB CE
1824   1457 DD CB 7F CE         set  1,(ix+127)         ; 1457 DD CB 7F CE
1825   145B DD CB 7F CF         set  1,(ix+127),a       ; 145B DD CB 7F CF
1826   145F DD CB 7F C8         set  1,(ix+127),b       ; 145F DD CB 7F C8
1827   1463 DD CB 7F C9         set  1,(ix+127),c       ; 1463 DD CB 7F C9
1828   1467 DD CB 7F CA         set  1,(ix+127),d       ; 1467 DD CB 7F CA
1829   146B DD CB 7F CB         set  1,(ix+127),e       ; 146B DD CB 7F CB
1830   146F DD CB 7F CC         set  1,(ix+127),h       ; 146F DD CB 7F CC
1831   1473 DD CB 7F CD         set  1,(ix+127),l       ; 1473 DD CB 7F CD
1832   1477 FD CB 7F CE         set  1,(iy+127)         ; 1477 FD CB 7F CE
1833   147B FD CB 7F CF         set  1,(iy+127),a       ; 147B FD CB 7F CF
1834   147F FD CB 7F C8         set  1,(iy+127),b       ; 147F FD CB 7F C8
1835   1483 FD CB 7F C9         set  1,(iy+127),c       ; 1483 FD CB 7F C9
1836   1487 FD CB 7F CA         set  1,(iy+127),d       ; 1487 FD CB 7F CA
1837   148B FD CB 7F CB         set  1,(iy+127),e       ; 148B FD CB 7F CB
1838   148F FD CB 7F CC         set  1,(iy+127),h       ; 148F FD CB 7F CC
1839   1493 FD CB 7F CD         set  1,(iy+127),l       ; 1493 FD CB 7F CD
1840   1497 CB CE               set  1,[hl]             ; 1497 CB CE
1841   1499 DD CB 7F CE         set  1,[ix+127]         ; 1499 DD CB 7F CE
1842   149D DD CB 7F CF         set  1,[ix+127],a       ; 149D DD CB 7F CF
1843   14A1 DD CB 7F C8         set  1,[ix+127],b       ; 14A1 DD CB 7F C8
1844   14A5 DD CB 7F C9         set  1,[ix+127],c       ; 14A5 DD CB 7F C9
1845   14A9 DD CB 7F CA         set  1,[ix+127],d       ; 14A9 DD CB 7F CA
1846   14AD DD CB 7F CB         set  1,[ix+127],e       ; 14AD DD CB 7F CB
1847   14B1 DD CB 7F CC         set  1,[ix+127],h       ; 14B1 DD CB 7F CC
1848   14B5 DD CB 7F CD         set  1,[ix+127],l       ; 14B5 DD CB 7F CD
1849   14B9 FD CB 7F CE         set  1,[iy+127]         ; 14B9 FD CB 7F CE
1850   14BD FD CB 7F CF         set  1,[iy+127],a       ; 14BD FD CB 7F CF
1851   14C1 FD CB 7F C8         set  1,[iy+127],b       ; 14C1 FD CB 7F C8
1852   14C5 FD CB 7F C9         set  1,[iy+127],c       ; 14C5 FD CB 7F C9
1853   14C9 FD CB 7F CA         set  1,[iy+127],d       ; 14C9 FD CB 7F CA
1854   14CD FD CB 7F CB         set  1,[iy+127],e       ; 14CD FD CB 7F CB
1855   14D1 FD CB 7F CC         set  1,[iy+127],h       ; 14D1 FD CB 7F CC
1856   14D5 FD CB 7F CD         set  1,[iy+127],l       ; 14D5 FD CB 7F CD
1857   14D9 CB CF               set  1,a                ; 14D9 CB CF
1858   14DB CB C8               set  1,b                ; 14DB CB C8
1859   14DD CB C9               set  1,c                ; 14DD CB C9
1860   14DF CB CA               set  1,d                ; 14DF CB CA
1861   14E1 CB CB               set  1,e                ; 14E1 CB CB
1862   14E3 CB CC               set  1,h                ; 14E3 CB CC
1863   14E5 CB CD               set  1,l                ; 14E5 CB CD
1864   14E7 CB D6               set  2,(hl)             ; 14E7 CB D6
1865   14E9 DD CB 7F D6         set  2,(ix+127)         ; 14E9 DD CB 7F D6
1866   14ED DD CB 7F D7         set  2,(ix+127),a       ; 14ED DD CB 7F D7
1867   14F1 DD CB 7F D0         set  2,(ix+127),b       ; 14F1 DD CB 7F D0
1868   14F5 DD CB 7F D1         set  2,(ix+127),c       ; 14F5 DD CB 7F D1
1869   14F9 DD CB 7F D2         set  2,(ix+127),d       ; 14F9 DD CB 7F D2
1870   14FD DD CB 7F D3         set  2,(ix+127),e       ; 14FD DD CB 7F D3
1871   1501 DD CB 7F D4         set  2,(ix+127),h       ; 1501 DD CB 7F D4
1872   1505 DD CB 7F D5         set  2,(ix+127),l       ; 1505 DD CB 7F D5
1873   1509 FD CB 7F D6         set  2,(iy+127)         ; 1509 FD CB 7F D6
1874   150D FD CB 7F D7         set  2,(iy+127),a       ; 150D FD CB 7F D7
1875   1511 FD CB 7F D0         set  2,(iy+127),b       ; 1511 FD CB 7F D0
1876   1515 FD CB 7F D1         set  2,(iy+127),c       ; 1515 FD CB 7F D1
1877   1519 FD CB 7F D2         set  2,(iy+127),d       ; 1519 FD CB 7F D2
1878   151D FD CB 7F D3         set  2,(iy+127),e       ; 151D FD CB 7F D3
1879   1521 FD CB 7F D4         set  2,(iy+127),h       ; 1521 FD CB 7F D4
1880   1525 FD CB 7F D5         set  2,(iy+127),l       ; 1525 FD CB 7F D5
1881   1529 CB D6               set  2,[hl]             ; 1529 CB D6
1882   152B DD CB 7F D6         set  2,[ix+127]         ; 152B DD CB 7F D6
1883   152F DD CB 7F D7         set  2,[ix+127],a       ; 152F DD CB 7F D7
1884   1533 DD CB 7F D0         set  2,[ix+127],b       ; 1533 DD CB 7F D0
1885   1537 DD CB 7F D1         set  2,[ix+127],c       ; 1537 DD CB 7F D1
1886   153B DD CB 7F D2         set  2,[ix+127],d       ; 153B DD CB 7F D2
1887   153F DD CB 7F D3         set  2,[ix+127],e       ; 153F DD CB 7F D3
1888   1543 DD CB 7F D4         set  2,[ix+127],h       ; 1543 DD CB 7F D4
1889   1547 DD CB 7F D5         set  2,[ix+127],l       ; 1547 DD CB 7F D5
1890   154B FD CB 7F D6         set  2,[iy+127]         ; 154B FD CB 7F D6
1891   154F FD CB 7F D7         set  2,[iy+127],a       ; 154F FD CB 7F D7
1892   1553 FD CB 7F D0         set  2,[iy+127],b       ; 1553 FD CB 7F D0
1893   1557 FD CB 7F D1         set  2,[iy+127],c       ; 1557 FD CB 7F D1
1894   155B FD CB 7F D2         set  2,[iy+127],d       ; 155B FD CB 7F D2
1895   155F FD CB 7F D3         set  2,[iy+127],e       ; 155F FD CB 7F D3
1896   1563 FD CB 7F D4         set  2,[iy+127],h       ; 1563 FD CB 7F D4
1897   1567 FD CB 7F D5         set  2,[iy+127],l       ; 1567 FD CB 7F D5
1898   156B CB D7               set  2,a                ; 156B CB D7
1899   156D CB D0               set  2,b                ; 156D CB D0
1900   156F CB D1               set  2,c                ; 156F CB D1
1901   1571 CB D2               set  2,d                ; 1571 CB D2
1902   1573 CB D3               set  2,e                ; 1573 CB D3
1903   1575 CB D4               set  2,h                ; 1575 CB D4
1904   1577 CB D5               set  2,l                ; 1577 CB D5
1905   1579 CB DE               set  3,(hl)             ; 1579 CB DE
1906   157B DD CB 7F DE         set  3,(ix+127)         ; 157B DD CB 7F DE
1907   157F DD CB 7F DF         set  3,(ix+127),a       ; 157F DD CB 7F DF
1908   1583 DD CB 7F D8         set  3,(ix+127),b       ; 1583 DD CB 7F D8
1909   1587 DD CB 7F D9         set  3,(ix+127),c       ; 1587 DD CB 7F D9
1910   158B DD CB 7F DA         set  3,(ix+127),d       ; 158B DD CB 7F DA
1911   158F DD CB 7F DB         set  3,(ix+127),e       ; 158F DD CB 7F DB
1912   1593 DD CB 7F DC         set  3,(ix+127),h       ; 1593 DD CB 7F DC
1913   1597 DD CB 7F DD         set  3,(ix+127),l       ; 1597 DD CB 7F DD
1914   159B FD CB 7F DE         set  3,(iy+127)         ; 159B FD CB 7F DE
1915   159F FD CB 7F DF         set  3,(iy+127),a       ; 159F FD CB 7F DF
1916   15A3 FD CB 7F D8         set  3,(iy+127),b       ; 15A3 FD CB 7F D8
1917   15A7 FD CB 7F D9         set  3,(iy+127),c       ; 15A7 FD CB 7F D9
1918   15AB FD CB 7F DA         set  3,(iy+127),d       ; 15AB FD CB 7F DA
1919   15AF FD CB 7F DB         set  3,(iy+127),e       ; 15AF FD CB 7F DB
1920   15B3 FD CB 7F DC         set  3,(iy+127),h       ; 15B3 FD CB 7F DC
1921   15B7 FD CB 7F DD         set  3,(iy+127),l       ; 15B7 FD CB 7F DD
1922   15BB CB DE               set  3,[hl]             ; 15BB CB DE
1923   15BD DD CB 7F DE         set  3,[ix+127]         ; 15BD DD CB 7F DE
1924   15C1 DD CB 7F DF         set  3,[ix+127],a       ; 15C1 DD CB 7F DF
1925   15C5 DD CB 7F D8         set  3,[ix+127],b       ; 15C5 DD CB 7F D8
1926   15C9 DD CB 7F D9         set  3,[ix+127],c       ; 15C9 DD CB 7F D9
1927   15CD DD CB 7F DA         set  3,[ix+127],d       ; 15CD DD CB 7F DA
1928   15D1 DD CB 7F DB         set  3,[ix+127],e       ; 15D1 DD CB 7F DB
1929   15D5 DD CB 7F DC         set  3,[ix+127],h       ; 15D5 DD CB 7F DC
1930   15D9 DD CB 7F DD         set  3,[ix+127],l       ; 15D9 DD CB 7F DD
1931   15DD FD CB 7F DE         set  3,[iy+127]         ; 15DD FD CB 7F DE
1932   15E1 FD CB 7F DF         set  3,[iy+127],a       ; 15E1 FD CB 7F DF
1933   15E5 FD CB 7F D8         set  3,[iy+127],b       ; 15E5 FD CB 7F D8
1934   15E9 FD CB 7F D9         set  3,[iy+127],c       ; 15E9 FD CB 7F D9
1935   15ED FD CB 7F DA         set  3,[iy+127],d       ; 15ED FD CB 7F DA
1936   15F1 FD CB 7F DB         set  3,[iy+127],e       ; 15F1 FD CB 7F DB
1937   15F5 FD CB 7F DC         set  3,[iy+127],h       ; 15F5 FD CB 7F DC
1938   15F9 FD CB 7F DD         set  3,[iy+127],l       ; 15F9 FD CB 7F DD
1939   15FD CB DF               set  3,a                ; 15FD CB DF
1940   15FF CB D8               set  3,b                ; 15FF CB D8
1941   1601 CB D9               set  3,c                ; 1601 CB D9
1942   1603 CB DA               set  3,d                ; 1603 CB DA
1943   1605 CB DB               set  3,e                ; 1605 CB DB
1944   1607 CB DC               set  3,h                ; 1607 CB DC
1945   1609 CB DD               set  3,l                ; 1609 CB DD
1946   160B CB E6               set  4,(hl)             ; 160B CB E6
1947   160D DD CB 7F E6         set  4,(ix+127)         ; 160D DD CB 7F E6
1948   1611 DD CB 7F E7         set  4,(ix+127),a       ; 1611 DD CB 7F E7
1949   1615 DD CB 7F E0         set  4,(ix+127),b       ; 1615 DD CB 7F E0
1950   1619 DD CB 7F E1         set  4,(ix+127),c       ; 1619 DD CB 7F E1
1951   161D DD CB 7F E2         set  4,(ix+127),d       ; 161D DD CB 7F E2
1952   1621 DD CB 7F E3         set  4,(ix+127),e       ; 1621 DD CB 7F E3
1953   1625 DD CB 7F E4         set  4,(ix+127),h       ; 1625 DD CB 7F E4
1954   1629 DD CB 7F E5         set  4,(ix+127),l       ; 1629 DD CB 7F E5
1955   162D FD CB 7F E6         set  4,(iy+127)         ; 162D FD CB 7F E6
1956   1631 FD CB 7F E7         set  4,(iy+127),a       ; 1631 FD CB 7F E7
1957   1635 FD CB 7F E0         set  4,(iy+127),b       ; 1635 FD CB 7F E0
1958   1639 FD CB 7F E1         set  4,(iy+127),c       ; 1639 FD CB 7F E1
1959   163D FD CB 7F E2         set  4,(iy+127),d       ; 163D FD CB 7F E2
1960   1641 FD CB 7F E3         set  4,(iy+127),e       ; 1641 FD CB 7F E3
1961   1645 FD CB 7F E4         set  4,(iy+127),h       ; 1645 FD CB 7F E4
1962   1649 FD CB 7F E5         set  4,(iy+127),l       ; 1649 FD CB 7F E5
1963   164D CB E6               set  4,[hl]             ; 164D CB E6
1964   164F DD CB 7F E6         set  4,[ix+127]         ; 164F DD CB 7F E6
1965   1653 DD CB 7F E7         set  4,[ix+127],a       ; 1653 DD CB 7F E7
1966   1657 DD CB 7F E0         set  4,[ix+127],b       ; 1657 DD CB 7F E0
1967   165B DD CB 7F E1         set  4,[ix+127],c       ; 165B DD CB 7F E1
1968   165F DD CB 7F E2         set  4,[ix+127],d       ; 165F DD CB 7F E2
1969   1663 DD CB 7F E3         set  4,[ix+127],e       ; 1663 DD CB 7F E3
1970   1667 DD CB 7F E4         set  4,[ix+127],h       ; 1667 DD CB 7F E4
1971   166B DD CB 7F E5         set  4,[ix+127],l       ; 166B DD CB 7F E5
1972   166F FD CB 7F E6         set  4,[iy+127]         ; 166F FD CB 7F E6
1973   1673 FD CB 7F E7         set  4,[iy+127],a       ; 1673 FD CB 7F E7
1974   1677 FD CB 7F E0         set  4,[iy+127],b       ; 1677 FD CB 7F E0
1975   167B FD CB 7F E1         set  4,[iy+127],c       ; 167B FD CB 7F E1
1976   167F FD CB 7F E2         set  4,[iy+127],d       ; 167F FD CB 7F E2
1977   1683 FD CB 7F E3         set  4,[iy+127],e       ; 1683 FD CB 7F E3
1978   1687 FD CB 7F E4         set  4,[iy+127],h       ; 1687 FD CB 7F E4
1979   168B FD CB 7F E5         set  4,[iy+127],l       ; 168B FD CB 7F E5
1980   168F CB E7               set  4,a                ; 168F CB E7
1981   1691 CB E0               set  4,b                ; 1691 CB E0
1982   1693 CB E1               set  4,c                ; 1693 CB E1
1983   1695 CB E2               set  4,d                ; 1695 CB E2
1984   1697 CB E3               set  4,e                ; 1697 CB E3
1985   1699 CB E4               set  4,h                ; 1699 CB E4
1986   169B CB E5               set  4,l                ; 169B CB E5
1987   169D CB EE               set  5,(hl)             ; 169D CB EE
1988   169F DD CB 7F EE         set  5,(ix+127)         ; 169F DD CB 7F EE
1989   16A3 DD CB 7F EF         set  5,(ix+127),a       ; 16A3 DD CB 7F EF
1990   16A7 DD CB 7F E8         set  5,(ix+127),b       ; 16A7 DD CB 7F E8
1991   16AB DD CB 7F E9         set  5,(ix+127),c       ; 16AB DD CB 7F E9
1992   16AF DD CB 7F EA         set  5,(ix+127),d       ; 16AF DD CB 7F EA
1993   16B3 DD CB 7F EB         set  5,(ix+127),e       ; 16B3 DD CB 7F EB
1994   16B7 DD CB 7F EC         set  5,(ix+127),h       ; 16B7 DD CB 7F EC
1995   16BB DD CB 7F ED         set  5,(ix+127),l       ; 16BB DD CB 7F ED
1996   16BF FD CB 7F EE         set  5,(iy+127)         ; 16BF FD CB 7F EE
1997   16C3 FD CB 7F EF         set  5,(iy+127),a       ; 16C3 FD CB 7F EF
1998   16C7 FD CB 7F E8         set  5,(iy+127),b       ; 16C7 FD CB 7F E8
1999   16CB FD CB 7F E9         set  5,(iy+127),c       ; 16CB FD CB 7F E9
2000   16CF FD CB 7F EA         set  5,(iy+127),d       ; 16CF FD CB 7F EA
2001   16D3 FD CB 7F EB         set  5,(iy+127),e       ; 16D3 FD CB 7F EB
2002   16D7 FD CB 7F EC         set  5,(iy+127),h       ; 16D7 FD CB 7F EC
2003   16DB FD CB 7F ED         set  5,(iy+127),l       ; 16DB FD CB 7F ED
2004   16DF CB EE               set  5,[hl]             ; 16DF CB EE
2005   16E1 DD CB 7F EE         set  5,[ix+127]         ; 16E1 DD CB 7F EE
2006   16E5 DD CB 7F EF         set  5,[ix+127],a       ; 16E5 DD CB 7F EF
2007   16E9 DD CB 7F E8         set  5,[ix+127],b       ; 16E9 DD CB 7F E8
2008   16ED DD CB 7F E9         set  5,[ix+127],c       ; 16ED DD CB 7F E9
2009   16F1 DD CB 7F EA         set  5,[ix+127],d       ; 16F1 DD CB 7F EA
2010   16F5 DD CB 7F EB         set  5,[ix+127],e       ; 16F5 DD CB 7F EB
2011   16F9 DD CB 7F EC         set  5,[ix+127],h       ; 16F9 DD CB 7F EC
2012   16FD DD CB 7F ED         set  5,[ix+127],l       ; 16FD DD CB 7F ED
2013   1701 FD CB 7F EE         set  5,[iy+127]         ; 1701 FD CB 7F EE
2014   1705 FD CB 7F EF         set  5,[iy+127],a       ; 1705 FD CB 7F EF
2015   1709 FD CB 7F E8         set  5,[iy+127],b       ; 1709 FD CB 7F E8
2016   170D FD CB 7F E9         set  5,[iy+127],c       ; 170D FD CB 7F E9
2017   1711 FD CB 7F EA         set  5,[iy+127],d       ; 1711 FD CB 7F EA
2018   1715 FD CB 7F EB         set  5,[iy+127],e       ; 1715 FD CB 7F EB
2019   1719 FD CB 7F EC         set  5,[iy+127],h       ; 1719 FD CB 7F EC
2020   171D FD CB 7F ED         set  5,[iy+127],l       ; 171D FD CB 7F ED
2021   1721 CB EF               set  5,a                ; 1721 CB EF
2022   1723 CB E8               set  5,b                ; 1723 CB E8
2023   1725 CB E9               set  5,c                ; 1725 CB E9
2024   1727 CB EA               set  5,d                ; 1727 CB EA
2025   1729 CB EB               set  5,e                ; 1729 CB EB
2026   172B CB EC               set  5,h                ; 172B CB EC
2027   172D CB ED               set  5,l                ; 172D CB ED
2028   172F CB F6               set  6,(hl)             ; 172F CB F6
2029   1731 DD CB 7F F6         set  6,(ix+127)         ; 1731 DD CB 7F F6
2030   1735 DD CB 7F F7         set  6,(ix+127),a       ; 1735 DD CB 7F F7
2031   1739 DD CB 7F F0         set  6,(ix+127),b       ; 1739 DD CB 7F F0
2032   173D DD CB 7F F1         set  6,(ix+127),c       ; 173D DD CB 7F F1
2033   1741 DD CB 7F F2         set  6,(ix+127),d       ; 1741 DD CB 7F F2
2034   1745 DD CB 7F F3         set  6,(ix+127),e       ; 1745 DD CB 7F F3
2035   1749 DD CB 7F F4         set  6,(ix+127),h       ; 1749 DD CB 7F F4
2036   174D DD CB 7F F5         set  6,(ix+127),l       ; 174D DD CB 7F F5
2037   1751 FD CB 7F F6         set  6,(iy+127)         ; 1751 FD CB 7F F6
2038   1755 FD CB 7F F7         set  6,(iy+127),a       ; 1755 FD CB 7F F7
2039   1759 FD CB 7F F0         set  6,(iy+127),b       ; 1759 FD CB 7F F0
2040   175D FD CB 7F F1         set  6,(iy+127),c       ; 175D FD CB 7F F1
2041   1761 FD CB 7F F2         set  6,(iy+127),d       ; 1761 FD CB 7F F2
2042   1765 FD CB 7F F3         set  6,(iy+127),e       ; 1765 FD CB 7F F3
2043   1769 FD CB 7F F4         set  6,(iy+127),h       ; 1769 FD CB 7F F4
2044   176D FD CB 7F F5         set  6,(iy+127),l       ; 176D FD CB 7F F5
2045   1771 CB F6               set  6,[hl]             ; 1771 CB F6
2046   1773 DD CB 7F F6         set  6,[ix+127]         ; 1773 DD CB 7F F6
2047   1777 DD CB 7F F7         set  6,[ix+127],a       ; 1777 DD CB 7F F7
2048   177B DD CB 7F F0         set  6,[ix+127],b       ; 177B DD CB 7F F0
2049   177F DD CB 7F F1         set  6,[ix+127],c       ; 177F DD CB 7F F1
2050   1783 DD CB 7F F2         set  6,[ix+127],d       ; 1783 DD CB 7F F2
2051   1787 DD CB 7F F3         set  6,[ix+127],e       ; 1787 DD CB 7F F3
2052   178B DD CB 7F F4         set  6,[ix+127],h       ; 178B DD CB 7F F4
2053   178F DD CB 7F F5         set  6,[ix+127],l       ; 178F DD CB 7F F5
2054   1793 FD CB 7F F6         set  6,[iy+127]         ; 1793 FD CB 7F F6
2055   1797 FD CB 7F F7         set  6,[iy+127],a       ; 1797 FD CB 7F F7
2056   179B FD CB 7F F0         set  6,[iy+127],b       ; 179B FD CB 7F F0
2057   179F FD CB 7F F1         set  6,[iy+127],c       ; 179F FD CB 7F F1
2058   17A3 FD CB 7F F2         set  6,[iy+127],d       ; 17A3 FD CB 7F F2
2059   17A7 FD CB 7F F3         set  6,[iy+127],e       ; 17A7 FD CB 7F F3
2060   17AB FD CB 7F F4         set  6,[iy+127],h       ; 17AB FD CB 7F F4
2061   17AF FD CB 7F F5         set  6,[iy+127],l       ; 17AF FD CB 7F F5
2062   17B3 CB F7               set  6,a                ; 17B3 CB F7
2063   17B5 CB F0               set  6,b                ; 17B5 CB F0
2064   17B7 CB F1               set  6,c                ; 17B7 CB F1
2065   17B9 CB F2               set  6,d                ; 17B9 CB F2
2066   17BB CB F3               set  6,e                ; 17BB CB F3
2067   17BD CB F4               set  6,h                ; 17BD CB F4
2068   17BF CB F5               set  6,l                ; 17BF CB F5
2069   17C1 CB FE               set  7,(hl)             ; 17C1 CB FE
2070   17C3 DD CB 7F FE         set  7,(ix+127)         ; 17C3 DD CB 7F FE
2071   17C7 DD CB 7F FF         set  7,(ix+127),a       ; 17C7 DD CB 7F FF
2072   17CB DD CB 7F F8         set  7,(ix+127),b       ; 17CB DD CB 7F F8
2073   17CF DD CB 7F F9         set  7,(ix+127),c       ; 17CF DD CB 7F F9
2074   17D3 DD CB 7F FA         set  7,(ix+127),d       ; 17D3 DD CB 7F FA
2075   17D7 DD CB 7F FB         set  7,(ix+127),e       ; 17D7 DD CB 7F FB
2076   17DB DD CB 7F FC         set  7,(ix+127),h       ; 17DB DD CB 7F FC
2077   17DF DD CB 7F FD         set  7,(ix+127),l       ; 17DF DD CB 7F FD
2078   17E3 FD CB 7F FE         set  7,(iy+127)         ; 17E3 FD CB 7F FE
2079   17E7 FD CB 7F FF         set  7,(iy+127),a       ; 17E7 FD CB 7F FF
2080   17EB FD CB 7F F8         set  7,(iy+127),b       ; 17EB FD CB 7F F8
2081   17EF FD CB 7F F9         set  7,(iy+127),c       ; 17EF FD CB 7F F9
2082   17F3 FD CB 7F FA         set  7,(iy+127),d       ; 17F3 FD CB 7F FA
2083   17F7 FD CB 7F FB         set  7,(iy+127),e       ; 17F7 FD CB 7F FB
2084   17FB FD CB 7F FC         set  7,(iy+127),h       ; 17FB FD CB 7F FC
2085   17FF FD CB 7F FD         set  7,(iy+127),l       ; 17FF FD CB 7F FD
2086   1803 CB FE               set  7,[hl]             ; 1803 CB FE
2087   1805 DD CB 7F FE         set  7,[ix+127]         ; 1805 DD CB 7F FE
2088   1809 DD CB 7F FF         set  7,[ix+127],a       ; 1809 DD CB 7F FF
2089   180D DD CB 7F F8         set  7,[ix+127],b       ; 180D DD CB 7F F8
2090   1811 DD CB 7F F9         set  7,[ix+127],c       ; 1811 DD CB 7F F9
2091   1815 DD CB 7F FA         set  7,[ix+127],d       ; 1815 DD CB 7F FA
2092   1819 DD CB 7F FB         set  7,[ix+127],e       ; 1819 DD CB 7F FB
2093   181D DD CB 7F FC         set  7,[ix+127],h       ; 181D DD CB 7F FC
2094   1821 DD CB 7F FD         set  7,[ix+127],l       ; 1821 DD CB 7F FD
2095   1825 FD CB 7F FE         set  7,[iy+127]         ; 1825 FD CB 7F FE
2096   1829 FD CB 7F FF         set  7,[iy+127],a       ; 1829 FD CB 7F FF
2097   182D FD CB 7F F8         set  7,[iy+127],b       ; 182D FD CB 7F F8
2098   1831 FD CB 7F F9         set  7,[iy+127],c       ; 1831 FD CB 7F F9
2099   1835 FD CB 7F FA         set  7,[iy+127],d       ; 1835 FD CB 7F FA
2100   1839 FD CB 7F FB         set  7,[iy+127],e       ; 1839 FD CB 7F FB
2101   183D FD CB 7F FC         set  7,[iy+127],h       ; 183D FD CB 7F FC
2102   1841 FD CB 7F FD         set  7,[iy+127],l       ; 1841 FD CB 7F FD
2103   1845 CB FF               set  7,a                ; 1845 CB FF
2104   1847 CB F8               set  7,b                ; 1847 CB F8
2105   1849 CB F9               set  7,c                ; 1849 CB F9
2106   184B CB FA               set  7,d                ; 184B CB FA
2107   184D CB FB               set  7,e                ; 184D CB FB
2108   184F CB FC               set  7,h                ; 184F CB FC
2109   1851 CB FD               set  7,l                ; 1851 CB FD
2110   1853 CB 26               sla  (hl)               ; 1853 CB 26
2111   1855 CB 26               SLA  (HL)               ; 1855 CB 26
2112   1857 DD CB 7F 26         sla  (ix+127)           ; 1857 DD CB 7F 26
2113   185B DD CB 7F 27         sla  (ix+127),a         ; 185B DD CB 7F 27
2114   185F DD CB 7F 20         sla  (ix+127),b         ; 185F DD CB 7F 20
2115   1863 DD CB 7F 21         sla  (ix+127),c         ; 1863 DD CB 7F 21
2116   1867 DD CB 7F 22         sla  (ix+127),d         ; 1867 DD CB 7F 22
2117   186B DD CB 7F 23         sla  (ix+127),e         ; 186B DD CB 7F 23
2118   186F DD CB 7F 24         sla  (ix+127),h         ; 186F DD CB 7F 24
2119   1873 DD CB 7F 25         sla  (ix+127),l         ; 1873 DD CB 7F 25
2120   1877 FD CB 7F 26         sla  (iy+127)           ; 1877 FD CB 7F 26
2121   187B FD CB 7F 27         sla  (iy+127),a         ; 187B FD CB 7F 27
2122   187F FD CB 7F 20         sla  (iy+127),b         ; 187F FD CB 7F 20
2123   1883 FD CB 7F 21         sla  (iy+127),c         ; 1883 FD CB 7F 21
2124   1887 FD CB 7F 22         sla  (iy+127),d         ; 1887 FD CB 7F 22
2125   188B FD CB 7F 23         sla  (iy+127),e         ; 188B FD CB 7F 23
2126   188F FD CB 7F 24         sla  (iy+127),h         ; 188F FD CB 7F 24
2127   1893 FD CB 7F 25         sla  (iy+127),l         ; 1893 FD CB 7F 25
2128   1897 CB 26               sla  [hl]               ; 1897 CB 26
2129   1899 DD CB 7F 26         sla  [ix+127]           ; 1899 DD CB 7F 26
2130   189D DD CB 7F 27         sla  [ix+127],a         ; 189D DD CB 7F 27
2131   18A1 DD CB 7F 20         sla  [ix+127],b         ; 18A1 DD CB 7F 20
2132   18A5 DD CB 7F 21         sla  [ix+127],c         ; 18A5 DD CB 7F 21
2133   18A9 DD CB 7F 22         sla  [ix+127],d         ; 18A9 DD CB 7F 22
2134   18AD DD CB 7F 23         sla  [ix+127],e         ; 18AD DD CB 7F 23
2135   18B1 DD CB 7F 24         sla  [ix+127],h         ; 18B1 DD CB 7F 24
2136   18B5 DD CB 7F 25         sla  [ix+127],l         ; 18B5 DD CB 7F 25
2137   18B9 FD CB 7F 26         sla  [iy+127]           ; 18B9 FD CB 7F 26
2138   18BD FD CB 7F 27         sla  [iy+127],a         ; 18BD FD CB 7F 27
2139   18C1 FD CB 7F 20         sla  [iy+127],b         ; 18C1 FD CB 7F 20
2140   18C5 FD CB 7F 21         sla  [iy+127],c         ; 18C5 FD CB 7F 21
2141   18C9 FD CB 7F 22         sla  [iy+127],d         ; 18C9 FD CB 7F 22
2142   18CD FD CB 7F 23         sla  [iy+127],e         ; 18CD FD CB 7F 23
2143   18D1 FD CB 7F 24         sla  [iy+127],h         ; 18D1 FD CB 7F 24
2144   18D5 FD CB 7F 25         sla  [iy+127],l         ; 18D5 FD CB 7F 25
2145   18D9 CB 27               sla  a                  ; 18D9 CB 27
2146   18DB CB 20               sla  b                  ; 18DB CB 20
2147   18DD CB 21 CB 10         sla  bc                 ; 18DD CB 21 CB 10
2148   18E1 CB 21               sla  c                  ; 18E1 CB 21
2149   18E3 CB 22               sla  d                  ; 18E3 CB 22
2150   18E5 CB 23 CB 12         sla  de                 ; 18E5 CB 23 CB 12
2151   18E9 CB 23               sla  e                  ; 18E9 CB 23
2152   18EB CB 24               sla  h                  ; 18EB CB 24
2153   18ED 29                  sla  hl                 ; 18ED 29
2154   18EE CB 25               sla  l                  ; 18EE CB 25
2155   18F0 CB 36               sli  (hl)               ; 18F0 CB 36
2156   18F2 CB 36               SLI  (HL)               ; 18F2 CB 36
2157   18F4 DD CB 7F 36         sli  (ix+127)           ; 18F4 DD CB 7F 36
2158   18F8 DD CB 7F 37         sli  (ix+127),a         ; 18F8 DD CB 7F 37
2159   18FC DD CB 7F 30         sli  (ix+127),b         ; 18FC DD CB 7F 30
2160   1900 DD CB 7F 31         sli  (ix+127),c         ; 1900 DD CB 7F 31
2161   1904 DD CB 7F 32         sli  (ix+127),d         ; 1904 DD CB 7F 32
2162   1908 DD CB 7F 33         sli  (ix+127),e         ; 1908 DD CB 7F 33
2163   190C DD CB 7F 34         sli  (ix+127),h         ; 190C DD CB 7F 34
2164   1910 DD CB 7F 35         sli  (ix+127),l         ; 1910 DD CB 7F 35
2165   1914 FD CB 7F 36         sli  (iy+127)           ; 1914 FD CB 7F 36
2166   1918 FD CB 7F 37         sli  (iy+127),a         ; 1918 FD CB 7F 37
2167   191C FD CB 7F 30         sli  (iy+127),b         ; 191C FD CB 7F 30
2168   1920 FD CB 7F 31         sli  (iy+127),c         ; 1920 FD CB 7F 31
2169   1924 FD CB 7F 32         sli  (iy+127),d         ; 1924 FD CB 7F 32
2170   1928 FD CB 7F 33         sli  (iy+127),e         ; 1928 FD CB 7F 33
2171   192C FD CB 7F 34         sli  (iy+127),h         ; 192C FD CB 7F 34
2172   1930 FD CB 7F 35         sli  (iy+127),l         ; 1930 FD CB 7F 35
2173   1934 CB 36               sli  [hl]               ; 1934 CB 36
2174   1936 DD CB 7F 36         sli  [ix+127]           ; 1936 DD CB 7F 36
2175   193A DD CB 7F 37         sli  [ix+127],a         ; 193A DD CB 7F 37
2176   193E DD CB 7F 30         sli  [ix+127],b         ; 193E DD CB 7F 30
2177   1942 DD CB 7F 31         sli  [ix+127],c         ; 1942 DD CB 7F 31
2178   1946 DD CB 7F 32         sli  [ix+127],d         ; 1946 DD CB 7F 32
2179   194A DD CB 7F 33         sli  [ix+127],e         ; 194A DD CB 7F 33
2180   194E DD CB 7F 34         sli  [ix+127],h         ; 194E DD CB 7F 34
2181   1952 DD CB 7F 35         sli  [ix+127],l         ; 1952 DD CB 7F 35
2182   1956 FD CB 7F 36         sli  [iy+127]           ; 1956 FD CB 7F 36
2183   195A FD CB 7F 37         sli  [iy+127],a         ; 195A FD CB 7F 37
2184   195E FD CB 7F 30         sli  [iy+127],b         ; 195E FD CB 7F 30
2185   1962 FD CB 7F 31         sli  [iy+127],c         ; 1962 FD CB 7F 31
2186   1966 FD CB 7F 32         sli  [iy+127],d         ; 1966 FD CB 7F 32
2187   196A FD CB 7F 33         sli  [iy+127],e         ; 196A FD CB 7F 33
2188   196E FD CB 7F 34         sli  [iy+127],h         ; 196E FD CB 7F 34
2189   1972 FD CB 7F 35         sli  [iy+127],l         ; 1972 FD CB 7F 35
2190   1976 CB 37               sli  a                  ; 1976 CB 37
2191   1978 CB 30               sli  b                  ; 1978 CB 30
2192   197A CB 31 CB 10         sli  bc                 ; 197A CB 31 CB 10
2193   197E CB 31               sli  c                  ; 197E CB 31
2194   1980 CB 32               sli  d                  ; 1980 CB 32
2195   1982 CB 33 CB 12         sli  de                 ; 1982 CB 33 CB 12
2196   1986 CB 33               sli  e                  ; 1986 CB 33
2197   1988 CB 34               sli  h                  ; 1988 CB 34
2198   198A CB 35 CB 14         sli  hl                 ; 198A CB 35 CB 14
2199   198E CB 35               sli  l                  ; 198E CB 35
2200   1990 CB 36               sll  (hl)               ; 1990 CB 36
2201   1992 CB 36               SLL  (HL)               ; 1992 CB 36
2202   1994 DD CB 7F 36         sll  (ix+127)           ; 1994 DD CB 7F 36
2203   1998 DD CB 7F 37         sll  (ix+127),a         ; 1998 DD CB 7F 37
2204   199C DD CB 7F 30         sll  (ix+127),b         ; 199C DD CB 7F 30
2205   19A0 DD CB 7F 31         sll  (ix+127),c         ; 19A0 DD CB 7F 31
2206   19A4 DD CB 7F 32         sll  (ix+127),d         ; 19A4 DD CB 7F 32
2207   19A8 DD CB 7F 33         sll  (ix+127),e         ; 19A8 DD CB 7F 33
2208   19AC DD CB 7F 34         sll  (ix+127),h         ; 19AC DD CB 7F 34
2209   19B0 DD CB 7F 35         sll  (ix+127),l         ; 19B0 DD CB 7F 35
2210   19B4 FD CB 7F 36         sll  (iy+127)           ; 19B4 FD CB 7F 36
2211   19B8 FD CB 7F 37         sll  (iy+127),a         ; 19B8 FD CB 7F 37
2212   19BC FD CB 7F 30         sll  (iy+127),b         ; 19BC FD CB 7F 30
2213   19C0 FD CB 7F 31         sll  (iy+127),c         ; 19C0 FD CB 7F 31
2214   19C4 FD CB 7F 32         sll  (iy+127),d         ; 19C4 FD CB 7F 32
2215   19C8 FD CB 7F 33         sll  (iy+127),e         ; 19C8 FD CB 7F 33
2216   19CC FD CB 7F 34         sll  (iy+127),h         ; 19CC FD CB 7F 34
2217   19D0 FD CB 7F 35         sll  (iy+127),l         ; 19D0 FD CB 7F 35
2218   19D4 CB 36               sll  [hl]               ; 19D4 CB 36
2219   19D6 DD CB 7F 36         sll  [ix+127]           ; 19D6 DD CB 7F 36
2220   19DA DD CB 7F 37         sll  [ix+127],a         ; 19DA DD CB 7F 37
2221   19DE DD CB 7F 30         sll  [ix+127],b         ; 19DE DD CB 7F 30
2222   19E2 DD CB 7F 31         sll  [ix+127],c         ; 19E2 DD CB 7F 31
2223   19E6 DD CB 7F 32         sll  [ix+127],d         ; 19E6 DD CB 7F 32
2224   19EA DD CB 7F 33         sll  [ix+127],e         ; 19EA DD CB 7F 33
2225   19EE DD CB 7F 34         sll  [ix+127],h         ; 19EE DD CB 7F 34
2226   19F2 DD CB 7F 35         sll  [ix+127],l         ; 19F2 DD CB 7F 35
2227   19F6 FD CB 7F 36         sll  [iy+127]           ; 19F6 FD CB 7F 36
2228   19FA FD CB 7F 37         sll  [iy+127],a         ; 19FA FD CB 7F 37
2229   19FE FD CB 7F 30         sll  [iy+127],b         ; 19FE FD CB 7F 30
2230   1A02 FD CB 7F 31         sll  [iy+127],c         ; 1A02 FD CB 7F 31
2231   1A06 FD CB 7F 32         sll  [iy+127],d         ; 1A06 FD CB 7F 32
2232   1A0A FD CB 7F 33         sll  [iy+127],e         ; 1A0A FD CB 7F 33
2233   1A0E FD CB 7F 34         sll  [iy+127],h         ; 1A0E FD CB 7F 34
2234   1A12 FD CB 7F 35         sll  [iy+127],l         ; 1A12 FD CB 7F 35
2235   1A16 CB 37               sll  a                  ; 1A16 CB 37
2236   1A18 CB 30               sll  b                  ; 1A18 CB 30
2237   1A1A CB 31 CB 10         sll  bc                 ; 1A1A CB 31 CB 10
2238   1A1E CB 31               sll  c                  ; 1A1E CB 31
2239   1A20 CB 32               sll  d                  ; 1A20 CB 32
2240   1A22 CB 33 CB 12         sll  de                 ; 1A22 CB 33 CB 12
2241   1A26 CB 33               sll  e                  ; 1A26 CB 33
2242   1A28 CB 34               sll  h                  ; 1A28 CB 34
2243   1A2A CB 35 CB 14         sll  hl                 ; 1A2A CB 35 CB 14
2244   1A2E CB 35               sll  l                  ; 1A2E CB 35
2245   1A30 CB 2E               sra  (hl)               ; 1A30 CB 2E
2246   1A32 CB 2E               SRA  (HL)               ; 1A32 CB 2E
2247   1A34 DD CB 7F 2E         sra  (ix+127)           ; 1A34 DD CB 7F 2E
2248   1A38 DD CB 7F 2F         sra  (ix+127),a         ; 1A38 DD CB 7F 2F
2249   1A3C DD CB 7F 28         sra  (ix+127),b         ; 1A3C DD CB 7F 28
2250   1A40 DD CB 7F 29         sra  (ix+127),c         ; 1A40 DD CB 7F 29
2251   1A44 DD CB 7F 2A         sra  (ix+127),d         ; 1A44 DD CB 7F 2A
2252   1A48 DD CB 7F 2B         sra  (ix+127),e         ; 1A48 DD CB 7F 2B
2253   1A4C DD CB 7F 2C         sra  (ix+127),h         ; 1A4C DD CB 7F 2C
2254   1A50 DD CB 7F 2D         sra  (ix+127),l         ; 1A50 DD CB 7F 2D
2255   1A54 FD CB 7F 2E         sra  (iy+127)           ; 1A54 FD CB 7F 2E
2256   1A58 FD CB 7F 2F         sra  (iy+127),a         ; 1A58 FD CB 7F 2F
2257   1A5C FD CB 7F 28         sra  (iy+127),b         ; 1A5C FD CB 7F 28
2258   1A60 FD CB 7F 29         sra  (iy+127),c         ; 1A60 FD CB 7F 29
2259   1A64 FD CB 7F 2A         sra  (iy+127),d         ; 1A64 FD CB 7F 2A
2260   1A68 FD CB 7F 2B         sra  (iy+127),e         ; 1A68 FD CB 7F 2B
2261   1A6C FD CB 7F 2C         sra  (iy+127),h         ; 1A6C FD CB 7F 2C
2262   1A70 FD CB 7F 2D         sra  (iy+127),l         ; 1A70 FD CB 7F 2D
2263   1A74 CB 2E               sra  [hl]               ; 1A74 CB 2E
2264   1A76 DD CB 7F 2E         sra  [ix+127]           ; 1A76 DD CB 7F 2E
2265   1A7A DD CB 7F 2F         sra  [ix+127],a         ; 1A7A DD CB 7F 2F
2266   1A7E DD CB 7F 28         sra  [ix+127],b         ; 1A7E DD CB 7F 28
2267   1A82 DD CB 7F 29         sra  [ix+127],c         ; 1A82 DD CB 7F 29
2268   1A86 DD CB 7F 2A         sra  [ix+127],d         ; 1A86 DD CB 7F 2A
2269   1A8A DD CB 7F 2B         sra  [ix+127],e         ; 1A8A DD CB 7F 2B
2270   1A8E DD CB 7F 2C         sra  [ix+127],h         ; 1A8E DD CB 7F 2C
2271   1A92 DD CB 7F 2D         sra  [ix+127],l         ; 1A92 DD CB 7F 2D
2272   1A96 FD CB 7F 2E         sra  [iy+127]           ; 1A96 FD CB 7F 2E
2273   1A9A FD CB 7F 2F         sra  [iy+127],a         ; 1A9A FD CB 7F 2F
2274   1A9E FD CB 7F 28         sra  [iy+127],b         ; 1A9E FD CB 7F 28
2275   1AA2 FD CB 7F 29         sra  [iy+127],c         ; 1AA2 FD CB 7F 29
2276   1AA6 FD CB 7F 2A         sra  [iy+127],d         ; 1AA6 FD CB 7F 2A
2277   1AAA FD CB 7F 2B         sra  [iy+127],e         ; 1AAA FD CB 7F 2B
2278   1AAE FD CB 7F 2C         sra  [iy+127],h         ; 1AAE FD CB 7F 2C
2279   1AB2 FD CB 7F 2D         sra  [iy+127],l         ; 1AB2 FD CB 7F 2D
2280   1AB6 CB 2F               sra  a                  ; 1AB6 CB 2F
2281   1AB8 CB 28               sra  b                  ; 1AB8 CB 28
2282   1ABA CB 28 CB 19         sra  bc                 ; 1ABA CB 28 CB 19
2283   1ABE CB 29               sra  c                  ; 1ABE CB 29
2284   1AC0 CB 2A               sra  d                  ; 1AC0 CB 2A
2285   1AC2 CB 2A CB 1B         sra  de                 ; 1AC2 CB 2A CB 1B
2286   1AC6 CB 2B               sra  e                  ; 1AC6 CB 2B
2287   1AC8 CB 2C               sra  h                  ; 1AC8 CB 2C
2288   1ACA CB 2C CB 1D         sra  hl                 ; 1ACA CB 2C CB 1D
2289   1ACE CB 2D               sra  l                  ; 1ACE CB 2D
2290   1AD0 CB 3E               srl  (hl)               ; 1AD0 CB 3E
2291   1AD2 CB 3E               SRL  (HL)               ; 1AD2 CB 3E
2292   1AD4 DD CB 7F 3E         srl  (ix+127)           ; 1AD4 DD CB 7F 3E
2293   1AD8 DD CB 7F 3F         srl  (ix+127),a         ; 1AD8 DD CB 7F 3F
2294   1ADC DD CB 7F 38         srl  (ix+127),b         ; 1ADC DD CB 7F 38
2295   1AE0 DD CB 7F 39         srl  (ix+127),c         ; 1AE0 DD CB 7F 39
2296   1AE4 DD CB 7F 3A         srl  (ix+127),d         ; 1AE4 DD CB 7F 3A
2297   1AE8 DD CB 7F 3B         srl  (ix+127),e         ; 1AE8 DD CB 7F 3B
2298   1AEC DD CB 7F 3C         srl  (ix+127),h         ; 1AEC DD CB 7F 3C
2299   1AF0 DD CB 7F 3D         srl  (ix+127),l         ; 1AF0 DD CB 7F 3D
2300   1AF4 FD CB 7F 3E         srl  (iy+127)           ; 1AF4 FD CB 7F 3E
2301   1AF8 FD CB 7F 3F         srl  (iy+127),a         ; 1AF8 FD CB 7F 3F
2302   1AFC FD CB 7F 38         srl  (iy+127),b         ; 1AFC FD CB 7F 38
2303   1B00 FD CB 7F 39         srl  (iy+127),c         ; 1B00 FD CB 7F 39
2304   1B04 FD CB 7F 3A         srl  (iy+127),d         ; 1B04 FD CB 7F 3A
2305   1B08 FD CB 7F 3B         srl  (iy+127),e         ; 1B08 FD CB 7F 3B
2306   1B0C FD CB 7F 3C         srl  (iy+127),h         ; 1B0C FD CB 7F 3C
2307   1B10 FD CB 7F 3D         srl  (iy+127),l         ; 1B10 FD CB 7F 3D
2308   1B14 CB 3E               srl  [hl]               ; 1B14 CB 3E
2309   1B16 DD CB 7F 3E         srl  [ix+127]           ; 1B16 DD CB 7F 3E
2310   1B1A DD CB 7F 3F         srl  [ix+127],a         ; 1B1A DD CB 7F 3F
2311   1B1E DD CB 7F 38         srl  [ix+127],b         ; 1B1E DD CB 7F 38
2312   1B22 DD CB 7F 39         srl  [ix+127],c         ; 1B22 DD CB 7F 39
2313   1B26 DD CB 7F 3A         srl  [ix+127],d         ; 1B26 DD CB 7F 3A
2314   1B2A DD CB 7F 3B         srl  [ix+127],e         ; 1B2A DD CB 7F 3B
2315   1B2E DD CB 7F 3C         srl  [ix+127],h         ; 1B2E DD CB 7F 3C
2316   1B32 DD CB 7F 3D         srl  [ix+127],l         ; 1B32 DD CB 7F 3D
2317   1B36 FD CB 7F 3E         srl  [iy+127]           ; 1B36 FD CB 7F 3E
2318   1B3A FD CB 7F 3F         srl  [iy+127],a         ; 1B3A FD CB 7F 3F
2319   1B3E FD CB 7F 38         srl  [iy+127],b         ; 1B3E FD CB 7F 38
2320   1B42 FD CB 7F 39         srl  [iy+127],c         ; 1B42 FD CB 7F 39
2321   1B46 FD CB 7F 3A         srl  [iy+127],d         ; 1B46 FD CB 7F 3A
2322   1B4A FD CB 7F 3B         srl  [iy+127],e         ; 1B4A FD CB 7F 3B
2323   1B4E FD CB 7F 3C         srl  [iy+127],h         ; 1B4E FD CB 7F 3C
2324   1B52 FD CB 7F 3D         srl  [iy+127],l         ; 1B52 FD CB 7F 3D
2325   1B56 CB 3F               srl  a                  ; 1B56 CB 3F
2326   1B58 CB 38               srl  b                  ; 1B58 CB 38
2327   1B5A CB 38 CB 19         srl  bc                 ; 1B5A CB 38 CB 19
2328   1B5E CB 39               srl  c                  ; 1B5E CB 39
2329   1B60 CB 3A               srl  d                  ; 1B60 CB 3A
2330   1B62 CB 3A CB 1B         srl  de                 ; 1B62 CB 3A CB 1B
2331   1B66 CB 3B               srl  e                  ; 1B66 CB 3B
2332   1B68 CB 3C               srl  h                  ; 1B68 CB 3C
2333   1B6A CB 3C CB 1D         srl  hl                 ; 1B6A CB 3C CB 1D
2334   1B6E CB 3D               srl  l                  ; 1B6E CB 3D
2335   1B70                     stop                    ; 1B70 DD DD 00
2335   1B70 DD DD 00    >	db 0xDD, 0xDD, 0x00
2336   1B73                     STOP                    ; 1B73 DD DD 00
2336   1B73 DD DD 00    >	db 0xDD, 0xDD, 0x00
2337   1B76 96                  sub  (hl)               ; 1B76 96
2338   1B77 96                  SUB  (HL)               ; 1B77 96
2339   1B78 DD 96 7F            sub  (ix+127)           ; 1B78 DD 96 7F
2340   1B7B FD 96 7F            sub  (iy+127)           ; 1B7B FD 96 7F
2341   1B7E D6 FF               sub  255                ; 1B7E D6 FF
2342   1B80 96                  sub  [hl]               ; 1B80 96
2343   1B81 DD 96 7F            sub  [ix+127]           ; 1B81 DD 96 7F
2344   1B84 FD 96 7F            sub  [iy+127]           ; 1B84 FD 96 7F
2345   1B87 97                  sub  a                  ; 1B87 97
2346   1B88 90                  sub  b                  ; 1B88 90
2347   1B89 91                  sub  c                  ; 1B89 91
2348   1B8A 92                  sub  d                  ; 1B8A 92
2349   1B8B 93                  sub  e                  ; 1B8B 93
2350   1B8C 94                  sub  h                  ; 1B8C 94
2351   1B8D B7 ED 42            sub  hl,bc              ; 1B8D B7 ED 42
2352   1B90 B7 ED 52            sub  hl,de              ; 1B90 B7 ED 52
2353   1B93 B7 ED 62            sub  hl,hl              ; 1B93 B7 ED 62
2354   1B96 B7 ED 72            sub  hl,sp              ; 1B96 B7 ED 72
2355   1B99 DD 94               sub  hx                 ; 1B99 DD 94
2356   1B9B FD 94               sub  hy                 ; 1B9B FD 94
2357   1B9D DD 94               sub  ixh                ; 1B9D DD 94
2358   1B9F DD 95               sub  ixl                ; 1B9F DD 95
2359   1BA1 FD 94               sub  iyh                ; 1BA1 FD 94
2360   1BA3 FD 95               sub  iyl                ; 1BA3 FD 95
2361   1BA5 95                  sub  l                  ; 1BA5 95
2362   1BA6 DD 95               sub  lx                 ; 1BA6 DD 95
2363   1BA8 FD 95               sub  ly                 ; 1BA8 FD 95
2364   1BAA DD 94               sub  xh                 ; 1BAA DD 94
2365   1BAC DD 95               sub  xl                 ; 1BAC DD 95
2366   1BAE FD 94               sub  yh                 ; 1BAE FD 94
2367   1BB0 FD 95               sub  yl                 ; 1BB0 FD 95
2368   1BB2 AE                  xor  (hl)               ; 1BB2 AE
2369   1BB3 AE                  XOR  (HL)               ; 1BB3 AE
2370   1BB4 DD AE 7F            xor  (ix+127)           ; 1BB4 DD AE 7F
2371   1BB7 FD AE 7F            xor  (iy+127)           ; 1BB7 FD AE 7F
2372   1BBA EE FF               xor  255                ; 1BBA EE FF
2373   1BBC AE                  xor  [hl]               ; 1BBC AE
2374   1BBD DD AE 7F            xor  [ix+127]           ; 1BBD DD AE 7F
2375   1BC0 FD AE 7F            xor  [iy+127]           ; 1BC0 FD AE 7F
2376   1BC3 AF                  xor  a                  ; 1BC3 AF
2377   1BC4 A8                  xor  b                  ; 1BC4 A8
2378   1BC5 A9                  xor  c                  ; 1BC5 A9
2379   1BC6 AA                  xor  d                  ; 1BC6 AA
2380   1BC7 AB                  xor  e                  ; 1BC7 AB
2381   1BC8 AC                  xor  h                  ; 1BC8 AC
2382   1BC9 DD AC               xor  hx                 ; 1BC9 DD AC
2383   1BCB FD AC               xor  hy                 ; 1BCB FD AC
2384   1BCD DD AC               xor  ixh                ; 1BCD DD AC
2385   1BCF DD AD               xor  ixl                ; 1BCF DD AD
2386   1BD1 FD AC               xor  iyh                ; 1BD1 FD AC
2387   1BD3 FD AD               xor  iyl                ; 1BD3 FD AD
2388   1BD5 AD                  xor  l                  ; 1BD5 AD
2389   1BD6 DD AD               xor  lx                 ; 1BD6 DD AD
2390   1BD8 FD AD               xor  ly                 ; 1BD8 FD AD
2391   1BDA DD AC               xor  xh                 ; 1BDA DD AC
2392   1BDC DD AD               xor  xl                 ; 1BDC DD AD
2393   1BDE FD AC               xor  yh                 ; 1BDE FD AC
2394   1BE0 FD AD               xor  yl                 ; 1BE0 FD AD
2395   1BE2             
