00001   0000             
00005   0000             	
00009   0000             	
00010   0000                     org 0
00011   0000 8E                  adc  a,(hl)             ; 0000 8E
00012   0001 8E                  ADC  A,(HL)             ; 0001 8E
00013   0002 DD 8E 80            adc  a,(ix+-128)        ; 0002 DD 8E 80
00014   0005 DD 8E 80            ADC  A,(IX+-128)        ; 0005 DD 8E 80
00015   0008 DD 8E FF            adc  a,(ix+-1)          ; 0008 DD 8E FF
00016   000B DD 8E FF            ADC  A,(IX+-1)          ; 000B DD 8E FF
00017   000E DD 8E 00            adc  a,(ix+0)           ; 000E DD 8E 00
00018   0011 DD 8E 00            ADC  A,(IX+0)           ; 0011 DD 8E 00
00019   0014 DD 8E 7F            adc  a,(ix+127)         ; 0014 DD 8E 7F
00020   0017 DD 8E 7F            ADC  A,(IX+127)         ; 0017 DD 8E 7F
00021   001A FD 8E 80            adc  a,(iy+-128)        ; 001A FD 8E 80
00022   001D FD 8E 80            ADC  A,(IY+-128)        ; 001D FD 8E 80
00023   0020 FD 8E FF            adc  a,(iy+-1)          ; 0020 FD 8E FF
00024   0023 FD 8E FF            ADC  A,(IY+-1)          ; 0023 FD 8E FF
00025   0026 FD 8E 00            adc  a,(iy+0)           ; 0026 FD 8E 00
00026   0029 FD 8E 00            ADC  A,(IY+0)           ; 0029 FD 8E 00
00027   002C FD 8E 7F            adc  a,(iy+127)         ; 002C FD 8E 7F
00028   002F FD 8E 7F            ADC  A,(IY+127)         ; 002F FD 8E 7F
00029   0032 CE 80               adc  a,-128             ; 0032 CE 80
00030   0034 CE 80               ADC  A,-128             ; 0034 CE 80
00031   0036 CE FF               adc  a,-1               ; 0036 CE FF
00032   0038 CE FF               ADC  A,-1               ; 0038 CE FF
00033   003A CE 00               adc  a,0                ; 003A CE 00
00034   003C CE 00               ADC  A,0                ; 003C CE 00
00035   003E CE 7F               adc  a,127              ; 003E CE 7F
00036   0040 CE 7F               ADC  A,127              ; 0040 CE 7F
00037   0042 CE FF               adc  a,255              ; 0042 CE FF
00038   0044 CE FF               ADC  A,255              ; 0044 CE FF
00039   0046 8E                  adc  a,[hl]             ; 0046 8E
00040   0047 8E                  ADC  A,[HL]             ; 0047 8E
00041   0048 DD 8E 80            adc  a,[ix+-128]        ; 0048 DD 8E 80
00042   004B DD 8E 80            ADC  A,[IX+-128]        ; 004B DD 8E 80
00043   004E DD 8E FF            adc  a,[ix+-1]          ; 004E DD 8E FF
00044   0051 DD 8E FF            ADC  A,[IX+-1]          ; 0051 DD 8E FF
00045   0054 DD 8E 00            adc  a,[ix+0]           ; 0054 DD 8E 00
00046   0057 DD 8E 00            ADC  A,[IX+0]           ; 0057 DD 8E 00
00047   005A DD 8E 7F            adc  a,[ix+127]         ; 005A DD 8E 7F
00048   005D DD 8E 7F            ADC  A,[IX+127]         ; 005D DD 8E 7F
00049   0060 FD 8E 80            adc  a,[iy+-128]        ; 0060 FD 8E 80
00050   0063 FD 8E 80            ADC  A,[IY+-128]        ; 0063 FD 8E 80
00051   0066 FD 8E FF            adc  a,[iy+-1]          ; 0066 FD 8E FF
00052   0069 FD 8E FF            ADC  A,[IY+-1]          ; 0069 FD 8E FF
00053   006C FD 8E 00            adc  a,[iy+0]           ; 006C FD 8E 00
00054   006F FD 8E 00            ADC  A,[IY+0]           ; 006F FD 8E 00
00055   0072 FD 8E 7F            adc  a,[iy+127]         ; 0072 FD 8E 7F
00056   0075 FD 8E 7F            ADC  A,[IY+127]         ; 0075 FD 8E 7F
00057   0078 8F                  adc  a,a                ; 0078 8F
00058   0079 8F                  ADC  A,A                ; 0079 8F
00059   007A 88                  adc  a,b                ; 007A 88
00060   007B 88                  ADC  A,B                ; 007B 88
00061   007C 89                  adc  a,c                ; 007C 89
00062   007D 89                  ADC  A,C                ; 007D 89
00063   007E 8A                  adc  a,d                ; 007E 8A
00064   007F 8A                  ADC  A,D                ; 007F 8A
00065   0080 8B                  adc  a,e                ; 0080 8B
00066   0081 8B                  ADC  A,E                ; 0081 8B
00067   0082 8C                  adc  a,h                ; 0082 8C
00068   0083 8C                  ADC  A,H                ; 0083 8C
00069   0084 DD 8C               adc  a,hx               ; 0084 DD 8C
00070   0086 DD 8C               ADC  A,HX               ; 0086 DD 8C
00071   0088 FD 8C               adc  a,hy               ; 0088 FD 8C
00072   008A FD 8C               ADC  A,HY               ; 008A FD 8C
00073   008C DD 8C               adc  a,ixh              ; 008C DD 8C
00074   008E DD 8C               ADC  A,IXH              ; 008E DD 8C
00075   0090 DD 8D               adc  a,ixl              ; 0090 DD 8D
00076   0092 DD 8D               ADC  A,IXL              ; 0092 DD 8D
00077   0094 FD 8C               adc  a,iyh              ; 0094 FD 8C
00078   0096 FD 8C               ADC  A,IYH              ; 0096 FD 8C
00079   0098 FD 8D               adc  a,iyl              ; 0098 FD 8D
00080   009A FD 8D               ADC  A,IYL              ; 009A FD 8D
00081   009C 8D                  adc  a,l                ; 009C 8D
00082   009D 8D                  ADC  A,L                ; 009D 8D
00083   009E DD 8D               adc  a,lx               ; 009E DD 8D
00084   00A0 DD 8D               ADC  A,LX               ; 00A0 DD 8D
00085   00A2 FD 8D               adc  a,ly               ; 00A2 FD 8D
00086   00A4 FD 8D               ADC  A,LY               ; 00A4 FD 8D
00087   00A6 DD 8C               adc  a,xh               ; 00A6 DD 8C
00088   00A8 DD 8C               ADC  A,XH               ; 00A8 DD 8C
00089   00AA DD 8D               adc  a,xl               ; 00AA DD 8D
00090   00AC DD 8D               ADC  A,XL               ; 00AC DD 8D
00091   00AE FD 8C               adc  a,yh               ; 00AE FD 8C
00092   00B0 FD 8C               ADC  A,YH               ; 00B0 FD 8C
00093   00B2 FD 8D               adc  a,yl               ; 00B2 FD 8D
00094   00B4 FD 8D               ADC  A,YL               ; 00B4 FD 8D
00095   00B6 ED 4A               adc  hl,bc              ; 00B6 ED 4A
00096   00B8 ED 4A               ADC  HL,BC              ; 00B8 ED 4A
00097   00BA ED 5A               adc  hl,de              ; 00BA ED 5A
00098   00BC ED 5A               ADC  HL,DE              ; 00BC ED 5A
00099   00BE ED 6A               adc  hl,hl              ; 00BE ED 6A
00100   00C0 ED 6A               ADC  HL,HL              ; 00C0 ED 6A
00101   00C2 ED 7A               adc  hl,sp              ; 00C2 ED 7A
00102   00C4 ED 7A               ADC  HL,SP              ; 00C4 ED 7A
00103   00C6 86                  add  a,(hl)             ; 00C6 86
00104   00C7 86                  ADD  A,(HL)             ; 00C7 86
00105   00C8 DD 86 80            add  a,(ix+-128)        ; 00C8 DD 86 80
00106   00CB DD 86 80            ADD  A,(IX+-128)        ; 00CB DD 86 80
00107   00CE DD 86 FF            add  a,(ix+-1)          ; 00CE DD 86 FF
00108   00D1 DD 86 FF            ADD  A,(IX+-1)          ; 00D1 DD 86 FF
00109   00D4 DD 86 00            add  a,(ix+0)           ; 00D4 DD 86 00
00110   00D7 DD 86 00            ADD  A,(IX+0)           ; 00D7 DD 86 00
00111   00DA DD 86 7F            add  a,(ix+127)         ; 00DA DD 86 7F
00112   00DD DD 86 7F            ADD  A,(IX+127)         ; 00DD DD 86 7F
00113   00E0 FD 86 80            add  a,(iy+-128)        ; 00E0 FD 86 80
00114   00E3 FD 86 80            ADD  A,(IY+-128)        ; 00E3 FD 86 80
00115   00E6 FD 86 FF            add  a,(iy+-1)          ; 00E6 FD 86 FF
00116   00E9 FD 86 FF            ADD  A,(IY+-1)          ; 00E9 FD 86 FF
00117   00EC FD 86 00            add  a,(iy+0)           ; 00EC FD 86 00
00118   00EF FD 86 00            ADD  A,(IY+0)           ; 00EF FD 86 00
00119   00F2 FD 86 7F            add  a,(iy+127)         ; 00F2 FD 86 7F
00120   00F5 FD 86 7F            ADD  A,(IY+127)         ; 00F5 FD 86 7F
00121   00F8 C6 80               add  a,-128             ; 00F8 C6 80
00122   00FA C6 80               ADD  A,-128             ; 00FA C6 80
00123   00FC C6 FF               add  a,-1               ; 00FC C6 FF
00124   00FE C6 FF               ADD  A,-1               ; 00FE C6 FF
00125   0100 C6 00               add  a,0                ; 0100 C6 00
00126   0102 C6 00               ADD  A,0                ; 0102 C6 00
00127   0104 C6 7F               add  a,127              ; 0104 C6 7F
00128   0106 C6 7F               ADD  A,127              ; 0106 C6 7F
00129   0108 C6 FF               add  a,255              ; 0108 C6 FF
00130   010A C6 FF               ADD  A,255              ; 010A C6 FF
00131   010C 86                  add  a,[hl]             ; 010C 86
00132   010D 86                  ADD  A,[HL]             ; 010D 86
00133   010E DD 86 80            add  a,[ix+-128]        ; 010E DD 86 80
00134   0111 DD 86 80            ADD  A,[IX+-128]        ; 0111 DD 86 80
00135   0114 DD 86 FF            add  a,[ix+-1]          ; 0114 DD 86 FF
00136   0117 DD 86 FF            ADD  A,[IX+-1]          ; 0117 DD 86 FF
00137   011A DD 86 00            add  a,[ix+0]           ; 011A DD 86 00
00138   011D DD 86 00            ADD  A,[IX+0]           ; 011D DD 86 00
00139   0120 DD 86 7F            add  a,[ix+127]         ; 0120 DD 86 7F
00140   0123 DD 86 7F            ADD  A,[IX+127]         ; 0123 DD 86 7F
00141   0126 FD 86 80            add  a,[iy+-128]        ; 0126 FD 86 80
00142   0129 FD 86 80            ADD  A,[IY+-128]        ; 0129 FD 86 80
00143   012C FD 86 FF            add  a,[iy+-1]          ; 012C FD 86 FF
00144   012F FD 86 FF            ADD  A,[IY+-1]          ; 012F FD 86 FF
00145   0132 FD 86 00            add  a,[iy+0]           ; 0132 FD 86 00
00146   0135 FD 86 00            ADD  A,[IY+0]           ; 0135 FD 86 00
00147   0138 FD 86 7F            add  a,[iy+127]         ; 0138 FD 86 7F
00148   013B FD 86 7F            ADD  A,[IY+127]         ; 013B FD 86 7F
00149   013E 87                  add  a,a                ; 013E 87
00150   013F 87                  ADD  A,A                ; 013F 87
00151   0140 80                  add  a,b                ; 0140 80
00152   0141 80                  ADD  A,B                ; 0141 80
00153   0142 81                  add  a,c                ; 0142 81
00154   0143 81                  ADD  A,C                ; 0143 81
00155   0144 82                  add  a,d                ; 0144 82
00156   0145 82                  ADD  A,D                ; 0145 82
00157   0146 83                  add  a,e                ; 0146 83
00158   0147 83                  ADD  A,E                ; 0147 83
00159   0148 84                  add  a,h                ; 0148 84
00160   0149 84                  ADD  A,H                ; 0149 84
00161   014A DD 84               add  a,hx               ; 014A DD 84
00162   014C DD 84               ADD  A,HX               ; 014C DD 84
00163   014E FD 84               add  a,hy               ; 014E FD 84
00164   0150 FD 84               ADD  A,HY               ; 0150 FD 84
00165   0152 DD 84               add  a,ixh              ; 0152 DD 84
00166   0154 DD 84               ADD  A,IXH              ; 0154 DD 84
00167   0156 DD 85               add  a,ixl              ; 0156 DD 85
00168   0158 DD 85               ADD  A,IXL              ; 0158 DD 85
00169   015A FD 84               add  a,iyh              ; 015A FD 84
00170   015C FD 84               ADD  A,IYH              ; 015C FD 84
00171   015E FD 85               add  a,iyl              ; 015E FD 85
00172   0160 FD 85               ADD  A,IYL              ; 0160 FD 85
00173   0162 85                  add  a,l                ; 0162 85
00174   0163 85                  ADD  A,L                ; 0163 85
00175   0164 DD 85               add  a,lx               ; 0164 DD 85
00176   0166 DD 85               ADD  A,LX               ; 0166 DD 85
00177   0168 FD 85               add  a,ly               ; 0168 FD 85
00178   016A FD 85               ADD  A,LY               ; 016A FD 85
00179   016C DD 84               add  a,xh               ; 016C DD 84
00180   016E DD 84               ADD  A,XH               ; 016E DD 84
00181   0170 DD 85               add  a,xl               ; 0170 DD 85
00182   0172 DD 85               ADD  A,XL               ; 0172 DD 85
00183   0174 FD 84               add  a,yh               ; 0174 FD 84
00184   0176 FD 84               ADD  A,YH               ; 0176 FD 84
00185   0178 FD 85               add  a,yl               ; 0178 FD 85
00186   017A FD 85               ADD  A,YL               ; 017A FD 85
00187   017C 09                  add  hl,bc              ; 017C 09
00188   017D 09                  ADD  HL,BC              ; 017D 09
00189   017E 19                  add  hl,de              ; 017E 19
00190   017F 19                  ADD  HL,DE              ; 017F 19
00191   0180 29                  add  hl,hl              ; 0180 29
00192   0181 29                  ADD  HL,HL              ; 0181 29
00193   0182 39                  add  hl,sp              ; 0182 39
00194   0183 39                  ADD  HL,SP              ; 0183 39
00195   0184 DD 09               add  ix,bc              ; 0184 DD 09
00196   0186 DD 09               ADD  IX,BC              ; 0186 DD 09
00197   0188 DD 19               add  ix,de              ; 0188 DD 19
00198   018A DD 19               ADD  IX,DE              ; 018A DD 19
00199   018C DD 29               add  ix,ix              ; 018C DD 29
00200   018E DD 29               ADD  IX,IX              ; 018E DD 29
00201   0190 DD 39               add  ix,sp              ; 0190 DD 39
00202   0192 DD 39               ADD  IX,SP              ; 0192 DD 39
00203   0194 FD 09               add  iy,bc              ; 0194 FD 09
00204   0196 FD 09               ADD  IY,BC              ; 0196 FD 09
00205   0198 FD 19               add  iy,de              ; 0198 FD 19
00206   019A FD 19               ADD  IY,DE              ; 019A FD 19
00207   019C FD 29               add  iy,iy              ; 019C FD 29
00208   019E FD 29               ADD  IY,IY              ; 019E FD 29
00209   01A0 FD 39               add  iy,sp              ; 01A0 FD 39
00210   01A2 FD 39               ADD  IY,SP              ; 01A2 FD 39
00211   01A4 A6                  and  (hl)               ; 01A4 A6
00212   01A5 A6                  AND  (HL)               ; 01A5 A6
00213   01A6 DD A6 80            and  (ix+-128)          ; 01A6 DD A6 80
00214   01A9 DD A6 80            AND  (IX+-128)          ; 01A9 DD A6 80
00215   01AC DD A6 FF            and  (ix+-1)            ; 01AC DD A6 FF
00216   01AF DD A6 FF            AND  (IX+-1)            ; 01AF DD A6 FF
00217   01B2 DD A6 00            and  (ix+0)             ; 01B2 DD A6 00
00218   01B5 DD A6 00            AND  (IX+0)             ; 01B5 DD A6 00
00219   01B8 DD A6 7F            and  (ix+127)           ; 01B8 DD A6 7F
00220   01BB DD A6 7F            AND  (IX+127)           ; 01BB DD A6 7F
00221   01BE FD A6 80            and  (iy+-128)          ; 01BE FD A6 80
00222   01C1 FD A6 80            AND  (IY+-128)          ; 01C1 FD A6 80
00223   01C4 FD A6 FF            and  (iy+-1)            ; 01C4 FD A6 FF
00224   01C7 FD A6 FF            AND  (IY+-1)            ; 01C7 FD A6 FF
00225   01CA FD A6 00            and  (iy+0)             ; 01CA FD A6 00
00226   01CD FD A6 00            AND  (IY+0)             ; 01CD FD A6 00
00227   01D0 FD A6 7F            and  (iy+127)           ; 01D0 FD A6 7F
00228   01D3 FD A6 7F            AND  (IY+127)           ; 01D3 FD A6 7F
00229   01D6 E6 80               and  -128               ; 01D6 E6 80
00230   01D8 E6 80               AND  -128               ; 01D8 E6 80
00231   01DA E6 FF               and  -1                 ; 01DA E6 FF
00232   01DC E6 FF               AND  -1                 ; 01DC E6 FF
00233   01DE E6 00               and  0                  ; 01DE E6 00
00234   01E0 E6 00               AND  0                  ; 01E0 E6 00
00235   01E2 E6 7F               and  127                ; 01E2 E6 7F
00236   01E4 E6 7F               AND  127                ; 01E4 E6 7F
00237   01E6 E6 FF               and  255                ; 01E6 E6 FF
00238   01E8 E6 FF               AND  255                ; 01E8 E6 FF
00239   01EA A6                  and  [hl]               ; 01EA A6
00240   01EB A6                  AND  [HL]               ; 01EB A6
00241   01EC DD A6 80            and  [ix+-128]          ; 01EC DD A6 80
00242   01EF DD A6 80            AND  [IX+-128]          ; 01EF DD A6 80
00243   01F2 DD A6 FF            and  [ix+-1]            ; 01F2 DD A6 FF
00244   01F5 DD A6 FF            AND  [IX+-1]            ; 01F5 DD A6 FF
00245   01F8 DD A6 00            and  [ix+0]             ; 01F8 DD A6 00
00246   01FB DD A6 00            AND  [IX+0]             ; 01FB DD A6 00
00247   01FE DD A6 7F            and  [ix+127]           ; 01FE DD A6 7F
00248   0201 DD A6 7F            AND  [IX+127]           ; 0201 DD A6 7F
00249   0204 FD A6 80            and  [iy+-128]          ; 0204 FD A6 80
00250   0207 FD A6 80            AND  [IY+-128]          ; 0207 FD A6 80
00251   020A FD A6 FF            and  [iy+-1]            ; 020A FD A6 FF
00252   020D FD A6 FF            AND  [IY+-1]            ; 020D FD A6 FF
00253   0210 FD A6 00            and  [iy+0]             ; 0210 FD A6 00
00254   0213 FD A6 00            AND  [IY+0]             ; 0213 FD A6 00
00255   0216 FD A6 7F            and  [iy+127]           ; 0216 FD A6 7F
00256   0219 FD A6 7F            AND  [IY+127]           ; 0219 FD A6 7F
00257   021C A7                  and  a                  ; 021C A7
00258   021D A7                  AND  A                  ; 021D A7
00259   021E A0                  and  b                  ; 021E A0
00260   021F A0                  AND  B                  ; 021F A0
00261   0220 A1                  and  c                  ; 0220 A1
00262   0221 A1                  AND  C                  ; 0221 A1
00263   0222 A2                  and  d                  ; 0222 A2
00264   0223 A2                  AND  D                  ; 0223 A2
00265   0224 A3                  and  e                  ; 0224 A3
00266   0225 A3                  AND  E                  ; 0225 A3
00267   0226 A4                  and  h                  ; 0226 A4
00268   0227 A4                  AND  H                  ; 0227 A4
00269   0228 DD A4               and  hx                 ; 0228 DD A4
00270   022A DD A4               AND  HX                 ; 022A DD A4
00271   022C FD A4               and  hy                 ; 022C FD A4
00272   022E FD A4               AND  HY                 ; 022E FD A4
00273   0230 DD A4               and  ixh                ; 0230 DD A4
00274   0232 DD A4               AND  IXH                ; 0232 DD A4
00275   0234 DD A5               and  ixl                ; 0234 DD A5
00276   0236 DD A5               AND  IXL                ; 0236 DD A5
00277   0238 FD A4               and  iyh                ; 0238 FD A4
00278   023A FD A4               AND  IYH                ; 023A FD A4
00279   023C FD A5               and  iyl                ; 023C FD A5
00280   023E FD A5               AND  IYL                ; 023E FD A5
00281   0240 A5                  and  l                  ; 0240 A5
00282   0241 A5                  AND  L                  ; 0241 A5
00283   0242 DD A5               and  lx                 ; 0242 DD A5
00284   0244 DD A5               AND  LX                 ; 0244 DD A5
00285   0246 FD A5               and  ly                 ; 0246 FD A5
00286   0248 FD A5               AND  LY                 ; 0248 FD A5
00287   024A DD A4               and  xh                 ; 024A DD A4
00288   024C DD A4               AND  XH                 ; 024C DD A4
00289   024E DD A5               and  xl                 ; 024E DD A5
00290   0250 DD A5               AND  XL                 ; 0250 DD A5
00291   0252 FD A4               and  yh                 ; 0252 FD A4
00292   0254 FD A4               AND  YH                 ; 0254 FD A4
00293   0256 FD A5               and  yl                 ; 0256 FD A5
00294   0258 FD A5               AND  YL                 ; 0258 FD A5
00295   025A CB 46               bit  0,(hl)             ; 025A CB 46
00296   025C CB 46               BIT  0,(HL)             ; 025C CB 46
00297   025E DD CB 80 46         bit  0,(ix+-128)        ; 025E DD CB 80 46
00298   0262 DD CB 80 46         BIT  0,(IX+-128)        ; 0262 DD CB 80 46
00299   0266 DD CB FF 46         bit  0,(ix+-1)          ; 0266 DD CB FF 46
00300   026A DD CB FF 46         BIT  0,(IX+-1)          ; 026A DD CB FF 46
00301   026E DD CB 00 46         bit  0,(ix+0)           ; 026E DD CB 00 46
00302   0272 DD CB 00 46         BIT  0,(IX+0)           ; 0272 DD CB 00 46
00303   0276 DD CB 7F 46         bit  0,(ix+127)         ; 0276 DD CB 7F 46
00304   027A DD CB 7F 46         BIT  0,(IX+127)         ; 027A DD CB 7F 46
00305   027E FD CB 80 46         bit  0,(iy+-128)        ; 027E FD CB 80 46
00306   0282 FD CB 80 46         BIT  0,(IY+-128)        ; 0282 FD CB 80 46
00307   0286 FD CB FF 46         bit  0,(iy+-1)          ; 0286 FD CB FF 46
00308   028A FD CB FF 46         BIT  0,(IY+-1)          ; 028A FD CB FF 46
00309   028E FD CB 00 46         bit  0,(iy+0)           ; 028E FD CB 00 46
00310   0292 FD CB 00 46         BIT  0,(IY+0)           ; 0292 FD CB 00 46
00311   0296 FD CB 7F 46         bit  0,(iy+127)         ; 0296 FD CB 7F 46
00312   029A FD CB 7F 46         BIT  0,(IY+127)         ; 029A FD CB 7F 46
00313   029E CB 46               bit  0,[hl]             ; 029E CB 46
00314   02A0 CB 46               BIT  0,[HL]             ; 02A0 CB 46
00315   02A2 DD CB 80 46         bit  0,[ix+-128]        ; 02A2 DD CB 80 46
00316   02A6 DD CB 80 46         BIT  0,[IX+-128]        ; 02A6 DD CB 80 46
00317   02AA DD CB FF 46         bit  0,[ix+-1]          ; 02AA DD CB FF 46
00318   02AE DD CB FF 46         BIT  0,[IX+-1]          ; 02AE DD CB FF 46
00319   02B2 DD CB 00 46         bit  0,[ix+0]           ; 02B2 DD CB 00 46
00320   02B6 DD CB 00 46         BIT  0,[IX+0]           ; 02B6 DD CB 00 46
00321   02BA DD CB 7F 46         bit  0,[ix+127]         ; 02BA DD CB 7F 46
00322   02BE DD CB 7F 46         BIT  0,[IX+127]         ; 02BE DD CB 7F 46
00323   02C2 FD CB 80 46         bit  0,[iy+-128]        ; 02C2 FD CB 80 46
00324   02C6 FD CB 80 46         BIT  0,[IY+-128]        ; 02C6 FD CB 80 46
00325   02CA FD CB FF 46         bit  0,[iy+-1]          ; 02CA FD CB FF 46
00326   02CE FD CB FF 46         BIT  0,[IY+-1]          ; 02CE FD CB FF 46
00327   02D2 FD CB 00 46         bit  0,[iy+0]           ; 02D2 FD CB 00 46
00328   02D6 FD CB 00 46         BIT  0,[IY+0]           ; 02D6 FD CB 00 46
00329   02DA FD CB 7F 46         bit  0,[iy+127]         ; 02DA FD CB 7F 46
00330   02DE FD CB 7F 46         BIT  0,[IY+127]         ; 02DE FD CB 7F 46
00331   02E2 CB 47               bit  0,a                ; 02E2 CB 47
00332   02E4 CB 47               BIT  0,A                ; 02E4 CB 47
00333   02E6 CB 40               bit  0,b                ; 02E6 CB 40
00334   02E8 CB 40               BIT  0,B                ; 02E8 CB 40
00335   02EA CB 41               bit  0,c                ; 02EA CB 41
00336   02EC CB 41               BIT  0,C                ; 02EC CB 41
00337   02EE CB 42               bit  0,d                ; 02EE CB 42
00338   02F0 CB 42               BIT  0,D                ; 02F0 CB 42
00339   02F2 CB 43               bit  0,e                ; 02F2 CB 43
00340   02F4 CB 43               BIT  0,E                ; 02F4 CB 43
00341   02F6 CB 44               bit  0,h                ; 02F6 CB 44
00342   02F8 CB 44               BIT  0,H                ; 02F8 CB 44
00343   02FA CB 45               bit  0,l                ; 02FA CB 45
00344   02FC CB 45               BIT  0,L                ; 02FC CB 45
00345   02FE CB 4E               bit  1,(hl)             ; 02FE CB 4E
00346   0300 CB 4E               BIT  1,(HL)             ; 0300 CB 4E
00347   0302 DD CB 80 4E         bit  1,(ix+-128)        ; 0302 DD CB 80 4E
00348   0306 DD CB 80 4E         BIT  1,(IX+-128)        ; 0306 DD CB 80 4E
00349   030A DD CB FF 4E         bit  1,(ix+-1)          ; 030A DD CB FF 4E
00350   030E DD CB FF 4E         BIT  1,(IX+-1)          ; 030E DD CB FF 4E
00351   0312 DD CB 00 4E         bit  1,(ix+0)           ; 0312 DD CB 00 4E
00352   0316 DD CB 00 4E         BIT  1,(IX+0)           ; 0316 DD CB 00 4E
00353   031A DD CB 7F 4E         bit  1,(ix+127)         ; 031A DD CB 7F 4E
00354   031E DD CB 7F 4E         BIT  1,(IX+127)         ; 031E DD CB 7F 4E
00355   0322 FD CB 80 4E         bit  1,(iy+-128)        ; 0322 FD CB 80 4E
00356   0326 FD CB 80 4E         BIT  1,(IY+-128)        ; 0326 FD CB 80 4E
00357   032A FD CB FF 4E         bit  1,(iy+-1)          ; 032A FD CB FF 4E
00358   032E FD CB FF 4E         BIT  1,(IY+-1)          ; 032E FD CB FF 4E
00359   0332 FD CB 00 4E         bit  1,(iy+0)           ; 0332 FD CB 00 4E
00360   0336 FD CB 00 4E         BIT  1,(IY+0)           ; 0336 FD CB 00 4E
00361   033A FD CB 7F 4E         bit  1,(iy+127)         ; 033A FD CB 7F 4E
00362   033E FD CB 7F 4E         BIT  1,(IY+127)         ; 033E FD CB 7F 4E
00363   0342 CB 4E               bit  1,[hl]             ; 0342 CB 4E
00364   0344 CB 4E               BIT  1,[HL]             ; 0344 CB 4E
00365   0346 DD CB 80 4E         bit  1,[ix+-128]        ; 0346 DD CB 80 4E
00366   034A DD CB 80 4E         BIT  1,[IX+-128]        ; 034A DD CB 80 4E
00367   034E DD CB FF 4E         bit  1,[ix+-1]          ; 034E DD CB FF 4E
00368   0352 DD CB FF 4E         BIT  1,[IX+-1]          ; 0352 DD CB FF 4E
00369   0356 DD CB 00 4E         bit  1,[ix+0]           ; 0356 DD CB 00 4E
00370   035A DD CB 00 4E         BIT  1,[IX+0]           ; 035A DD CB 00 4E
00371   035E DD CB 7F 4E         bit  1,[ix+127]         ; 035E DD CB 7F 4E
00372   0362 DD CB 7F 4E         BIT  1,[IX+127]         ; 0362 DD CB 7F 4E
00373   0366 FD CB 80 4E         bit  1,[iy+-128]        ; 0366 FD CB 80 4E
00374   036A FD CB 80 4E         BIT  1,[IY+-128]        ; 036A FD CB 80 4E
00375   036E FD CB FF 4E         bit  1,[iy+-1]          ; 036E FD CB FF 4E
00376   0372 FD CB FF 4E         BIT  1,[IY+-1]          ; 0372 FD CB FF 4E
00377   0376 FD CB 00 4E         bit  1,[iy+0]           ; 0376 FD CB 00 4E
00378   037A FD CB 00 4E         BIT  1,[IY+0]           ; 037A FD CB 00 4E
00379   037E FD CB 7F 4E         bit  1,[iy+127]         ; 037E FD CB 7F 4E
00380   0382 FD CB 7F 4E         BIT  1,[IY+127]         ; 0382 FD CB 7F 4E
00381   0386 CB 4F               bit  1,a                ; 0386 CB 4F
00382   0388 CB 4F               BIT  1,A                ; 0388 CB 4F
00383   038A CB 48               bit  1,b                ; 038A CB 48
00384   038C CB 48               BIT  1,B                ; 038C CB 48
00385   038E CB 49               bit  1,c                ; 038E CB 49
00386   0390 CB 49               BIT  1,C                ; 0390 CB 49
00387   0392 CB 4A               bit  1,d                ; 0392 CB 4A
00388   0394 CB 4A               BIT  1,D                ; 0394 CB 4A
00389   0396 CB 4B               bit  1,e                ; 0396 CB 4B
00390   0398 CB 4B               BIT  1,E                ; 0398 CB 4B
00391   039A CB 4C               bit  1,h                ; 039A CB 4C
00392   039C CB 4C               BIT  1,H                ; 039C CB 4C
00393   039E CB 4D               bit  1,l                ; 039E CB 4D
00394   03A0 CB 4D               BIT  1,L                ; 03A0 CB 4D
00395   03A2 CB 56               bit  2,(hl)             ; 03A2 CB 56
00396   03A4 CB 56               BIT  2,(HL)             ; 03A4 CB 56
00397   03A6 DD CB 80 56         bit  2,(ix+-128)        ; 03A6 DD CB 80 56
00398   03AA DD CB 80 56         BIT  2,(IX+-128)        ; 03AA DD CB 80 56
00399   03AE DD CB FF 56         bit  2,(ix+-1)          ; 03AE DD CB FF 56
00400   03B2 DD CB FF 56         BIT  2,(IX+-1)          ; 03B2 DD CB FF 56
00401   03B6 DD CB 00 56         bit  2,(ix+0)           ; 03B6 DD CB 00 56
00402   03BA DD CB 00 56         BIT  2,(IX+0)           ; 03BA DD CB 00 56
00403   03BE DD CB 7F 56         bit  2,(ix+127)         ; 03BE DD CB 7F 56
00404   03C2 DD CB 7F 56         BIT  2,(IX+127)         ; 03C2 DD CB 7F 56
00405   03C6 FD CB 80 56         bit  2,(iy+-128)        ; 03C6 FD CB 80 56
00406   03CA FD CB 80 56         BIT  2,(IY+-128)        ; 03CA FD CB 80 56
00407   03CE FD CB FF 56         bit  2,(iy+-1)          ; 03CE FD CB FF 56
00408   03D2 FD CB FF 56         BIT  2,(IY+-1)          ; 03D2 FD CB FF 56
00409   03D6 FD CB 00 56         bit  2,(iy+0)           ; 03D6 FD CB 00 56
00410   03DA FD CB 00 56         BIT  2,(IY+0)           ; 03DA FD CB 00 56
00411   03DE FD CB 7F 56         bit  2,(iy+127)         ; 03DE FD CB 7F 56
00412   03E2 FD CB 7F 56         BIT  2,(IY+127)         ; 03E2 FD CB 7F 56
00413   03E6 CB 56               bit  2,[hl]             ; 03E6 CB 56
00414   03E8 CB 56               BIT  2,[HL]             ; 03E8 CB 56
00415   03EA DD CB 80 56         bit  2,[ix+-128]        ; 03EA DD CB 80 56
00416   03EE DD CB 80 56         BIT  2,[IX+-128]        ; 03EE DD CB 80 56
00417   03F2 DD CB FF 56         bit  2,[ix+-1]          ; 03F2 DD CB FF 56
00418   03F6 DD CB FF 56         BIT  2,[IX+-1]          ; 03F6 DD CB FF 56
00419   03FA DD CB 00 56         bit  2,[ix+0]           ; 03FA DD CB 00 56
00420   03FE DD CB 00 56         BIT  2,[IX+0]           ; 03FE DD CB 00 56
00421   0402 DD CB 7F 56         bit  2,[ix+127]         ; 0402 DD CB 7F 56
00422   0406 DD CB 7F 56         BIT  2,[IX+127]         ; 0406 DD CB 7F 56
00423   040A FD CB 80 56         bit  2,[iy+-128]        ; 040A FD CB 80 56
00424   040E FD CB 80 56         BIT  2,[IY+-128]        ; 040E FD CB 80 56
00425   0412 FD CB FF 56         bit  2,[iy+-1]          ; 0412 FD CB FF 56
00426   0416 FD CB FF 56         BIT  2,[IY+-1]          ; 0416 FD CB FF 56
00427   041A FD CB 00 56         bit  2,[iy+0]           ; 041A FD CB 00 56
00428   041E FD CB 00 56         BIT  2,[IY+0]           ; 041E FD CB 00 56
00429   0422 FD CB 7F 56         bit  2,[iy+127]         ; 0422 FD CB 7F 56
00430   0426 FD CB 7F 56         BIT  2,[IY+127]         ; 0426 FD CB 7F 56
00431   042A CB 57               bit  2,a                ; 042A CB 57
00432   042C CB 57               BIT  2,A                ; 042C CB 57
00433   042E CB 50               bit  2,b                ; 042E CB 50
00434   0430 CB 50               BIT  2,B                ; 0430 CB 50
00435   0432 CB 51               bit  2,c                ; 0432 CB 51
00436   0434 CB 51               BIT  2,C                ; 0434 CB 51
00437   0436 CB 52               bit  2,d                ; 0436 CB 52
00438   0438 CB 52               BIT  2,D                ; 0438 CB 52
00439   043A CB 53               bit  2,e                ; 043A CB 53
00440   043C CB 53               BIT  2,E                ; 043C CB 53
00441   043E CB 54               bit  2,h                ; 043E CB 54
00442   0440 CB 54               BIT  2,H                ; 0440 CB 54
00443   0442 CB 55               bit  2,l                ; 0442 CB 55
00444   0444 CB 55               BIT  2,L                ; 0444 CB 55
00445   0446 CB 5E               bit  3,(hl)             ; 0446 CB 5E
00446   0448 CB 5E               BIT  3,(HL)             ; 0448 CB 5E
00447   044A DD CB 80 5E         bit  3,(ix+-128)        ; 044A DD CB 80 5E
00448   044E DD CB 80 5E         BIT  3,(IX+-128)        ; 044E DD CB 80 5E
00449   0452 DD CB FF 5E         bit  3,(ix+-1)          ; 0452 DD CB FF 5E
00450   0456 DD CB FF 5E         BIT  3,(IX+-1)          ; 0456 DD CB FF 5E
00451   045A DD CB 00 5E         bit  3,(ix+0)           ; 045A DD CB 00 5E
00452   045E DD CB 00 5E         BIT  3,(IX+0)           ; 045E DD CB 00 5E
00453   0462 DD CB 7F 5E         bit  3,(ix+127)         ; 0462 DD CB 7F 5E
00454   0466 DD CB 7F 5E         BIT  3,(IX+127)         ; 0466 DD CB 7F 5E
00455   046A FD CB 80 5E         bit  3,(iy+-128)        ; 046A FD CB 80 5E
00456   046E FD CB 80 5E         BIT  3,(IY+-128)        ; 046E FD CB 80 5E
00457   0472 FD CB FF 5E         bit  3,(iy+-1)          ; 0472 FD CB FF 5E
00458   0476 FD CB FF 5E         BIT  3,(IY+-1)          ; 0476 FD CB FF 5E
00459   047A FD CB 00 5E         bit  3,(iy+0)           ; 047A FD CB 00 5E
00460   047E FD CB 00 5E         BIT  3,(IY+0)           ; 047E FD CB 00 5E
00461   0482 FD CB 7F 5E         bit  3,(iy+127)         ; 0482 FD CB 7F 5E
00462   0486 FD CB 7F 5E         BIT  3,(IY+127)         ; 0486 FD CB 7F 5E
00463   048A CB 5E               bit  3,[hl]             ; 048A CB 5E
00464   048C CB 5E               BIT  3,[HL]             ; 048C CB 5E
00465   048E DD CB 80 5E         bit  3,[ix+-128]        ; 048E DD CB 80 5E
00466   0492 DD CB 80 5E         BIT  3,[IX+-128]        ; 0492 DD CB 80 5E
00467   0496 DD CB FF 5E         bit  3,[ix+-1]          ; 0496 DD CB FF 5E
00468   049A DD CB FF 5E         BIT  3,[IX+-1]          ; 049A DD CB FF 5E
00469   049E DD CB 00 5E         bit  3,[ix+0]           ; 049E DD CB 00 5E
00470   04A2 DD CB 00 5E         BIT  3,[IX+0]           ; 04A2 DD CB 00 5E
00471   04A6 DD CB 7F 5E         bit  3,[ix+127]         ; 04A6 DD CB 7F 5E
00472   04AA DD CB 7F 5E         BIT  3,[IX+127]         ; 04AA DD CB 7F 5E
00473   04AE FD CB 80 5E         bit  3,[iy+-128]        ; 04AE FD CB 80 5E
00474   04B2 FD CB 80 5E         BIT  3,[IY+-128]        ; 04B2 FD CB 80 5E
00475   04B6 FD CB FF 5E         bit  3,[iy+-1]          ; 04B6 FD CB FF 5E
00476   04BA FD CB FF 5E         BIT  3,[IY+-1]          ; 04BA FD CB FF 5E
00477   04BE FD CB 00 5E         bit  3,[iy+0]           ; 04BE FD CB 00 5E
00478   04C2 FD CB 00 5E         BIT  3,[IY+0]           ; 04C2 FD CB 00 5E
00479   04C6 FD CB 7F 5E         bit  3,[iy+127]         ; 04C6 FD CB 7F 5E
00480   04CA FD CB 7F 5E         BIT  3,[IY+127]         ; 04CA FD CB 7F 5E
00481   04CE CB 5F               bit  3,a                ; 04CE CB 5F
00482   04D0 CB 5F               BIT  3,A                ; 04D0 CB 5F
00483   04D2 CB 58               bit  3,b                ; 04D2 CB 58
00484   04D4 CB 58               BIT  3,B                ; 04D4 CB 58
00485   04D6 CB 59               bit  3,c                ; 04D6 CB 59
00486   04D8 CB 59               BIT  3,C                ; 04D8 CB 59
00487   04DA CB 5A               bit  3,d                ; 04DA CB 5A
00488   04DC CB 5A               BIT  3,D                ; 04DC CB 5A
00489   04DE CB 5B               bit  3,e                ; 04DE CB 5B
00490   04E0 CB 5B               BIT  3,E                ; 04E0 CB 5B
00491   04E2 CB 5C               bit  3,h                ; 04E2 CB 5C
00492   04E4 CB 5C               BIT  3,H                ; 04E4 CB 5C
00493   04E6 CB 5D               bit  3,l                ; 04E6 CB 5D
00494   04E8 CB 5D               BIT  3,L                ; 04E8 CB 5D
00495   04EA CB 66               bit  4,(hl)             ; 04EA CB 66
00496   04EC CB 66               BIT  4,(HL)             ; 04EC CB 66
00497   04EE DD CB 80 66         bit  4,(ix+-128)        ; 04EE DD CB 80 66
00498   04F2 DD CB 80 66         BIT  4,(IX+-128)        ; 04F2 DD CB 80 66
00499   04F6 DD CB FF 66         bit  4,(ix+-1)          ; 04F6 DD CB FF 66
00500   04FA DD CB FF 66         BIT  4,(IX+-1)          ; 04FA DD CB FF 66
00501   04FE DD CB 00 66         bit  4,(ix+0)           ; 04FE DD CB 00 66
00502   0502 DD CB 00 66         BIT  4,(IX+0)           ; 0502 DD CB 00 66
00503   0506 DD CB 7F 66         bit  4,(ix+127)         ; 0506 DD CB 7F 66
00504   050A DD CB 7F 66         BIT  4,(IX+127)         ; 050A DD CB 7F 66
00505   050E FD CB 80 66         bit  4,(iy+-128)        ; 050E FD CB 80 66
00506   0512 FD CB 80 66         BIT  4,(IY+-128)        ; 0512 FD CB 80 66
00507   0516 FD CB FF 66         bit  4,(iy+-1)          ; 0516 FD CB FF 66
00508   051A FD CB FF 66         BIT  4,(IY+-1)          ; 051A FD CB FF 66
00509   051E FD CB 00 66         bit  4,(iy+0)           ; 051E FD CB 00 66
00510   0522 FD CB 00 66         BIT  4,(IY+0)           ; 0522 FD CB 00 66
00511   0526 FD CB 7F 66         bit  4,(iy+127)         ; 0526 FD CB 7F 66
00512   052A FD CB 7F 66         BIT  4,(IY+127)         ; 052A FD CB 7F 66
00513   052E CB 66               bit  4,[hl]             ; 052E CB 66
00514   0530 CB 66               BIT  4,[HL]             ; 0530 CB 66
00515   0532 DD CB 80 66         bit  4,[ix+-128]        ; 0532 DD CB 80 66
00516   0536 DD CB 80 66         BIT  4,[IX+-128]        ; 0536 DD CB 80 66
00517   053A DD CB FF 66         bit  4,[ix+-1]          ; 053A DD CB FF 66
00518   053E DD CB FF 66         BIT  4,[IX+-1]          ; 053E DD CB FF 66
00519   0542 DD CB 00 66         bit  4,[ix+0]           ; 0542 DD CB 00 66
00520   0546 DD CB 00 66         BIT  4,[IX+0]           ; 0546 DD CB 00 66
00521   054A DD CB 7F 66         bit  4,[ix+127]         ; 054A DD CB 7F 66
00522   054E DD CB 7F 66         BIT  4,[IX+127]         ; 054E DD CB 7F 66
00523   0552 FD CB 80 66         bit  4,[iy+-128]        ; 0552 FD CB 80 66
00524   0556 FD CB 80 66         BIT  4,[IY+-128]        ; 0556 FD CB 80 66
00525   055A FD CB FF 66         bit  4,[iy+-1]          ; 055A FD CB FF 66
00526   055E FD CB FF 66         BIT  4,[IY+-1]          ; 055E FD CB FF 66
00527   0562 FD CB 00 66         bit  4,[iy+0]           ; 0562 FD CB 00 66
00528   0566 FD CB 00 66         BIT  4,[IY+0]           ; 0566 FD CB 00 66
00529   056A FD CB 7F 66         bit  4,[iy+127]         ; 056A FD CB 7F 66
00530   056E FD CB 7F 66         BIT  4,[IY+127]         ; 056E FD CB 7F 66
00531   0572 CB 67               bit  4,a                ; 0572 CB 67
00532   0574 CB 67               BIT  4,A                ; 0574 CB 67
00533   0576 CB 60               bit  4,b                ; 0576 CB 60
00534   0578 CB 60               BIT  4,B                ; 0578 CB 60
00535   057A CB 61               bit  4,c                ; 057A CB 61
00536   057C CB 61               BIT  4,C                ; 057C CB 61
00537   057E CB 62               bit  4,d                ; 057E CB 62
00538   0580 CB 62               BIT  4,D                ; 0580 CB 62
00539   0582 CB 63               bit  4,e                ; 0582 CB 63
00540   0584 CB 63               BIT  4,E                ; 0584 CB 63
00541   0586 CB 64               bit  4,h                ; 0586 CB 64
00542   0588 CB 64               BIT  4,H                ; 0588 CB 64
00543   058A CB 65               bit  4,l                ; 058A CB 65
00544   058C CB 65               BIT  4,L                ; 058C CB 65
00545   058E CB 6E               bit  5,(hl)             ; 058E CB 6E
00546   0590 CB 6E               BIT  5,(HL)             ; 0590 CB 6E
00547   0592 DD CB 80 6E         bit  5,(ix+-128)        ; 0592 DD CB 80 6E
00548   0596 DD CB 80 6E         BIT  5,(IX+-128)        ; 0596 DD CB 80 6E
00549   059A DD CB FF 6E         bit  5,(ix+-1)          ; 059A DD CB FF 6E
00550   059E DD CB FF 6E         BIT  5,(IX+-1)          ; 059E DD CB FF 6E
00551   05A2 DD CB 00 6E         bit  5,(ix+0)           ; 05A2 DD CB 00 6E
00552   05A6 DD CB 00 6E         BIT  5,(IX+0)           ; 05A6 DD CB 00 6E
00553   05AA DD CB 7F 6E         bit  5,(ix+127)         ; 05AA DD CB 7F 6E
00554   05AE DD CB 7F 6E         BIT  5,(IX+127)         ; 05AE DD CB 7F 6E
00555   05B2 FD CB 80 6E         bit  5,(iy+-128)        ; 05B2 FD CB 80 6E
00556   05B6 FD CB 80 6E         BIT  5,(IY+-128)        ; 05B6 FD CB 80 6E
00557   05BA FD CB FF 6E         bit  5,(iy+-1)          ; 05BA FD CB FF 6E
00558   05BE FD CB FF 6E         BIT  5,(IY+-1)          ; 05BE FD CB FF 6E
00559   05C2 FD CB 00 6E         bit  5,(iy+0)           ; 05C2 FD CB 00 6E
00560   05C6 FD CB 00 6E         BIT  5,(IY+0)           ; 05C6 FD CB 00 6E
00561   05CA FD CB 7F 6E         bit  5,(iy+127)         ; 05CA FD CB 7F 6E
00562   05CE FD CB 7F 6E         BIT  5,(IY+127)         ; 05CE FD CB 7F 6E
00563   05D2 CB 6E               bit  5,[hl]             ; 05D2 CB 6E
00564   05D4 CB 6E               BIT  5,[HL]             ; 05D4 CB 6E
00565   05D6 DD CB 80 6E         bit  5,[ix+-128]        ; 05D6 DD CB 80 6E
00566   05DA DD CB 80 6E         BIT  5,[IX+-128]        ; 05DA DD CB 80 6E
00567   05DE DD CB FF 6E         bit  5,[ix+-1]          ; 05DE DD CB FF 6E
00568   05E2 DD CB FF 6E         BIT  5,[IX+-1]          ; 05E2 DD CB FF 6E
00569   05E6 DD CB 00 6E         bit  5,[ix+0]           ; 05E6 DD CB 00 6E
00570   05EA DD CB 00 6E         BIT  5,[IX+0]           ; 05EA DD CB 00 6E
00571   05EE DD CB 7F 6E         bit  5,[ix+127]         ; 05EE DD CB 7F 6E
00572   05F2 DD CB 7F 6E         BIT  5,[IX+127]         ; 05F2 DD CB 7F 6E
00573   05F6 FD CB 80 6E         bit  5,[iy+-128]        ; 05F6 FD CB 80 6E
00574   05FA FD CB 80 6E         BIT  5,[IY+-128]        ; 05FA FD CB 80 6E
00575   05FE FD CB FF 6E         bit  5,[iy+-1]          ; 05FE FD CB FF 6E
00576   0602 FD CB FF 6E         BIT  5,[IY+-1]          ; 0602 FD CB FF 6E
00577   0606 FD CB 00 6E         bit  5,[iy+0]           ; 0606 FD CB 00 6E
00578   060A FD CB 00 6E         BIT  5,[IY+0]           ; 060A FD CB 00 6E
00579   060E FD CB 7F 6E         bit  5,[iy+127]         ; 060E FD CB 7F 6E
00580   0612 FD CB 7F 6E         BIT  5,[IY+127]         ; 0612 FD CB 7F 6E
00581   0616 CB 6F               bit  5,a                ; 0616 CB 6F
00582   0618 CB 6F               BIT  5,A                ; 0618 CB 6F
00583   061A CB 68               bit  5,b                ; 061A CB 68
00584   061C CB 68               BIT  5,B                ; 061C CB 68
00585   061E CB 69               bit  5,c                ; 061E CB 69
00586   0620 CB 69               BIT  5,C                ; 0620 CB 69
00587   0622 CB 6A               bit  5,d                ; 0622 CB 6A
00588   0624 CB 6A               BIT  5,D                ; 0624 CB 6A
00589   0626 CB 6B               bit  5,e                ; 0626 CB 6B
00590   0628 CB 6B               BIT  5,E                ; 0628 CB 6B
00591   062A CB 6C               bit  5,h                ; 062A CB 6C
00592   062C CB 6C               BIT  5,H                ; 062C CB 6C
00593   062E CB 6D               bit  5,l                ; 062E CB 6D
00594   0630 CB 6D               BIT  5,L                ; 0630 CB 6D
00595   0632 CB 76               bit  6,(hl)             ; 0632 CB 76
00596   0634 CB 76               BIT  6,(HL)             ; 0634 CB 76
00597   0636 DD CB 80 76         bit  6,(ix+-128)        ; 0636 DD CB 80 76
00598   063A DD CB 80 76         BIT  6,(IX+-128)        ; 063A DD CB 80 76
00599   063E DD CB FF 76         bit  6,(ix+-1)          ; 063E DD CB FF 76
00600   0642 DD CB FF 76         BIT  6,(IX+-1)          ; 0642 DD CB FF 76
00601   0646 DD CB 00 76         bit  6,(ix+0)           ; 0646 DD CB 00 76
00602   064A DD CB 00 76         BIT  6,(IX+0)           ; 064A DD CB 00 76
00603   064E DD CB 7F 76         bit  6,(ix+127)         ; 064E DD CB 7F 76
00604   0652 DD CB 7F 76         BIT  6,(IX+127)         ; 0652 DD CB 7F 76
00605   0656 FD CB 80 76         bit  6,(iy+-128)        ; 0656 FD CB 80 76
00606   065A FD CB 80 76         BIT  6,(IY+-128)        ; 065A FD CB 80 76
00607   065E FD CB FF 76         bit  6,(iy+-1)          ; 065E FD CB FF 76
00608   0662 FD CB FF 76         BIT  6,(IY+-1)          ; 0662 FD CB FF 76
00609   0666 FD CB 00 76         bit  6,(iy+0)           ; 0666 FD CB 00 76
00610   066A FD CB 00 76         BIT  6,(IY+0)           ; 066A FD CB 00 76
00611   066E FD CB 7F 76         bit  6,(iy+127)         ; 066E FD CB 7F 76
00612   0672 FD CB 7F 76         BIT  6,(IY+127)         ; 0672 FD CB 7F 76
00613   0676 CB 76               bit  6,[hl]             ; 0676 CB 76
00614   0678 CB 76               BIT  6,[HL]             ; 0678 CB 76
00615   067A DD CB 80 76         bit  6,[ix+-128]        ; 067A DD CB 80 76
00616   067E DD CB 80 76         BIT  6,[IX+-128]        ; 067E DD CB 80 76
00617   0682 DD CB FF 76         bit  6,[ix+-1]          ; 0682 DD CB FF 76
00618   0686 DD CB FF 76         BIT  6,[IX+-1]          ; 0686 DD CB FF 76
00619   068A DD CB 00 76         bit  6,[ix+0]           ; 068A DD CB 00 76
00620   068E DD CB 00 76         BIT  6,[IX+0]           ; 068E DD CB 00 76
00621   0692 DD CB 7F 76         bit  6,[ix+127]         ; 0692 DD CB 7F 76
00622   0696 DD CB 7F 76         BIT  6,[IX+127]         ; 0696 DD CB 7F 76
00623   069A FD CB 80 76         bit  6,[iy+-128]        ; 069A FD CB 80 76
00624   069E FD CB 80 76         BIT  6,[IY+-128]        ; 069E FD CB 80 76
00625   06A2 FD CB FF 76         bit  6,[iy+-1]          ; 06A2 FD CB FF 76
00626   06A6 FD CB FF 76         BIT  6,[IY+-1]          ; 06A6 FD CB FF 76
00627   06AA FD CB 00 76         bit  6,[iy+0]           ; 06AA FD CB 00 76
00628   06AE FD CB 00 76         BIT  6,[IY+0]           ; 06AE FD CB 00 76
00629   06B2 FD CB 7F 76         bit  6,[iy+127]         ; 06B2 FD CB 7F 76
00630   06B6 FD CB 7F 76         BIT  6,[IY+127]         ; 06B6 FD CB 7F 76
00631   06BA CB 77               bit  6,a                ; 06BA CB 77
00632   06BC CB 77               BIT  6,A                ; 06BC CB 77
00633   06BE CB 70               bit  6,b                ; 06BE CB 70
00634   06C0 CB 70               BIT  6,B                ; 06C0 CB 70
00635   06C2 CB 71               bit  6,c                ; 06C2 CB 71
00636   06C4 CB 71               BIT  6,C                ; 06C4 CB 71
00637   06C6 CB 72               bit  6,d                ; 06C6 CB 72
00638   06C8 CB 72               BIT  6,D                ; 06C8 CB 72
00639   06CA CB 73               bit  6,e                ; 06CA CB 73
00640   06CC CB 73               BIT  6,E                ; 06CC CB 73
00641   06CE CB 74               bit  6,h                ; 06CE CB 74
00642   06D0 CB 74               BIT  6,H                ; 06D0 CB 74
00643   06D2 CB 75               bit  6,l                ; 06D2 CB 75
00644   06D4 CB 75               BIT  6,L                ; 06D4 CB 75
00645   06D6 CB 7E               bit  7,(hl)             ; 06D6 CB 7E
00646   06D8 CB 7E               BIT  7,(HL)             ; 06D8 CB 7E
00647   06DA DD CB 80 7E         bit  7,(ix+-128)        ; 06DA DD CB 80 7E
00648   06DE DD CB 80 7E         BIT  7,(IX+-128)        ; 06DE DD CB 80 7E
00649   06E2 DD CB FF 7E         bit  7,(ix+-1)          ; 06E2 DD CB FF 7E
00650   06E6 DD CB FF 7E         BIT  7,(IX+-1)          ; 06E6 DD CB FF 7E
00651   06EA DD CB 00 7E         bit  7,(ix+0)           ; 06EA DD CB 00 7E
00652   06EE DD CB 00 7E         BIT  7,(IX+0)           ; 06EE DD CB 00 7E
00653   06F2 DD CB 7F 7E         bit  7,(ix+127)         ; 06F2 DD CB 7F 7E
00654   06F6 DD CB 7F 7E         BIT  7,(IX+127)         ; 06F6 DD CB 7F 7E
00655   06FA FD CB 80 7E         bit  7,(iy+-128)        ; 06FA FD CB 80 7E
00656   06FE FD CB 80 7E         BIT  7,(IY+-128)        ; 06FE FD CB 80 7E
00657   0702 FD CB FF 7E         bit  7,(iy+-1)          ; 0702 FD CB FF 7E
00658   0706 FD CB FF 7E         BIT  7,(IY+-1)          ; 0706 FD CB FF 7E
00659   070A FD CB 00 7E         bit  7,(iy+0)           ; 070A FD CB 00 7E
00660   070E FD CB 00 7E         BIT  7,(IY+0)           ; 070E FD CB 00 7E
00661   0712 FD CB 7F 7E         bit  7,(iy+127)         ; 0712 FD CB 7F 7E
00662   0716 FD CB 7F 7E         BIT  7,(IY+127)         ; 0716 FD CB 7F 7E
00663   071A CB 7E               bit  7,[hl]             ; 071A CB 7E
00664   071C CB 7E               BIT  7,[HL]             ; 071C CB 7E
00665   071E DD CB 80 7E         bit  7,[ix+-128]        ; 071E DD CB 80 7E
00666   0722 DD CB 80 7E         BIT  7,[IX+-128]        ; 0722 DD CB 80 7E
00667   0726 DD CB FF 7E         bit  7,[ix+-1]          ; 0726 DD CB FF 7E
00668   072A DD CB FF 7E         BIT  7,[IX+-1]          ; 072A DD CB FF 7E
00669   072E DD CB 00 7E         bit  7,[ix+0]           ; 072E DD CB 00 7E
00670   0732 DD CB 00 7E         BIT  7,[IX+0]           ; 0732 DD CB 00 7E
00671   0736 DD CB 7F 7E         bit  7,[ix+127]         ; 0736 DD CB 7F 7E
00672   073A DD CB 7F 7E         BIT  7,[IX+127]         ; 073A DD CB 7F 7E
00673   073E FD CB 80 7E         bit  7,[iy+-128]        ; 073E FD CB 80 7E
00674   0742 FD CB 80 7E         BIT  7,[IY+-128]        ; 0742 FD CB 80 7E
00675   0746 FD CB FF 7E         bit  7,[iy+-1]          ; 0746 FD CB FF 7E
00676   074A FD CB FF 7E         BIT  7,[IY+-1]          ; 074A FD CB FF 7E
00677   074E FD CB 00 7E         bit  7,[iy+0]           ; 074E FD CB 00 7E
00678   0752 FD CB 00 7E         BIT  7,[IY+0]           ; 0752 FD CB 00 7E
00679   0756 FD CB 7F 7E         bit  7,[iy+127]         ; 0756 FD CB 7F 7E
00680   075A FD CB 7F 7E         BIT  7,[IY+127]         ; 075A FD CB 7F 7E
00681   075E CB 7F               bit  7,a                ; 075E CB 7F
00682   0760 CB 7F               BIT  7,A                ; 0760 CB 7F
00683   0762 CB 78               bit  7,b                ; 0762 CB 78
00684   0764 CB 78               BIT  7,B                ; 0764 CB 78
00685   0766 CB 79               bit  7,c                ; 0766 CB 79
00686   0768 CB 79               BIT  7,C                ; 0768 CB 79
00687   076A CB 7A               bit  7,d                ; 076A CB 7A
00688   076C CB 7A               BIT  7,D                ; 076C CB 7A
00689   076E CB 7B               bit  7,e                ; 076E CB 7B
00690   0770 CB 7B               BIT  7,E                ; 0770 CB 7B
00691   0772 CB 7C               bit  7,h                ; 0772 CB 7C
00692   0774 CB 7C               BIT  7,H                ; 0774 CB 7C
00693   0776 CB 7D               bit  7,l                ; 0776 CB 7D
00694   0778 CB 7D               BIT  7,L                ; 0778 CB 7D
00695   077A CD 00 80            call -32768             ; 077A CD 00 80
00696   077D CD 00 80            CALL -32768             ; 077D CD 00 80
00697   0780 CD 80 FF            call -128               ; 0780 CD 80 FF
00698   0783 CD 80 FF            CALL -128               ; 0783 CD 80 FF
00699   0786 CD FF FF            call -1                 ; 0786 CD FF FF
00700   0789 CD FF FF            CALL -1                 ; 0789 CD FF FF
00701   078C CD 00 00            call 0                  ; 078C CD 00 00
00702   078F CD 00 00            CALL 0                  ; 078F CD 00 00
00703   0792 CD 7F 00            call 127                ; 0792 CD 7F 00
00704   0795 CD 7F 00            CALL 127                ; 0795 CD 7F 00
00705   0798 CD FF 00            call 255                ; 0798 CD FF 00
00706   079B CD FF 00            CALL 255                ; 079B CD FF 00
00707   079E CD FF 7F            call 32767              ; 079E CD FF 7F
00708   07A1 CD FF 7F            CALL 32767              ; 07A1 CD FF 7F
00709   07A4 CD FF FF            call 65535              ; 07A4 CD FF FF
00710   07A7 CD FF FF            CALL 65535              ; 07A7 CD FF FF
00711   07AA DC 00 80            call c,-32768           ; 07AA DC 00 80
00712   07AD DC 00 80            CALL C,-32768           ; 07AD DC 00 80
00713   07B0 DC 80 FF            call c,-128             ; 07B0 DC 80 FF
00714   07B3 DC 80 FF            CALL C,-128             ; 07B3 DC 80 FF
00715   07B6 DC FF FF            call c,-1               ; 07B6 DC FF FF
00716   07B9 DC FF FF            CALL C,-1               ; 07B9 DC FF FF
00717   07BC DC 00 00            call c,0                ; 07BC DC 00 00
00718   07BF DC 00 00            CALL C,0                ; 07BF DC 00 00
00719   07C2 DC 7F 00            call c,127              ; 07C2 DC 7F 00
00720   07C5 DC 7F 00            CALL C,127              ; 07C5 DC 7F 00
00721   07C8 DC FF 00            call c,255              ; 07C8 DC FF 00
00722   07CB DC FF 00            CALL C,255              ; 07CB DC FF 00
00723   07CE DC FF 7F            call c,32767            ; 07CE DC FF 7F
00724   07D1 DC FF 7F            CALL C,32767            ; 07D1 DC FF 7F
00725   07D4 DC FF FF            call c,65535            ; 07D4 DC FF FF
00726   07D7 DC FF FF            CALL C,65535            ; 07D7 DC FF FF
00727   07DA FC 00 80            call m,-32768           ; 07DA FC 00 80
00728   07DD FC 00 80            CALL M,-32768           ; 07DD FC 00 80
00729   07E0 FC 80 FF            call m,-128             ; 07E0 FC 80 FF
00730   07E3 FC 80 FF            CALL M,-128             ; 07E3 FC 80 FF
00731   07E6 FC FF FF            call m,-1               ; 07E6 FC FF FF
00732   07E9 FC FF FF            CALL M,-1               ; 07E9 FC FF FF
00733   07EC FC 00 00            call m,0                ; 07EC FC 00 00
00734   07EF FC 00 00            CALL M,0                ; 07EF FC 00 00
00735   07F2 FC 7F 00            call m,127              ; 07F2 FC 7F 00
00736   07F5 FC 7F 00            CALL M,127              ; 07F5 FC 7F 00
00737   07F8 FC FF 00            call m,255              ; 07F8 FC FF 00
00738   07FB FC FF 00            CALL M,255              ; 07FB FC FF 00
00739   07FE FC FF 7F            call m,32767            ; 07FE FC FF 7F
00740   0801 FC FF 7F            CALL M,32767            ; 0801 FC FF 7F
00741   0804 FC FF FF            call m,65535            ; 0804 FC FF FF
00742   0807 FC FF FF            CALL M,65535            ; 0807 FC FF FF
00743   080A D4 00 80            call nc,-32768          ; 080A D4 00 80
00744   080D D4 00 80            CALL NC,-32768          ; 080D D4 00 80
00745   0810 D4 80 FF            call nc,-128            ; 0810 D4 80 FF
00746   0813 D4 80 FF            CALL NC,-128            ; 0813 D4 80 FF
00747   0816 D4 FF FF            call nc,-1              ; 0816 D4 FF FF
00748   0819 D4 FF FF            CALL NC,-1              ; 0819 D4 FF FF
00749   081C D4 00 00            call nc,0               ; 081C D4 00 00
00750   081F D4 00 00            CALL NC,0               ; 081F D4 00 00
00751   0822 D4 7F 00            call nc,127             ; 0822 D4 7F 00
00752   0825 D4 7F 00            CALL NC,127             ; 0825 D4 7F 00
00753   0828 D4 FF 00            call nc,255             ; 0828 D4 FF 00
00754   082B D4 FF 00            CALL NC,255             ; 082B D4 FF 00
00755   082E D4 FF 7F            call nc,32767           ; 082E D4 FF 7F
00756   0831 D4 FF 7F            CALL NC,32767           ; 0831 D4 FF 7F
00757   0834 D4 FF FF            call nc,65535           ; 0834 D4 FF FF
00758   0837 D4 FF FF            CALL NC,65535           ; 0837 D4 FF FF
00759   083A C4 00 80            call nz,-32768          ; 083A C4 00 80
00760   083D C4 00 80            CALL NZ,-32768          ; 083D C4 00 80
00761   0840 C4 80 FF            call nz,-128            ; 0840 C4 80 FF
00762   0843 C4 80 FF            CALL NZ,-128            ; 0843 C4 80 FF
00763   0846 C4 FF FF            call nz,-1              ; 0846 C4 FF FF
00764   0849 C4 FF FF            CALL NZ,-1              ; 0849 C4 FF FF
00765   084C C4 00 00            call nz,0               ; 084C C4 00 00
00766   084F C4 00 00            CALL NZ,0               ; 084F C4 00 00
00767   0852 C4 7F 00            call nz,127             ; 0852 C4 7F 00
00768   0855 C4 7F 00            CALL NZ,127             ; 0855 C4 7F 00
00769   0858 C4 FF 00            call nz,255             ; 0858 C4 FF 00
00770   085B C4 FF 00            CALL NZ,255             ; 085B C4 FF 00
00771   085E C4 FF 7F            call nz,32767           ; 085E C4 FF 7F
00772   0861 C4 FF 7F            CALL NZ,32767           ; 0861 C4 FF 7F
00773   0864 C4 FF FF            call nz,65535           ; 0864 C4 FF FF
00774   0867 C4 FF FF            CALL NZ,65535           ; 0867 C4 FF FF
00775   086A F4 00 80            call p,-32768           ; 086A F4 00 80
00776   086D F4 00 80            CALL P,-32768           ; 086D F4 00 80
00777   0870 F4 80 FF            call p,-128             ; 0870 F4 80 FF
00778   0873 F4 80 FF            CALL P,-128             ; 0873 F4 80 FF
00779   0876 F4 FF FF            call p,-1               ; 0876 F4 FF FF
00780   0879 F4 FF FF            CALL P,-1               ; 0879 F4 FF FF
00781   087C F4 00 00            call p,0                ; 087C F4 00 00
00782   087F F4 00 00            CALL P,0                ; 087F F4 00 00
00783   0882 F4 7F 00            call p,127              ; 0882 F4 7F 00
00784   0885 F4 7F 00            CALL P,127              ; 0885 F4 7F 00
00785   0888 F4 FF 00            call p,255              ; 0888 F4 FF 00
00786   088B F4 FF 00            CALL P,255              ; 088B F4 FF 00
00787   088E F4 FF 7F            call p,32767            ; 088E F4 FF 7F
00788   0891 F4 FF 7F            CALL P,32767            ; 0891 F4 FF 7F
00789   0894 F4 FF FF            call p,65535            ; 0894 F4 FF FF
00790   0897 F4 FF FF            CALL P,65535            ; 0897 F4 FF FF
00791   089A EC 00 80            call pe,-32768          ; 089A EC 00 80
00792   089D EC 00 80            CALL PE,-32768          ; 089D EC 00 80
00793   08A0 EC 80 FF            call pe,-128            ; 08A0 EC 80 FF
00794   08A3 EC 80 FF            CALL PE,-128            ; 08A3 EC 80 FF
00795   08A6 EC FF FF            call pe,-1              ; 08A6 EC FF FF
00796   08A9 EC FF FF            CALL PE,-1              ; 08A9 EC FF FF
00797   08AC EC 00 00            call pe,0               ; 08AC EC 00 00
00798   08AF EC 00 00            CALL PE,0               ; 08AF EC 00 00
00799   08B2 EC 7F 00            call pe,127             ; 08B2 EC 7F 00
00800   08B5 EC 7F 00            CALL PE,127             ; 08B5 EC 7F 00
00801   08B8 EC FF 00            call pe,255             ; 08B8 EC FF 00
00802   08BB EC FF 00            CALL PE,255             ; 08BB EC FF 00
00803   08BE EC FF 7F            call pe,32767           ; 08BE EC FF 7F
00804   08C1 EC FF 7F            CALL PE,32767           ; 08C1 EC FF 7F
00805   08C4 EC FF FF            call pe,65535           ; 08C4 EC FF FF
00806   08C7 EC FF FF            CALL PE,65535           ; 08C7 EC FF FF
00807   08CA E4 00 80            call po,-32768          ; 08CA E4 00 80
00808   08CD E4 00 80            CALL PO,-32768          ; 08CD E4 00 80
00809   08D0 E4 80 FF            call po,-128            ; 08D0 E4 80 FF
00810   08D3 E4 80 FF            CALL PO,-128            ; 08D3 E4 80 FF
00811   08D6 E4 FF FF            call po,-1              ; 08D6 E4 FF FF
00812   08D9 E4 FF FF            CALL PO,-1              ; 08D9 E4 FF FF
00813   08DC E4 00 00            call po,0               ; 08DC E4 00 00
00814   08DF E4 00 00            CALL PO,0               ; 08DF E4 00 00
00815   08E2 E4 7F 00            call po,127             ; 08E2 E4 7F 00
00816   08E5 E4 7F 00            CALL PO,127             ; 08E5 E4 7F 00
00817   08E8 E4 FF 00            call po,255             ; 08E8 E4 FF 00
00818   08EB E4 FF 00            CALL PO,255             ; 08EB E4 FF 00
00819   08EE E4 FF 7F            call po,32767           ; 08EE E4 FF 7F
00820   08F1 E4 FF 7F            CALL PO,32767           ; 08F1 E4 FF 7F
00821   08F4 E4 FF FF            call po,65535           ; 08F4 E4 FF FF
00822   08F7 E4 FF FF            CALL PO,65535           ; 08F7 E4 FF FF
00823   08FA CC 00 80            call z,-32768           ; 08FA CC 00 80
00824   08FD CC 00 80            CALL Z,-32768           ; 08FD CC 00 80
00825   0900 CC 80 FF            call z,-128             ; 0900 CC 80 FF
00826   0903 CC 80 FF            CALL Z,-128             ; 0903 CC 80 FF
00827   0906 CC FF FF            call z,-1               ; 0906 CC FF FF
00828   0909 CC FF FF            CALL Z,-1               ; 0909 CC FF FF
00829   090C CC 00 00            call z,0                ; 090C CC 00 00
00830   090F CC 00 00            CALL Z,0                ; 090F CC 00 00
00831   0912 CC 7F 00            call z,127              ; 0912 CC 7F 00
00832   0915 CC 7F 00            CALL Z,127              ; 0915 CC 7F 00
00833   0918 CC FF 00            call z,255              ; 0918 CC FF 00
00834   091B CC FF 00            CALL Z,255              ; 091B CC FF 00
00835   091E CC FF 7F            call z,32767            ; 091E CC FF 7F
00836   0921 CC FF 7F            CALL Z,32767            ; 0921 CC FF 7F
00837   0924 CC FF FF            call z,65535            ; 0924 CC FF FF
00838   0927 CC FF FF            CALL Z,65535            ; 0927 CC FF FF
00839   092A 3F                  ccf                     ; 092A 3F
00840   092B 3F                  CCF                     ; 092B 3F
00841   092C BE                  cp   (hl)               ; 092C BE
00842   092D BE                  CP   (HL)               ; 092D BE
00843   092E DD BE 80            cp   (ix+-128)          ; 092E DD BE 80
00844   0931 DD BE 80            CP   (IX+-128)          ; 0931 DD BE 80
00845   0934 DD BE FF            cp   (ix+-1)            ; 0934 DD BE FF
00846   0937 DD BE FF            CP   (IX+-1)            ; 0937 DD BE FF
00847   093A DD BE 00            cp   (ix+0)             ; 093A DD BE 00
00848   093D DD BE 00            CP   (IX+0)             ; 093D DD BE 00
00849   0940 DD BE 7F            cp   (ix+127)           ; 0940 DD BE 7F
00850   0943 DD BE 7F            CP   (IX+127)           ; 0943 DD BE 7F
00851   0946 FD BE 80            cp   (iy+-128)          ; 0946 FD BE 80
00852   0949 FD BE 80            CP   (IY+-128)          ; 0949 FD BE 80
00853   094C FD BE FF            cp   (iy+-1)            ; 094C FD BE FF
00854   094F FD BE FF            CP   (IY+-1)            ; 094F FD BE FF
00855   0952 FD BE 00            cp   (iy+0)             ; 0952 FD BE 00
00856   0955 FD BE 00            CP   (IY+0)             ; 0955 FD BE 00
00857   0958 FD BE 7F            cp   (iy+127)           ; 0958 FD BE 7F
00858   095B FD BE 7F            CP   (IY+127)           ; 095B FD BE 7F
00859   095E FE 80               cp   -128               ; 095E FE 80
00860   0960 FE 80               CP   -128               ; 0960 FE 80
00861   0962 FE FF               cp   -1                 ; 0962 FE FF
00862   0964 FE FF               CP   -1                 ; 0964 FE FF
00863   0966 FE 00               cp   0                  ; 0966 FE 00
00864   0968 FE 00               CP   0                  ; 0968 FE 00
00865   096A FE 7F               cp   127                ; 096A FE 7F
00866   096C FE 7F               CP   127                ; 096C FE 7F
00867   096E FE FF               cp   255                ; 096E FE FF
00868   0970 FE FF               CP   255                ; 0970 FE FF
00869   0972 BE                  cp   [hl]               ; 0972 BE
00870   0973 BE                  CP   [HL]               ; 0973 BE
00871   0974 DD BE 80            cp   [ix+-128]          ; 0974 DD BE 80
00872   0977 DD BE 80            CP   [IX+-128]          ; 0977 DD BE 80
00873   097A DD BE FF            cp   [ix+-1]            ; 097A DD BE FF
00874   097D DD BE FF            CP   [IX+-1]            ; 097D DD BE FF
00875   0980 DD BE 00            cp   [ix+0]             ; 0980 DD BE 00
00876   0983 DD BE 00            CP   [IX+0]             ; 0983 DD BE 00
00877   0986 DD BE 7F            cp   [ix+127]           ; 0986 DD BE 7F
00878   0989 DD BE 7F            CP   [IX+127]           ; 0989 DD BE 7F
00879   098C FD BE 80            cp   [iy+-128]          ; 098C FD BE 80
00880   098F FD BE 80            CP   [IY+-128]          ; 098F FD BE 80
00881   0992 FD BE FF            cp   [iy+-1]            ; 0992 FD BE FF
00882   0995 FD BE FF            CP   [IY+-1]            ; 0995 FD BE FF
00883   0998 FD BE 00            cp   [iy+0]             ; 0998 FD BE 00
00884   099B FD BE 00            CP   [IY+0]             ; 099B FD BE 00
00885   099E FD BE 7F            cp   [iy+127]           ; 099E FD BE 7F
00886   09A1 FD BE 7F            CP   [IY+127]           ; 09A1 FD BE 7F
00887   09A4 BF                  cp   a                  ; 09A4 BF
00888   09A5 BF                  CP   A                  ; 09A5 BF
00889   09A6 B8                  cp   b                  ; 09A6 B8
00890   09A7 B8                  CP   B                  ; 09A7 B8
00891   09A8 B9                  cp   c                  ; 09A8 B9
00892   09A9 B9                  CP   C                  ; 09A9 B9
00893   09AA BA                  cp   d                  ; 09AA BA
00894   09AB BA                  CP   D                  ; 09AB BA
00895   09AC BB                  cp   e                  ; 09AC BB
00896   09AD BB                  CP   E                  ; 09AD BB
00897   09AE BC                  cp   h                  ; 09AE BC
00898   09AF BC                  CP   H                  ; 09AF BC
00899   09B0 DD BC               cp   hx                 ; 09B0 DD BC
00900   09B2 DD BC               CP   HX                 ; 09B2 DD BC
00901   09B4 FD BC               cp   hy                 ; 09B4 FD BC
00902   09B6 FD BC               CP   HY                 ; 09B6 FD BC
00903   09B8 DD BC               cp   ixh                ; 09B8 DD BC
00904   09BA DD BC               CP   IXH                ; 09BA DD BC
00905   09BC DD BD               cp   ixl                ; 09BC DD BD
00906   09BE DD BD               CP   IXL                ; 09BE DD BD
00907   09C0 FD BC               cp   iyh                ; 09C0 FD BC
00908   09C2 FD BC               CP   IYH                ; 09C2 FD BC
00909   09C4 FD BD               cp   iyl                ; 09C4 FD BD
00910   09C6 FD BD               CP   IYL                ; 09C6 FD BD
00911   09C8 BD                  cp   l                  ; 09C8 BD
00912   09C9 BD                  CP   L                  ; 09C9 BD
00913   09CA DD BD               cp   lx                 ; 09CA DD BD
00914   09CC DD BD               CP   LX                 ; 09CC DD BD
00915   09CE FD BD               cp   ly                 ; 09CE FD BD
00916   09D0 FD BD               CP   LY                 ; 09D0 FD BD
00917   09D2 DD BC               cp   xh                 ; 09D2 DD BC
00918   09D4 DD BC               CP   XH                 ; 09D4 DD BC
00919   09D6 DD BD               cp   xl                 ; 09D6 DD BD
00920   09D8 DD BD               CP   XL                 ; 09D8 DD BD
00921   09DA FD BC               cp   yh                 ; 09DA FD BC
00922   09DC FD BC               CP   YH                 ; 09DC FD BC
00923   09DE FD BD               cp   yl                 ; 09DE FD BD
00924   09E0 FD BD               CP   YL                 ; 09E0 FD BD
00925   09E2 ED A9               cpd                     ; 09E2 ED A9
00926   09E4 ED A9               CPD                     ; 09E4 ED A9
00927   09E6 ED B9               cpdr                    ; 09E6 ED B9
00928   09E8 ED B9               CPDR                    ; 09E8 ED B9
00929   09EA ED A1               cpi                     ; 09EA ED A1
00930   09EC ED A1               CPI                     ; 09EC ED A1
00931   09EE ED B1               cpir                    ; 09EE ED B1
00932   09F0 ED B1               CPIR                    ; 09F0 ED B1
00933   09F2 2F                  cpl                     ; 09F2 2F
00934   09F3 2F                  CPL                     ; 09F3 2F
00935   09F4 27                  daa                     ; 09F4 27
00936   09F5 27                  DAA                     ; 09F5 27
00937   09F6 35                  dec  (hl)               ; 09F6 35
00938   09F7 35                  DEC  (HL)               ; 09F7 35
00939   09F8 DD 35 80            dec  (ix+-128)          ; 09F8 DD 35 80
00940   09FB DD 35 80            DEC  (IX+-128)          ; 09FB DD 35 80
00941   09FE DD 35 FF            dec  (ix+-1)            ; 09FE DD 35 FF
00942   0A01 DD 35 FF            DEC  (IX+-1)            ; 0A01 DD 35 FF
00943   0A04 DD 35 00            dec  (ix+0)             ; 0A04 DD 35 00
00944   0A07 DD 35 00            DEC  (IX+0)             ; 0A07 DD 35 00
00945   0A0A DD 35 7F            dec  (ix+127)           ; 0A0A DD 35 7F
00946   0A0D DD 35 7F            DEC  (IX+127)           ; 0A0D DD 35 7F
00947   0A10 FD 35 80            dec  (iy+-128)          ; 0A10 FD 35 80
00948   0A13 FD 35 80            DEC  (IY+-128)          ; 0A13 FD 35 80
00949   0A16 FD 35 FF            dec  (iy+-1)            ; 0A16 FD 35 FF
00950   0A19 FD 35 FF            DEC  (IY+-1)            ; 0A19 FD 35 FF
00951   0A1C FD 35 00            dec  (iy+0)             ; 0A1C FD 35 00
00952   0A1F FD 35 00            DEC  (IY+0)             ; 0A1F FD 35 00
00953   0A22 FD 35 7F            dec  (iy+127)           ; 0A22 FD 35 7F
00954   0A25 FD 35 7F            DEC  (IY+127)           ; 0A25 FD 35 7F
00955   0A28 35                  dec  [hl]               ; 0A28 35
00956   0A29 35                  DEC  [HL]               ; 0A29 35
00957   0A2A DD 35 80            dec  [ix+-128]          ; 0A2A DD 35 80
00958   0A2D DD 35 80            DEC  [IX+-128]          ; 0A2D DD 35 80
00959   0A30 DD 35 FF            dec  [ix+-1]            ; 0A30 DD 35 FF
00960   0A33 DD 35 FF            DEC  [IX+-1]            ; 0A33 DD 35 FF
00961   0A36 DD 35 00            dec  [ix+0]             ; 0A36 DD 35 00
00962   0A39 DD 35 00            DEC  [IX+0]             ; 0A39 DD 35 00
00963   0A3C DD 35 7F            dec  [ix+127]           ; 0A3C DD 35 7F
00964   0A3F DD 35 7F            DEC  [IX+127]           ; 0A3F DD 35 7F
00965   0A42 FD 35 80            dec  [iy+-128]          ; 0A42 FD 35 80
00966   0A45 FD 35 80            DEC  [IY+-128]          ; 0A45 FD 35 80
00967   0A48 FD 35 FF            dec  [iy+-1]            ; 0A48 FD 35 FF
00968   0A4B FD 35 FF            DEC  [IY+-1]            ; 0A4B FD 35 FF
00969   0A4E FD 35 00            dec  [iy+0]             ; 0A4E FD 35 00
00970   0A51 FD 35 00            DEC  [IY+0]             ; 0A51 FD 35 00
00971   0A54 FD 35 7F            dec  [iy+127]           ; 0A54 FD 35 7F
00972   0A57 FD 35 7F            DEC  [IY+127]           ; 0A57 FD 35 7F
00973   0A5A 3D                  dec  a                  ; 0A5A 3D
00974   0A5B 3D                  DEC  A                  ; 0A5B 3D
00975   0A5C 05                  dec  b                  ; 0A5C 05
00976   0A5D 05                  DEC  B                  ; 0A5D 05
00977   0A5E 0B                  dec  bc                 ; 0A5E 0B
00978   0A5F 0B                  DEC  BC                 ; 0A5F 0B
00979   0A60 0D                  dec  c                  ; 0A60 0D
00980   0A61 0D                  DEC  C                  ; 0A61 0D
00981   0A62 15                  dec  d                  ; 0A62 15
00982   0A63 15                  DEC  D                  ; 0A63 15
00983   0A64 1B                  dec  de                 ; 0A64 1B
00984   0A65 1B                  DEC  DE                 ; 0A65 1B
00985   0A66 1D                  dec  e                  ; 0A66 1D
00986   0A67 1D                  DEC  E                  ; 0A67 1D
00987   0A68 25                  dec  h                  ; 0A68 25
00988   0A69 25                  DEC  H                  ; 0A69 25
00989   0A6A 2B                  dec  hl                 ; 0A6A 2B
00990   0A6B 2B                  DEC  HL                 ; 0A6B 2B
00991   0A6C DD 25               dec  hx                 ; 0A6C DD 25
00992   0A6E DD 25               DEC  HX                 ; 0A6E DD 25
00993   0A70 FD 25               dec  hy                 ; 0A70 FD 25
00994   0A72 FD 25               DEC  HY                 ; 0A72 FD 25
00995   0A74 DD 2B               dec  ix                 ; 0A74 DD 2B
00996   0A76 DD 2B               DEC  IX                 ; 0A76 DD 2B
00997   0A78 DD 25               dec  ixh                ; 0A78 DD 25
00998   0A7A DD 25               DEC  IXH                ; 0A7A DD 25
00999   0A7C DD 2D               dec  ixl                ; 0A7C DD 2D
01000   0A7E DD 2D               DEC  IXL                ; 0A7E DD 2D
01001   0A80 FD 2B               dec  iy                 ; 0A80 FD 2B
01002   0A82 FD 2B               DEC  IY                 ; 0A82 FD 2B
01003   0A84 FD 25               dec  iyh                ; 0A84 FD 25
01004   0A86 FD 25               DEC  IYH                ; 0A86 FD 25
01005   0A88 FD 2D               dec  iyl                ; 0A88 FD 2D
01006   0A8A FD 2D               DEC  IYL                ; 0A8A FD 2D
01007   0A8C 2D                  dec  l                  ; 0A8C 2D
01008   0A8D 2D                  DEC  L                  ; 0A8D 2D
01009   0A8E DD 2D               dec  lx                 ; 0A8E DD 2D
01010   0A90 DD 2D               DEC  LX                 ; 0A90 DD 2D
01011   0A92 FD 2D               dec  ly                 ; 0A92 FD 2D
01012   0A94 FD 2D               DEC  LY                 ; 0A94 FD 2D
01013   0A96 3B                  dec  sp                 ; 0A96 3B
01014   0A97 3B                  DEC  SP                 ; 0A97 3B
01015   0A98 DD 25               dec  xh                 ; 0A98 DD 25
01016   0A9A DD 25               DEC  XH                 ; 0A9A DD 25
01017   0A9C DD 2D               dec  xl                 ; 0A9C DD 2D
01018   0A9E DD 2D               DEC  XL                 ; 0A9E DD 2D
01019   0AA0 FD 25               dec  yh                 ; 0AA0 FD 25
01020   0AA2 FD 25               DEC  YH                 ; 0AA2 FD 25
01021   0AA4 FD 2D               dec  yl                 ; 0AA4 FD 2D
01022   0AA6 FD 2D               DEC  YL                 ; 0AA6 FD 2D
01023   0AA8 F3                  di                      ; 0AA8 F3
01024   0AA9 F3                  DI                      ; 0AA9 F3
01025   0AAA 10 80               djnz 2604               ; 0AAA 10 80
01026   0AAC 10 80               DJNZ 2606               ; 0AAC 10 80
01027   0AAE 10 FF               djnz 2735               ; 0AAE 10 FF
01028   0AB0 10 FF               DJNZ 2737               ; 0AB0 10 FF
01029   0AB2 10 00               djnz 2740               ; 0AB2 10 00
01030   0AB4 10 00               DJNZ 2742               ; 0AB4 10 00
01031   0AB6 10 7F               djnz 2871               ; 0AB6 10 7F
01032   0AB8 10 7F               DJNZ 2873               ; 0AB8 10 7F
01033   0ABA FB                  ei                      ; 0ABA FB
01034   0ABB FB                  EI                      ; 0ABB FB
01035   0ABC E3                  ex   (sp),hl            ; 0ABC E3
01036   0ABD E3                  EX   (SP),HL            ; 0ABD E3
01037   0ABE DD E3               ex   (sp),ix            ; 0ABE DD E3
01038   0AC0 DD E3               EX   (SP),IX            ; 0AC0 DD E3
01039   0AC2 FD E3               ex   (sp),iy            ; 0AC2 FD E3
01040   0AC4 FD E3               EX   (SP),IY            ; 0AC4 FD E3
01041   0AC6 E3                  ex   [sp],hl            ; 0AC6 E3
01042   0AC7 E3                  EX   [SP],HL            ; 0AC7 E3
01043   0AC8 DD E3               ex   [sp],ix            ; 0AC8 DD E3
01044   0ACA DD E3               EX   [SP],IX            ; 0ACA DD E3
01045   0ACC FD E3               ex   [sp],iy            ; 0ACC FD E3
01046   0ACE FD E3               EX   [SP],IY            ; 0ACE FD E3
01047   0AD0 08                  ex   af                 ; 0AD0 08
01048   0AD1 08                  EX   AF                 ; 0AD1 08
01049   0AD2 08                  ex   af,af              ; 0AD2 08
01050   0AD3 08                  EX   AF,AF              ; 0AD3 08
01051   0AD4 08                  ex   af,af'             ; 0AD4 08
01052   0AD5 08                  EX   AF,AF'             ; 0AD5 08
01053   0AD6 EB                  ex   de,hl              ; 0AD6 EB
01054   0AD7 EB                  EX   DE,HL              ; 0AD7 EB
01055   0AD8 08                  exa                     ; 0AD8 08
01056   0AD9 08                  EXA                     ; 0AD9 08
01057   0ADA D9                  exx                     ; 0ADA D9
01058   0ADB D9                  EXX                     ; 0ADB D9
01059   0ADC 76                  halt                    ; 0ADC 76
01060   0ADD 76                  HALT                    ; 0ADD 76
01061   0ADE ED 46               im   0                  ; 0ADE ED 46
01062   0AE0 ED 46               IM   0                  ; 0AE0 ED 46
01063   0AE2 ED 56               im   1                  ; 0AE2 ED 56
01064   0AE4 ED 56               IM   1                  ; 0AE4 ED 56
01065   0AE6 ED 5E               im   2                  ; 0AE6 ED 5E
01066   0AE8 ED 5E               IM   2                  ; 0AE8 ED 5E
01067   0AEA DB 80               in   a,(-128)           ; 0AEA DB 80
01068   0AEC DB 80               IN   A,(-128)           ; 0AEC DB 80
01069   0AEE DB FF               in   a,(-1)             ; 0AEE DB FF
01070   0AF0 DB FF               IN   A,(-1)             ; 0AF0 DB FF
01071   0AF2 DB 00               in   a,(0)              ; 0AF2 DB 00
01072   0AF4 DB 00               IN   A,(0)              ; 0AF4 DB 00
01073   0AF6 DB 7F               in   a,(127)            ; 0AF6 DB 7F
01074   0AF8 DB 7F               IN   A,(127)            ; 0AF8 DB 7F
01075   0AFA DB FF               in   a,(255)            ; 0AFA DB FF
01076   0AFC DB FF               IN   A,(255)            ; 0AFC DB FF
01077   0AFE ED 78               in   a,(c)              ; 0AFE ED 78
01078   0B00 ED 78               IN   A,(C)              ; 0B00 ED 78
01079   0B02 DB 80               in   a,[-128]           ; 0B02 DB 80
01080   0B04 DB 80               IN   A,[-128]           ; 0B04 DB 80
01081   0B06 DB FF               in   a,[-1]             ; 0B06 DB FF
01082   0B08 DB FF               IN   A,[-1]             ; 0B08 DB FF
01083   0B0A DB 00               in   a,[0]              ; 0B0A DB 00
01084   0B0C DB 00               IN   A,[0]              ; 0B0C DB 00
01085   0B0E DB 7F               in   a,[127]            ; 0B0E DB 7F
01086   0B10 DB 7F               IN   A,[127]            ; 0B10 DB 7F
01087   0B12 DB FF               in   a,[255]            ; 0B12 DB FF
01088   0B14 DB FF               IN   A,[255]            ; 0B14 DB FF
01089   0B16 ED 78               in   a,[c]              ; 0B16 ED 78
01090   0B18 ED 78               IN   A,[C]              ; 0B18 ED 78
01091   0B1A ED 40               in   b,(c)              ; 0B1A ED 40
01092   0B1C ED 40               IN   B,(C)              ; 0B1C ED 40
01093   0B1E ED 40               in   b,[c]              ; 0B1E ED 40
01094   0B20 ED 40               IN   B,[C]              ; 0B20 ED 40
01095   0B22 ED 48               in   c,(c)              ; 0B22 ED 48
01096   0B24 ED 48               IN   C,(C)              ; 0B24 ED 48
01097   0B26 ED 48               in   c,[c]              ; 0B26 ED 48
01098   0B28 ED 48               IN   C,[C]              ; 0B28 ED 48
01099   0B2A ED 50               in   d,(c)              ; 0B2A ED 50
01100   0B2C ED 50               IN   D,(C)              ; 0B2C ED 50
01101   0B2E ED 50               in   d,[c]              ; 0B2E ED 50
01102   0B30 ED 50               IN   D,[C]              ; 0B30 ED 50
01103   0B32 ED 58               in   e,(c)              ; 0B32 ED 58
01104   0B34 ED 58               IN   E,(C)              ; 0B34 ED 58
01105   0B36 ED 58               in   e,[c]              ; 0B36 ED 58
01106   0B38 ED 58               IN   E,[C]              ; 0B38 ED 58
01107   0B3A ED 70               in   f,(c)              ; 0B3A ED 70
01108   0B3C ED 70               IN   F,(C)              ; 0B3C ED 70
01109   0B3E ED 70               in   f,[c]              ; 0B3E ED 70
01110   0B40 ED 70               IN   F,[C]              ; 0B40 ED 70
01111   0B42 ED 60               in   h,(c)              ; 0B42 ED 60
01112   0B44 ED 60               IN   H,(C)              ; 0B44 ED 60
01113   0B46 ED 60               in   h,[c]              ; 0B46 ED 60
01114   0B48 ED 60               IN   H,[C]              ; 0B48 ED 60
01115   0B4A ED 68               in   l,(c)              ; 0B4A ED 68
01116   0B4C ED 68               IN   L,(C)              ; 0B4C ED 68
01117   0B4E ED 68               in   l,[c]              ; 0B4E ED 68
01118   0B50 ED 68               IN   L,[C]              ; 0B50 ED 68
01119   0B52 34                  inc  (hl)               ; 0B52 34
01120   0B53 34                  INC  (HL)               ; 0B53 34
01121   0B54 DD 34 80            inc  (ix+-128)          ; 0B54 DD 34 80
01122   0B57 DD 34 80            INC  (IX+-128)          ; 0B57 DD 34 80
01123   0B5A DD 34 FF            inc  (ix+-1)            ; 0B5A DD 34 FF
01124   0B5D DD 34 FF            INC  (IX+-1)            ; 0B5D DD 34 FF
01125   0B60 DD 34 00            inc  (ix+0)             ; 0B60 DD 34 00
01126   0B63 DD 34 00            INC  (IX+0)             ; 0B63 DD 34 00
01127   0B66 DD 34 7F            inc  (ix+127)           ; 0B66 DD 34 7F
01128   0B69 DD 34 7F            INC  (IX+127)           ; 0B69 DD 34 7F
01129   0B6C FD 34 80            inc  (iy+-128)          ; 0B6C FD 34 80
01130   0B6F FD 34 80            INC  (IY+-128)          ; 0B6F FD 34 80
01131   0B72 FD 34 FF            inc  (iy+-1)            ; 0B72 FD 34 FF
01132   0B75 FD 34 FF            INC  (IY+-1)            ; 0B75 FD 34 FF
01133   0B78 FD 34 00            inc  (iy+0)             ; 0B78 FD 34 00
01134   0B7B FD 34 00            INC  (IY+0)             ; 0B7B FD 34 00
01135   0B7E FD 34 7F            inc  (iy+127)           ; 0B7E FD 34 7F
01136   0B81 FD 34 7F            INC  (IY+127)           ; 0B81 FD 34 7F
01137   0B84 34                  inc  [hl]               ; 0B84 34
01138   0B85 34                  INC  [HL]               ; 0B85 34
01139   0B86 DD 34 80            inc  [ix+-128]          ; 0B86 DD 34 80
01140   0B89 DD 34 80            INC  [IX+-128]          ; 0B89 DD 34 80
01141   0B8C DD 34 FF            inc  [ix+-1]            ; 0B8C DD 34 FF
01142   0B8F DD 34 FF            INC  [IX+-1]            ; 0B8F DD 34 FF
01143   0B92 DD 34 00            inc  [ix+0]             ; 0B92 DD 34 00
01144   0B95 DD 34 00            INC  [IX+0]             ; 0B95 DD 34 00
01145   0B98 DD 34 7F            inc  [ix+127]           ; 0B98 DD 34 7F
01146   0B9B DD 34 7F            INC  [IX+127]           ; 0B9B DD 34 7F
01147   0B9E FD 34 80            inc  [iy+-128]          ; 0B9E FD 34 80
01148   0BA1 FD 34 80            INC  [IY+-128]          ; 0BA1 FD 34 80
01149   0BA4 FD 34 FF            inc  [iy+-1]            ; 0BA4 FD 34 FF
01150   0BA7 FD 34 FF            INC  [IY+-1]            ; 0BA7 FD 34 FF
01151   0BAA FD 34 00            inc  [iy+0]             ; 0BAA FD 34 00
01152   0BAD FD 34 00            INC  [IY+0]             ; 0BAD FD 34 00
01153   0BB0 FD 34 7F            inc  [iy+127]           ; 0BB0 FD 34 7F
01154   0BB3 FD 34 7F            INC  [IY+127]           ; 0BB3 FD 34 7F
01155   0BB6 3C                  inc  a                  ; 0BB6 3C
01156   0BB7 3C                  INC  A                  ; 0BB7 3C
01157   0BB8 04                  inc  b                  ; 0BB8 04
01158   0BB9 04                  INC  B                  ; 0BB9 04
01159   0BBA 03                  inc  bc                 ; 0BBA 03
01160   0BBB 03                  INC  BC                 ; 0BBB 03
01161   0BBC 0C                  inc  c                  ; 0BBC 0C
01162   0BBD 0C                  INC  C                  ; 0BBD 0C
01163   0BBE 14                  inc  d                  ; 0BBE 14
01164   0BBF 14                  INC  D                  ; 0BBF 14
01165   0BC0 13                  inc  de                 ; 0BC0 13
01166   0BC1 13                  INC  DE                 ; 0BC1 13
01167   0BC2 1C                  inc  e                  ; 0BC2 1C
01168   0BC3 1C                  INC  E                  ; 0BC3 1C
01169   0BC4 24                  inc  h                  ; 0BC4 24
01170   0BC5 24                  INC  H                  ; 0BC5 24
01171   0BC6 23                  inc  hl                 ; 0BC6 23
01172   0BC7 23                  INC  HL                 ; 0BC7 23
01173   0BC8 DD 24               inc  hx                 ; 0BC8 DD 24
01174   0BCA DD 24               INC  HX                 ; 0BCA DD 24
01175   0BCC FD 24               inc  hy                 ; 0BCC FD 24
01176   0BCE FD 24               INC  HY                 ; 0BCE FD 24
01177   0BD0 DD 23               inc  ix                 ; 0BD0 DD 23
01178   0BD2 DD 23               INC  IX                 ; 0BD2 DD 23
01179   0BD4 DD 24               inc  ixh                ; 0BD4 DD 24
01180   0BD6 DD 24               INC  IXH                ; 0BD6 DD 24
01181   0BD8 DD 2C               inc  ixl                ; 0BD8 DD 2C
01182   0BDA DD 2C               INC  IXL                ; 0BDA DD 2C
01183   0BDC FD 23               inc  iy                 ; 0BDC FD 23
01184   0BDE FD 23               INC  IY                 ; 0BDE FD 23
01185   0BE0 FD 24               inc  iyh                ; 0BE0 FD 24
01186   0BE2 FD 24               INC  IYH                ; 0BE2 FD 24
01187   0BE4 FD 2C               inc  iyl                ; 0BE4 FD 2C
01188   0BE6 FD 2C               INC  IYL                ; 0BE6 FD 2C
01189   0BE8 2C                  inc  l                  ; 0BE8 2C
01190   0BE9 2C                  INC  L                  ; 0BE9 2C
01191   0BEA DD 2C               inc  lx                 ; 0BEA DD 2C
01192   0BEC DD 2C               INC  LX                 ; 0BEC DD 2C
01193   0BEE FD 2C               inc  ly                 ; 0BEE FD 2C
01194   0BF0 FD 2C               INC  LY                 ; 0BF0 FD 2C
01195   0BF2 33                  inc  sp                 ; 0BF2 33
01196   0BF3 33                  INC  SP                 ; 0BF3 33
01197   0BF4 DD 24               inc  xh                 ; 0BF4 DD 24
01198   0BF6 DD 24               INC  XH                 ; 0BF6 DD 24
01199   0BF8 DD 2C               inc  xl                 ; 0BF8 DD 2C
01200   0BFA DD 2C               INC  XL                 ; 0BFA DD 2C
01201   0BFC FD 24               inc  yh                 ; 0BFC FD 24
01202   0BFE FD 24               INC  YH                 ; 0BFE FD 24
01203   0C00 FD 2C               inc  yl                 ; 0C00 FD 2C
01204   0C02 FD 2C               INC  YL                 ; 0C02 FD 2C
01205   0C04 ED AA               ind                     ; 0C04 ED AA
01206   0C06 ED AA               IND                     ; 0C06 ED AA
01207   0C08 ED BA               indr                    ; 0C08 ED BA
01208   0C0A ED BA               INDR                    ; 0C0A ED BA
01209   0C0C ED A2               ini                     ; 0C0C ED A2
01210   0C0E ED A2               INI                     ; 0C0E ED A2
01211   0C10 ED B2               inir                    ; 0C10 ED B2
01212   0C12 ED B2               INIR                    ; 0C12 ED B2
01213   0C14 E9                  jp   (hl)               ; 0C14 E9
01214   0C15 E9                  JP   (HL)               ; 0C15 E9
01215   0C16 DD E9               jp   (ix)               ; 0C16 DD E9
01216   0C18 DD E9               JP   (IX)               ; 0C18 DD E9
01217   0C1A FD E9               jp   (iy)               ; 0C1A FD E9
01218   0C1C FD E9               JP   (IY)               ; 0C1C FD E9
01219   0C1E C3 00 80            jp   -32768             ; 0C1E C3 00 80
01220   0C21 C3 00 80            JP   -32768             ; 0C21 C3 00 80
01221   0C24 C3 80 FF            jp   -128               ; 0C24 C3 80 FF
01222   0C27 C3 80 FF            JP   -128               ; 0C27 C3 80 FF
01223   0C2A C3 FF FF            jp   -1                 ; 0C2A C3 FF FF
01224   0C2D C3 FF FF            JP   -1                 ; 0C2D C3 FF FF
01225   0C30 C3 00 00            jp   0                  ; 0C30 C3 00 00
01226   0C33 C3 00 00            JP   0                  ; 0C33 C3 00 00
01227   0C36 C3 7F 00            jp   127                ; 0C36 C3 7F 00
01228   0C39 C3 7F 00            JP   127                ; 0C39 C3 7F 00
01229   0C3C C3 FF 00            jp   255                ; 0C3C C3 FF 00
01230   0C3F C3 FF 00            JP   255                ; 0C3F C3 FF 00
01231   0C42 C3 FF 7F            jp   32767              ; 0C42 C3 FF 7F
01232   0C45 C3 FF 7F            JP   32767              ; 0C45 C3 FF 7F
01233   0C48 C3 FF FF            jp   65535              ; 0C48 C3 FF FF
01234   0C4B C3 FF FF            JP   65535              ; 0C4B C3 FF FF
01235   0C4E E9                  jp   [hl]               ; 0C4E E9
01236   0C4F E9                  JP   [HL]               ; 0C4F E9
01237   0C50 DD E9               jp   [ix]               ; 0C50 DD E9
01238   0C52 DD E9               JP   [IX]               ; 0C52 DD E9
01239   0C54 FD E9               jp   [iy]               ; 0C54 FD E9
01240   0C56 FD E9               JP   [IY]               ; 0C56 FD E9
01241   0C58 DA 00 80            jp   c,-32768           ; 0C58 DA 00 80
01242   0C5B DA 00 80            JP   C,-32768           ; 0C5B DA 00 80
01243   0C5E DA 80 FF            jp   c,-128             ; 0C5E DA 80 FF
01244   0C61 DA 80 FF            JP   C,-128             ; 0C61 DA 80 FF
01245   0C64 DA FF FF            jp   c,-1               ; 0C64 DA FF FF
01246   0C67 DA FF FF            JP   C,-1               ; 0C67 DA FF FF
01247   0C6A DA 00 00            jp   c,0                ; 0C6A DA 00 00
01248   0C6D DA 00 00            JP   C,0                ; 0C6D DA 00 00
01249   0C70 DA 7F 00            jp   c,127              ; 0C70 DA 7F 00
01250   0C73 DA 7F 00            JP   C,127              ; 0C73 DA 7F 00
01251   0C76 DA FF 00            jp   c,255              ; 0C76 DA FF 00
01252   0C79 DA FF 00            JP   C,255              ; 0C79 DA FF 00
01253   0C7C DA FF 7F            jp   c,32767            ; 0C7C DA FF 7F
01254   0C7F DA FF 7F            JP   C,32767            ; 0C7F DA FF 7F
01255   0C82 DA FF FF            jp   c,65535            ; 0C82 DA FF FF
01256   0C85 DA FF FF            JP   C,65535            ; 0C85 DA FF FF
01257   0C88 E9                  jp   hl                 ; 0C88 E9
01258   0C89 E9                  JP   HL                 ; 0C89 E9
01259   0C8A DD E9               jp   ix                 ; 0C8A DD E9
01260   0C8C DD E9               JP   IX                 ; 0C8C DD E9
01261   0C8E FD E9               jp   iy                 ; 0C8E FD E9
01262   0C90 FD E9               JP   IY                 ; 0C90 FD E9
01263   0C92 FA 00 80            jp   m,-32768           ; 0C92 FA 00 80
01264   0C95 FA 00 80            JP   M,-32768           ; 0C95 FA 00 80
01265   0C98 FA 80 FF            jp   m,-128             ; 0C98 FA 80 FF
01266   0C9B FA 80 FF            JP   M,-128             ; 0C9B FA 80 FF
01267   0C9E FA FF FF            jp   m,-1               ; 0C9E FA FF FF
01268   0CA1 FA FF FF            JP   M,-1               ; 0CA1 FA FF FF
01269   0CA4 FA 00 00            jp   m,0                ; 0CA4 FA 00 00
01270   0CA7 FA 00 00            JP   M,0                ; 0CA7 FA 00 00
01271   0CAA FA 7F 00            jp   m,127              ; 0CAA FA 7F 00
01272   0CAD FA 7F 00            JP   M,127              ; 0CAD FA 7F 00
01273   0CB0 FA FF 00            jp   m,255              ; 0CB0 FA FF 00
01274   0CB3 FA FF 00            JP   M,255              ; 0CB3 FA FF 00
01275   0CB6 FA FF 7F            jp   m,32767            ; 0CB6 FA FF 7F
01276   0CB9 FA FF 7F            JP   M,32767            ; 0CB9 FA FF 7F
01277   0CBC FA FF FF            jp   m,65535            ; 0CBC FA FF FF
01278   0CBF FA FF FF            JP   M,65535            ; 0CBF FA FF FF
01279   0CC2 D2 00 80            jp   nc,-32768          ; 0CC2 D2 00 80
01280   0CC5 D2 00 80            JP   NC,-32768          ; 0CC5 D2 00 80
01281   0CC8 D2 80 FF            jp   nc,-128            ; 0CC8 D2 80 FF
01282   0CCB D2 80 FF            JP   NC,-128            ; 0CCB D2 80 FF
01283   0CCE D2 FF FF            jp   nc,-1              ; 0CCE D2 FF FF
01284   0CD1 D2 FF FF            JP   NC,-1              ; 0CD1 D2 FF FF
01285   0CD4 D2 00 00            jp   nc,0               ; 0CD4 D2 00 00
01286   0CD7 D2 00 00            JP   NC,0               ; 0CD7 D2 00 00
01287   0CDA D2 7F 00            jp   nc,127             ; 0CDA D2 7F 00
01288   0CDD D2 7F 00            JP   NC,127             ; 0CDD D2 7F 00
01289   0CE0 D2 FF 00            jp   nc,255             ; 0CE0 D2 FF 00
01290   0CE3 D2 FF 00            JP   NC,255             ; 0CE3 D2 FF 00
01291   0CE6 D2 FF 7F            jp   nc,32767           ; 0CE6 D2 FF 7F
01292   0CE9 D2 FF 7F            JP   NC,32767           ; 0CE9 D2 FF 7F
01293   0CEC D2 FF FF            jp   nc,65535           ; 0CEC D2 FF FF
01294   0CEF D2 FF FF            JP   NC,65535           ; 0CEF D2 FF FF
01295   0CF2 C2 00 80            jp   nz,-32768          ; 0CF2 C2 00 80
01296   0CF5 C2 00 80            JP   NZ,-32768          ; 0CF5 C2 00 80
01297   0CF8 C2 80 FF            jp   nz,-128            ; 0CF8 C2 80 FF
01298   0CFB C2 80 FF            JP   NZ,-128            ; 0CFB C2 80 FF
01299   0CFE C2 FF FF            jp   nz,-1              ; 0CFE C2 FF FF
01300   0D01 C2 FF FF            JP   NZ,-1              ; 0D01 C2 FF FF
01301   0D04 C2 00 00            jp   nz,0               ; 0D04 C2 00 00
01302   0D07 C2 00 00            JP   NZ,0               ; 0D07 C2 00 00
01303   0D0A C2 7F 00            jp   nz,127             ; 0D0A C2 7F 00
01304   0D0D C2 7F 00            JP   NZ,127             ; 0D0D C2 7F 00
01305   0D10 C2 FF 00            jp   nz,255             ; 0D10 C2 FF 00
01306   0D13 C2 FF 00            JP   NZ,255             ; 0D13 C2 FF 00
01307   0D16 C2 FF 7F            jp   nz,32767           ; 0D16 C2 FF 7F
01308   0D19 C2 FF 7F            JP   NZ,32767           ; 0D19 C2 FF 7F
01309   0D1C C2 FF FF            jp   nz,65535           ; 0D1C C2 FF FF
01310   0D1F C2 FF FF            JP   NZ,65535           ; 0D1F C2 FF FF
01311   0D22 F2 00 80            jp   p,-32768           ; 0D22 F2 00 80
01312   0D25 F2 00 80            JP   P,-32768           ; 0D25 F2 00 80
01313   0D28 F2 80 FF            jp   p,-128             ; 0D28 F2 80 FF
01314   0D2B F2 80 FF            JP   P,-128             ; 0D2B F2 80 FF
01315   0D2E F2 FF FF            jp   p,-1               ; 0D2E F2 FF FF
01316   0D31 F2 FF FF            JP   P,-1               ; 0D31 F2 FF FF
01317   0D34 F2 00 00            jp   p,0                ; 0D34 F2 00 00
01318   0D37 F2 00 00            JP   P,0                ; 0D37 F2 00 00
01319   0D3A F2 7F 00            jp   p,127              ; 0D3A F2 7F 00
01320   0D3D F2 7F 00            JP   P,127              ; 0D3D F2 7F 00
01321   0D40 F2 FF 00            jp   p,255              ; 0D40 F2 FF 00
01322   0D43 F2 FF 00            JP   P,255              ; 0D43 F2 FF 00
01323   0D46 F2 FF 7F            jp   p,32767            ; 0D46 F2 FF 7F
01324   0D49 F2 FF 7F            JP   P,32767            ; 0D49 F2 FF 7F
01325   0D4C F2 FF FF            jp   p,65535            ; 0D4C F2 FF FF
01326   0D4F F2 FF FF            JP   P,65535            ; 0D4F F2 FF FF
01327   0D52 EA 00 80            jp   pe,-32768          ; 0D52 EA 00 80
01328   0D55 EA 00 80            JP   PE,-32768          ; 0D55 EA 00 80
01329   0D58 EA 80 FF            jp   pe,-128            ; 0D58 EA 80 FF
01330   0D5B EA 80 FF            JP   PE,-128            ; 0D5B EA 80 FF
01331   0D5E EA FF FF            jp   pe,-1              ; 0D5E EA FF FF
01332   0D61 EA FF FF            JP   PE,-1              ; 0D61 EA FF FF
01333   0D64 EA 00 00            jp   pe,0               ; 0D64 EA 00 00
01334   0D67 EA 00 00            JP   PE,0               ; 0D67 EA 00 00
01335   0D6A EA 7F 00            jp   pe,127             ; 0D6A EA 7F 00
01336   0D6D EA 7F 00            JP   PE,127             ; 0D6D EA 7F 00
01337   0D70 EA FF 00            jp   pe,255             ; 0D70 EA FF 00
01338   0D73 EA FF 00            JP   PE,255             ; 0D73 EA FF 00
01339   0D76 EA FF 7F            jp   pe,32767           ; 0D76 EA FF 7F
01340   0D79 EA FF 7F            JP   PE,32767           ; 0D79 EA FF 7F
01341   0D7C EA FF FF            jp   pe,65535           ; 0D7C EA FF FF
01342   0D7F EA FF FF            JP   PE,65535           ; 0D7F EA FF FF
01343   0D82 E2 00 80            jp   po,-32768          ; 0D82 E2 00 80
01344   0D85 E2 00 80            JP   PO,-32768          ; 0D85 E2 00 80
01345   0D88 E2 80 FF            jp   po,-128            ; 0D88 E2 80 FF
01346   0D8B E2 80 FF            JP   PO,-128            ; 0D8B E2 80 FF
01347   0D8E E2 FF FF            jp   po,-1              ; 0D8E E2 FF FF
01348   0D91 E2 FF FF            JP   PO,-1              ; 0D91 E2 FF FF
01349   0D94 E2 00 00            jp   po,0               ; 0D94 E2 00 00
01350   0D97 E2 00 00            JP   PO,0               ; 0D97 E2 00 00
01351   0D9A E2 7F 00            jp   po,127             ; 0D9A E2 7F 00
01352   0D9D E2 7F 00            JP   PO,127             ; 0D9D E2 7F 00
01353   0DA0 E2 FF 00            jp   po,255             ; 0DA0 E2 FF 00
01354   0DA3 E2 FF 00            JP   PO,255             ; 0DA3 E2 FF 00
01355   0DA6 E2 FF 7F            jp   po,32767           ; 0DA6 E2 FF 7F
01356   0DA9 E2 FF 7F            JP   PO,32767           ; 0DA9 E2 FF 7F
01357   0DAC E2 FF FF            jp   po,65535           ; 0DAC E2 FF FF
01358   0DAF E2 FF FF            JP   PO,65535           ; 0DAF E2 FF FF
01359   0DB2 CA 00 80            jp   z,-32768           ; 0DB2 CA 00 80
01360   0DB5 CA 00 80            JP   Z,-32768           ; 0DB5 CA 00 80
01361   0DB8 CA 80 FF            jp   z,-128             ; 0DB8 CA 80 FF
01362   0DBB CA 80 FF            JP   Z,-128             ; 0DBB CA 80 FF
01363   0DBE CA FF FF            jp   z,-1               ; 0DBE CA FF FF
01364   0DC1 CA FF FF            JP   Z,-1               ; 0DC1 CA FF FF
01365   0DC4 CA 00 00            jp   z,0                ; 0DC4 CA 00 00
01366   0DC7 CA 00 00            JP   Z,0                ; 0DC7 CA 00 00
01367   0DCA CA 7F 00            jp   z,127              ; 0DCA CA 7F 00
01368   0DCD CA 7F 00            JP   Z,127              ; 0DCD CA 7F 00
01369   0DD0 CA FF 00            jp   z,255              ; 0DD0 CA FF 00
01370   0DD3 CA FF 00            JP   Z,255              ; 0DD3 CA FF 00
01371   0DD6 CA FF 7F            jp   z,32767            ; 0DD6 CA FF 7F
01372   0DD9 CA FF 7F            JP   Z,32767            ; 0DD9 CA FF 7F
01373   0DDC CA FF FF            jp   z,65535            ; 0DDC CA FF FF
01374   0DDF CA FF FF            JP   Z,65535            ; 0DDF CA FF FF
01375   0DE2 18 80               jr   3428               ; 0DE2 18 80
01376   0DE4 18 80               JR   3430               ; 0DE4 18 80
01377   0DE6 18 FF               jr   3559               ; 0DE6 18 FF
01378   0DE8 18 FF               JR   3561               ; 0DE8 18 FF
01379   0DEA 18 00               jr   3564               ; 0DEA 18 00
01380   0DEC 18 00               JR   3566               ; 0DEC 18 00
01381   0DEE 18 7F               jr   3695               ; 0DEE 18 7F
01382   0DF0 18 7F               JR   3697               ; 0DF0 18 7F
01383   0DF2 38 80               jr   c,3444             ; 0DF2 38 80
01384   0DF4 38 80               JR   C,3446             ; 0DF4 38 80
01385   0DF6 38 FF               jr   c,3575             ; 0DF6 38 FF
01386   0DF8 38 FF               JR   C,3577             ; 0DF8 38 FF
01387   0DFA 38 00               jr   c,3580             ; 0DFA 38 00
01388   0DFC 38 00               JR   C,3582             ; 0DFC 38 00
01389   0DFE 38 7F               jr   c,3711             ; 0DFE 38 7F
01390   0E00 38 7F               JR   C,3713             ; 0E00 38 7F
01391   0E02 30 80               jr   nc,3460            ; 0E02 30 80
01392   0E04 30 80               JR   NC,3462            ; 0E04 30 80
01393   0E06 30 FF               jr   nc,3591            ; 0E06 30 FF
01394   0E08 30 FF               JR   NC,3593            ; 0E08 30 FF
01395   0E0A 30 00               jr   nc,3596            ; 0E0A 30 00
01396   0E0C 30 00               JR   NC,3598            ; 0E0C 30 00
01397   0E0E 30 7F               jr   nc,3727            ; 0E0E 30 7F
01398   0E10 30 7F               JR   NC,3729            ; 0E10 30 7F
01399   0E12 20 80               jr   nz,3476            ; 0E12 20 80
01400   0E14 20 80               JR   NZ,3478            ; 0E14 20 80
01401   0E16 20 FF               jr   nz,3607            ; 0E16 20 FF
01402   0E18 20 FF               JR   NZ,3609            ; 0E18 20 FF
01403   0E1A 20 00               jr   nz,3612            ; 0E1A 20 00
01404   0E1C 20 00               JR   NZ,3614            ; 0E1C 20 00
01405   0E1E 20 7F               jr   nz,3743            ; 0E1E 20 7F
01406   0E20 20 7F               JR   NZ,3745            ; 0E20 20 7F
01407   0E22 28 80               jr   z,3492             ; 0E22 28 80
01408   0E24 28 80               JR   Z,3494             ; 0E24 28 80
01409   0E26 28 FF               jr   z,3623             ; 0E26 28 FF
01410   0E28 28 FF               JR   Z,3625             ; 0E28 28 FF
01411   0E2A 28 00               jr   z,3628             ; 0E2A 28 00
01412   0E2C 28 00               JR   Z,3630             ; 0E2C 28 00
01413   0E2E 28 7F               jr   z,3759             ; 0E2E 28 7F
01414   0E30 28 7F               JR   Z,3761             ; 0E30 28 7F
01415   0E32 32 00 80            ld   (-32768),a         ; 0E32 32 00 80
01416   0E35 32 00 80            LD   (-32768),A         ; 0E35 32 00 80
01417   0E38 32 80 FF            ld   (-128),a           ; 0E38 32 80 FF
01418   0E3B 32 80 FF            LD   (-128),A           ; 0E3B 32 80 FF
01419   0E3E 32 FF FF            ld   (-1),a             ; 0E3E 32 FF FF
01420   0E41 32 FF FF            LD   (-1),A             ; 0E41 32 FF FF
01421   0E44 32 00 00            ld   (0),a              ; 0E44 32 00 00
01422   0E47 32 00 00            LD   (0),A              ; 0E47 32 00 00
01423   0E4A 32 7F 00            ld   (127),a            ; 0E4A 32 7F 00
01424   0E4D 32 7F 00            LD   (127),A            ; 0E4D 32 7F 00
01425   0E50 32 FF 00            ld   (255),a            ; 0E50 32 FF 00
01426   0E53 32 FF 00            LD   (255),A            ; 0E53 32 FF 00
01427   0E56 32 FF 7F            ld   (32767),a          ; 0E56 32 FF 7F
01428   0E59 32 FF 7F            LD   (32767),A          ; 0E59 32 FF 7F
01429   0E5C 32 FF FF            ld   (65535),a          ; 0E5C 32 FF FF
01430   0E5F 32 FF FF            LD   (65535),A          ; 0E5F 32 FF FF
01431   0E62 ED 43 00 80         ld   (-32768),bc        ; 0E62 ED 43 00 80
01432   0E66 ED 43 00 80         LD   (-32768),BC        ; 0E66 ED 43 00 80
01433   0E6A ED 43 80 FF         ld   (-128),bc          ; 0E6A ED 43 80 FF
01434   0E6E ED 43 80 FF         LD   (-128),BC          ; 0E6E ED 43 80 FF
01435   0E72 ED 43 FF FF         ld   (-1),bc            ; 0E72 ED 43 FF FF
01436   0E76 ED 43 FF FF         LD   (-1),BC            ; 0E76 ED 43 FF FF
01437   0E7A ED 43 00 00         ld   (0),bc             ; 0E7A ED 43 00 00
01438   0E7E ED 43 00 00         LD   (0),BC             ; 0E7E ED 43 00 00
01439   0E82 ED 43 7F 00         ld   (127),bc           ; 0E82 ED 43 7F 00
01440   0E86 ED 43 7F 00         LD   (127),BC           ; 0E86 ED 43 7F 00
01441   0E8A ED 43 FF 00         ld   (255),bc           ; 0E8A ED 43 FF 00
01442   0E8E ED 43 FF 00         LD   (255),BC           ; 0E8E ED 43 FF 00
01443   0E92 ED 43 FF 7F         ld   (32767),bc         ; 0E92 ED 43 FF 7F
01444   0E96 ED 43 FF 7F         LD   (32767),BC         ; 0E96 ED 43 FF 7F
01445   0E9A ED 43 FF FF         ld   (65535),bc         ; 0E9A ED 43 FF FF
01446   0E9E ED 43 FF FF         LD   (65535),BC         ; 0E9E ED 43 FF FF
01447   0EA2 ED 53 00 80         ld   (-32768),de        ; 0EA2 ED 53 00 80
01448   0EA6 ED 53 00 80         LD   (-32768),DE        ; 0EA6 ED 53 00 80
01449   0EAA ED 53 80 FF         ld   (-128),de          ; 0EAA ED 53 80 FF
01450   0EAE ED 53 80 FF         LD   (-128),DE          ; 0EAE ED 53 80 FF
01451   0EB2 ED 53 FF FF         ld   (-1),de            ; 0EB2 ED 53 FF FF
01452   0EB6 ED 53 FF FF         LD   (-1),DE            ; 0EB6 ED 53 FF FF
01453   0EBA ED 53 00 00         ld   (0),de             ; 0EBA ED 53 00 00
01454   0EBE ED 53 00 00         LD   (0),DE             ; 0EBE ED 53 00 00
01455   0EC2 ED 53 7F 00         ld   (127),de           ; 0EC2 ED 53 7F 00
01456   0EC6 ED 53 7F 00         LD   (127),DE           ; 0EC6 ED 53 7F 00
01457   0ECA ED 53 FF 00         ld   (255),de           ; 0ECA ED 53 FF 00
01458   0ECE ED 53 FF 00         LD   (255),DE           ; 0ECE ED 53 FF 00
01459   0ED2 ED 53 FF 7F         ld   (32767),de         ; 0ED2 ED 53 FF 7F
01460   0ED6 ED 53 FF 7F         LD   (32767),DE         ; 0ED6 ED 53 FF 7F
01461   0EDA ED 53 FF FF         ld   (65535),de         ; 0EDA ED 53 FF FF
01462   0EDE ED 53 FF FF         LD   (65535),DE         ; 0EDE ED 53 FF FF
01463   0EE2 22 00 80            ld   (-32768),hl        ; 0EE2 22 00 80
01464   0EE5 22 00 80            LD   (-32768),HL        ; 0EE5 22 00 80
01465   0EE8 22 80 FF            ld   (-128),hl          ; 0EE8 22 80 FF
01466   0EEB 22 80 FF            LD   (-128),HL          ; 0EEB 22 80 FF
01467   0EEE 22 FF FF            ld   (-1),hl            ; 0EEE 22 FF FF
01468   0EF1 22 FF FF            LD   (-1),HL            ; 0EF1 22 FF FF
01469   0EF4 22 00 00            ld   (0),hl             ; 0EF4 22 00 00
01470   0EF7 22 00 00            LD   (0),HL             ; 0EF7 22 00 00
01471   0EFA 22 7F 00            ld   (127),hl           ; 0EFA 22 7F 00
01472   0EFD 22 7F 00            LD   (127),HL           ; 0EFD 22 7F 00
01473   0F00 22 FF 00            ld   (255),hl           ; 0F00 22 FF 00
01474   0F03 22 FF 00            LD   (255),HL           ; 0F03 22 FF 00
01475   0F06 22 FF 7F            ld   (32767),hl         ; 0F06 22 FF 7F
01476   0F09 22 FF 7F            LD   (32767),HL         ; 0F09 22 FF 7F
01477   0F0C 22 FF FF            ld   (65535),hl         ; 0F0C 22 FF FF
01478   0F0F 22 FF FF            LD   (65535),HL         ; 0F0F 22 FF FF
01479   0F12 DD 22 00 80         ld   (-32768),ix        ; 0F12 DD 22 00 80
01480   0F16 DD 22 00 80         LD   (-32768),IX        ; 0F16 DD 22 00 80
01481   0F1A DD 22 80 FF         ld   (-128),ix          ; 0F1A DD 22 80 FF
01482   0F1E DD 22 80 FF         LD   (-128),IX          ; 0F1E DD 22 80 FF
01483   0F22 DD 22 FF FF         ld   (-1),ix            ; 0F22 DD 22 FF FF
01484   0F26 DD 22 FF FF         LD   (-1),IX            ; 0F26 DD 22 FF FF
01485   0F2A DD 22 00 00         ld   (0),ix             ; 0F2A DD 22 00 00
01486   0F2E DD 22 00 00         LD   (0),IX             ; 0F2E DD 22 00 00
01487   0F32 DD 22 7F 00         ld   (127),ix           ; 0F32 DD 22 7F 00
01488   0F36 DD 22 7F 00         LD   (127),IX           ; 0F36 DD 22 7F 00
01489   0F3A DD 22 FF 00         ld   (255),ix           ; 0F3A DD 22 FF 00
01490   0F3E DD 22 FF 00         LD   (255),IX           ; 0F3E DD 22 FF 00
01491   0F42 DD 22 FF 7F         ld   (32767),ix         ; 0F42 DD 22 FF 7F
01492   0F46 DD 22 FF 7F         LD   (32767),IX         ; 0F46 DD 22 FF 7F
01493   0F4A DD 22 FF FF         ld   (65535),ix         ; 0F4A DD 22 FF FF
01494   0F4E DD 22 FF FF         LD   (65535),IX         ; 0F4E DD 22 FF FF
01495   0F52 FD 22 00 80         ld   (-32768),iy        ; 0F52 FD 22 00 80
01496   0F56 FD 22 00 80         LD   (-32768),IY        ; 0F56 FD 22 00 80
01497   0F5A FD 22 80 FF         ld   (-128),iy          ; 0F5A FD 22 80 FF
01498   0F5E FD 22 80 FF         LD   (-128),IY          ; 0F5E FD 22 80 FF
01499   0F62 FD 22 FF FF         ld   (-1),iy            ; 0F62 FD 22 FF FF
01500   0F66 FD 22 FF FF         LD   (-1),IY            ; 0F66 FD 22 FF FF
01501   0F6A FD 22 00 00         ld   (0),iy             ; 0F6A FD 22 00 00
01502   0F6E FD 22 00 00         LD   (0),IY             ; 0F6E FD 22 00 00
01503   0F72 FD 22 7F 00         ld   (127),iy           ; 0F72 FD 22 7F 00
01504   0F76 FD 22 7F 00         LD   (127),IY           ; 0F76 FD 22 7F 00
01505   0F7A FD 22 FF 00         ld   (255),iy           ; 0F7A FD 22 FF 00
01506   0F7E FD 22 FF 00         LD   (255),IY           ; 0F7E FD 22 FF 00
01507   0F82 FD 22 FF 7F         ld   (32767),iy         ; 0F82 FD 22 FF 7F
01508   0F86 FD 22 FF 7F         LD   (32767),IY         ; 0F86 FD 22 FF 7F
01509   0F8A FD 22 FF FF         ld   (65535),iy         ; 0F8A FD 22 FF FF
01510   0F8E FD 22 FF FF         LD   (65535),IY         ; 0F8E FD 22 FF FF
01511   0F92 ED 73 00 80         ld   (-32768),sp        ; 0F92 ED 73 00 80
01512   0F96 ED 73 00 80         LD   (-32768),SP        ; 0F96 ED 73 00 80
01513   0F9A ED 73 80 FF         ld   (-128),sp          ; 0F9A ED 73 80 FF
01514   0F9E ED 73 80 FF         LD   (-128),SP          ; 0F9E ED 73 80 FF
01515   0FA2 ED 73 FF FF         ld   (-1),sp            ; 0FA2 ED 73 FF FF
01516   0FA6 ED 73 FF FF         LD   (-1),SP            ; 0FA6 ED 73 FF FF
01517   0FAA ED 73 00 00         ld   (0),sp             ; 0FAA ED 73 00 00
01518   0FAE ED 73 00 00         LD   (0),SP             ; 0FAE ED 73 00 00
01519   0FB2 ED 73 7F 00         ld   (127),sp           ; 0FB2 ED 73 7F 00
01520   0FB6 ED 73 7F 00         LD   (127),SP           ; 0FB6 ED 73 7F 00
01521   0FBA ED 73 FF 00         ld   (255),sp           ; 0FBA ED 73 FF 00
01522   0FBE ED 73 FF 00         LD   (255),SP           ; 0FBE ED 73 FF 00
01523   0FC2 ED 73 FF 7F         ld   (32767),sp         ; 0FC2 ED 73 FF 7F
01524   0FC6 ED 73 FF 7F         LD   (32767),SP         ; 0FC6 ED 73 FF 7F
01525   0FCA ED 73 FF FF         ld   (65535),sp         ; 0FCA ED 73 FF FF
01526   0FCE ED 73 FF FF         LD   (65535),SP         ; 0FCE ED 73 FF FF
01527   0FD2 02                  ld   (bc),a             ; 0FD2 02
01528   0FD3 02                  LD   (BC),A             ; 0FD3 02
01529   0FD4 12                  ld   (de),a             ; 0FD4 12
01530   0FD5 12                  LD   (DE),A             ; 0FD5 12
01531   0FD6 36 80               ld   (hl),-128          ; 0FD6 36 80
01532   0FD8 36 80               LD   (HL),-128          ; 0FD8 36 80
01533   0FDA 36 FF               ld   (hl),-1            ; 0FDA 36 FF
01534   0FDC 36 FF               LD   (HL),-1            ; 0FDC 36 FF
01535   0FDE 36 00               ld   (hl),0             ; 0FDE 36 00
01536   0FE0 36 00               LD   (HL),0             ; 0FE0 36 00
01537   0FE2 36 7F               ld   (hl),127           ; 0FE2 36 7F
01538   0FE4 36 7F               LD   (HL),127           ; 0FE4 36 7F
01539   0FE6 36 FF               ld   (hl),255           ; 0FE6 36 FF
01540   0FE8 36 FF               LD   (HL),255           ; 0FE8 36 FF
01541   0FEA 77                  ld   (hl),a             ; 0FEA 77
01542   0FEB 77                  LD   (HL),A             ; 0FEB 77
01543   0FEC 70                  ld   (hl),b             ; 0FEC 70
01544   0FED 70                  LD   (HL),B             ; 0FED 70
01545   0FEE 71 23 70 2B         ld   (hl),bc            ; 0FEE 71 23 70 2B
01546   0FF2 71 23 70 2B         LD   (HL),BC            ; 0FF2 71 23 70 2B
01547   0FF6 71                  ld   (hl),c             ; 0FF6 71
01548   0FF7 71                  LD   (HL),C             ; 0FF7 71
01549   0FF8 72                  ld   (hl),d             ; 0FF8 72
01550   0FF9 72                  LD   (HL),D             ; 0FF9 72
01551   0FFA 73 23 72 2B         ld   (hl),de            ; 0FFA 73 23 72 2B
01552   0FFE 73 23 72 2B         LD   (HL),DE            ; 0FFE 73 23 72 2B
01553   1002 73                  ld   (hl),e             ; 1002 73
01554   1003 73                  LD   (HL),E             ; 1003 73
01555   1004 74                  ld   (hl),h             ; 1004 74
01556   1005 74                  LD   (HL),H             ; 1005 74
01557   1006 75                  ld   (hl),l             ; 1006 75
01558   1007 75                  LD   (HL),L             ; 1007 75
01559   1008 DD 36 80 80         ld   (ix+-128),-128     ; 1008 DD 36 80 80
01560   100C DD 36 80 80         LD   (IX+-128),-128     ; 100C DD 36 80 80
01561   1010 DD 36 80 FF         ld   (ix+-128),-1       ; 1010 DD 36 80 FF
01562   1014 DD 36 80 FF         LD   (IX+-128),-1       ; 1014 DD 36 80 FF
01563   1018 DD 36 80 00         ld   (ix+-128),0        ; 1018 DD 36 80 00
01564   101C DD 36 80 00         LD   (IX+-128),0        ; 101C DD 36 80 00
01565   1020 DD 36 80 7F         ld   (ix+-128),127      ; 1020 DD 36 80 7F
01566   1024 DD 36 80 7F         LD   (IX+-128),127      ; 1024 DD 36 80 7F
01567   1028 DD 36 80 FF         ld   (ix+-128),255      ; 1028 DD 36 80 FF
01568   102C DD 36 80 FF         LD   (IX+-128),255      ; 102C DD 36 80 FF
01569   1030 DD 36 FF 80         ld   (ix+-1),-128       ; 1030 DD 36 FF 80
01570   1034 DD 36 FF 80         LD   (IX+-1),-128       ; 1034 DD 36 FF 80
01571   1038 DD 36 FF FF         ld   (ix+-1),-1         ; 1038 DD 36 FF FF
01572   103C DD 36 FF FF         LD   (IX+-1),-1         ; 103C DD 36 FF FF
01573   1040 DD 36 FF 00         ld   (ix+-1),0          ; 1040 DD 36 FF 00
01574   1044 DD 36 FF 00         LD   (IX+-1),0          ; 1044 DD 36 FF 00
01575   1048 DD 36 FF 7F         ld   (ix+-1),127        ; 1048 DD 36 FF 7F
01576   104C DD 36 FF 7F         LD   (IX+-1),127        ; 104C DD 36 FF 7F
01577   1050 DD 36 FF FF         ld   (ix+-1),255        ; 1050 DD 36 FF FF
01578   1054 DD 36 FF FF         LD   (IX+-1),255        ; 1054 DD 36 FF FF
01579   1058 DD 36 00 80         ld   (ix+0),-128        ; 1058 DD 36 00 80
01580   105C DD 36 00 80         LD   (IX+0),-128        ; 105C DD 36 00 80
01581   1060 DD 36 00 FF         ld   (ix+0),-1          ; 1060 DD 36 00 FF
01582   1064 DD 36 00 FF         LD   (IX+0),-1          ; 1064 DD 36 00 FF
01583   1068 DD 36 00 00         ld   (ix+0),0           ; 1068 DD 36 00 00
01584   106C DD 36 00 00         LD   (IX+0),0           ; 106C DD 36 00 00
01585   1070 DD 36 00 7F         ld   (ix+0),127         ; 1070 DD 36 00 7F
01586   1074 DD 36 00 7F         LD   (IX+0),127         ; 1074 DD 36 00 7F
01587   1078 DD 36 00 FF         ld   (ix+0),255         ; 1078 DD 36 00 FF
01588   107C DD 36 00 FF         LD   (IX+0),255         ; 107C DD 36 00 FF
01589   1080 DD 36 7F 80         ld   (ix+127),-128      ; 1080 DD 36 7F 80
01590   1084 DD 36 7F 80         LD   (IX+127),-128      ; 1084 DD 36 7F 80
01591   1088 DD 36 7F FF         ld   (ix+127),-1        ; 1088 DD 36 7F FF
01592   108C DD 36 7F FF         LD   (IX+127),-1        ; 108C DD 36 7F FF
01593   1090 DD 36 7F 00         ld   (ix+127),0         ; 1090 DD 36 7F 00
01594   1094 DD 36 7F 00         LD   (IX+127),0         ; 1094 DD 36 7F 00
01595   1098 DD 36 7F 7F         ld   (ix+127),127       ; 1098 DD 36 7F 7F
01596   109C DD 36 7F 7F         LD   (IX+127),127       ; 109C DD 36 7F 7F
01597   10A0 DD 36 7F FF         ld   (ix+127),255       ; 10A0 DD 36 7F FF
01598   10A4 DD 36 7F FF         LD   (IX+127),255       ; 10A4 DD 36 7F FF
01599   10A8 DD 77 80            ld   (ix+-128),a        ; 10A8 DD 77 80
01600   10AB DD 77 80            LD   (IX+-128),A        ; 10AB DD 77 80
01601   10AE DD 77 FF            ld   (ix+-1),a          ; 10AE DD 77 FF
01602   10B1 DD 77 FF            LD   (IX+-1),A          ; 10B1 DD 77 FF
01603   10B4 DD 77 00            ld   (ix+0),a           ; 10B4 DD 77 00
01604   10B7 DD 77 00            LD   (IX+0),A           ; 10B7 DD 77 00
01605   10BA DD 77 7F            ld   (ix+127),a         ; 10BA DD 77 7F
01606   10BD DD 77 7F            LD   (IX+127),A         ; 10BD DD 77 7F
01607   10C0 DD 70 80            ld   (ix+-128),b        ; 10C0 DD 70 80
01608   10C3 DD 70 80            LD   (IX+-128),B        ; 10C3 DD 70 80
01609   10C6 DD 70 FF            ld   (ix+-1),b          ; 10C6 DD 70 FF
01610   10C9 DD 70 FF            LD   (IX+-1),B          ; 10C9 DD 70 FF
01611   10CC DD 70 00            ld   (ix+0),b           ; 10CC DD 70 00
01612   10CF DD 70 00            LD   (IX+0),B           ; 10CF DD 70 00
01613   10D2 DD 70 7F            ld   (ix+127),b         ; 10D2 DD 70 7F
01614   10D5 DD 70 7F            LD   (IX+127),B         ; 10D5 DD 70 7F
01615   10D8                     ld   (ix+-128),bc       ; 10D8 DD 71 80 DD 70 81
01615   10D8 DD7180DD7081
01616   10DE                     LD   (IX+-128),BC       ; 10DE DD 71 80 DD 70 81
01616   10DE DD7180DD7081
01617   10E4                     ld   (ix+-1),bc         ; 10E4 DD 71 FF DD 70 00
01617   10E4 DD71FFDD7000
01618   10EA                     LD   (IX+-1),BC         ; 10EA DD 71 FF DD 70 00
01618   10EA DD71FFDD7000
01619   10F0                     ld   (ix+0),bc          ; 10F0 DD 71 00 DD 70 01
01619   10F0 DD7100DD7001
01620   10F6                     LD   (IX+0),BC          ; 10F6 DD 71 00 DD 70 01
01620   10F6 DD7100DD7001
01621   10FC                     ld   (ix+126),bc        ; 10FC DD 71 7E DD 70 7F
01621   10FC DD717EDD707F
01622   1102                     LD   (IX+126),BC        ; 1102 DD 71 7E DD 70 7F
01622   1102 DD717EDD707F
01623   1108 DD 71 80            ld   (ix+-128),c        ; 1108 DD 71 80
01624   110B DD 71 80            LD   (IX+-128),C        ; 110B DD 71 80
01625   110E DD 71 FF            ld   (ix+-1),c          ; 110E DD 71 FF
01626   1111 DD 71 FF            LD   (IX+-1),C          ; 1111 DD 71 FF
01627   1114 DD 71 00            ld   (ix+0),c           ; 1114 DD 71 00
01628   1117 DD 71 00            LD   (IX+0),C           ; 1117 DD 71 00
01629   111A DD 71 7F            ld   (ix+127),c         ; 111A DD 71 7F
01630   111D DD 71 7F            LD   (IX+127),C         ; 111D DD 71 7F
01631   1120 DD 72 80            ld   (ix+-128),d        ; 1120 DD 72 80
01632   1123 DD 72 80            LD   (IX+-128),D        ; 1123 DD 72 80
01633   1126 DD 72 FF            ld   (ix+-1),d          ; 1126 DD 72 FF
01634   1129 DD 72 FF            LD   (IX+-1),D          ; 1129 DD 72 FF
01635   112C DD 72 00            ld   (ix+0),d           ; 112C DD 72 00
01636   112F DD 72 00            LD   (IX+0),D           ; 112F DD 72 00
01637   1132 DD 72 7F            ld   (ix+127),d         ; 1132 DD 72 7F
01638   1135 DD 72 7F            LD   (IX+127),D         ; 1135 DD 72 7F
01639   1138                     ld   (ix+-128),de       ; 1138 DD 73 80 DD 72 81
01639   1138 DD7380DD7281
01640   113E                     LD   (IX+-128),DE       ; 113E DD 73 80 DD 72 81
01640   113E DD7380DD7281
01641   1144                     ld   (ix+-1),de         ; 1144 DD 73 FF DD 72 00
01641   1144 DD73FFDD7200
01642   114A                     LD   (IX+-1),DE         ; 114A DD 73 FF DD 72 00
01642   114A DD73FFDD7200
01643   1150                     ld   (ix+0),de          ; 1150 DD 73 00 DD 72 01
01643   1150 DD7300DD7201
01644   1156                     LD   (IX+0),DE          ; 1156 DD 73 00 DD 72 01
01644   1156 DD7300DD7201
01645   115C                     ld   (ix+126),de        ; 115C DD 73 7E DD 72 7F
01645   115C DD737EDD727F
01646   1162                     LD   (IX+126),DE        ; 1162 DD 73 7E DD 72 7F
01646   1162 DD737EDD727F
01647   1168 DD 73 80            ld   (ix+-128),e        ; 1168 DD 73 80
01648   116B DD 73 80            LD   (IX+-128),E        ; 116B DD 73 80
01649   116E DD 73 FF            ld   (ix+-1),e          ; 116E DD 73 FF
01650   1171 DD 73 FF            LD   (IX+-1),E          ; 1171 DD 73 FF
01651   1174 DD 73 00            ld   (ix+0),e           ; 1174 DD 73 00
01652   1177 DD 73 00            LD   (IX+0),E           ; 1177 DD 73 00
01653   117A DD 73 7F            ld   (ix+127),e         ; 117A DD 73 7F
01654   117D DD 73 7F            LD   (IX+127),E         ; 117D DD 73 7F
01655   1180 DD 74 80            ld   (ix+-128),h        ; 1180 DD 74 80
01656   1183 DD 74 80            LD   (IX+-128),H        ; 1183 DD 74 80
01657   1186 DD 74 FF            ld   (ix+-1),h          ; 1186 DD 74 FF
01658   1189 DD 74 FF            LD   (IX+-1),H          ; 1189 DD 74 FF
01659   118C DD 74 00            ld   (ix+0),h           ; 118C DD 74 00
01660   118F DD 74 00            LD   (IX+0),H           ; 118F DD 74 00
01661   1192 DD 74 7F            ld   (ix+127),h         ; 1192 DD 74 7F
01662   1195 DD 74 7F            LD   (IX+127),H         ; 1195 DD 74 7F
01663   1198                     ld   (ix+-128),hl       ; 1198 DD 75 80 DD 74 81
01663   1198 DD7580DD7481
01664   119E                     LD   (IX+-128),HL       ; 119E DD 75 80 DD 74 81
01664   119E DD7580DD7481
01665   11A4                     ld   (ix+-1),hl         ; 11A4 DD 75 FF DD 74 00
01665   11A4 DD75FFDD7400
01666   11AA                     LD   (IX+-1),HL         ; 11AA DD 75 FF DD 74 00
01666   11AA DD75FFDD7400
01667   11B0                     ld   (ix+0),hl          ; 11B0 DD 75 00 DD 74 01
01667   11B0 DD7500DD7401
01668   11B6                     LD   (IX+0),HL          ; 11B6 DD 75 00 DD 74 01
01668   11B6 DD7500DD7401
01669   11BC                     ld   (ix+126),hl        ; 11BC DD 75 7E DD 74 7F
01669   11BC DD757EDD747F
01670   11C2                     LD   (IX+126),HL        ; 11C2 DD 75 7E DD 74 7F
01670   11C2 DD757EDD747F
01671   11C8 DD 75 80            ld   (ix+-128),l        ; 11C8 DD 75 80
01672   11CB DD 75 80            LD   (IX+-128),L        ; 11CB DD 75 80
01673   11CE DD 75 FF            ld   (ix+-1),l          ; 11CE DD 75 FF
01674   11D1 DD 75 FF            LD   (IX+-1),L          ; 11D1 DD 75 FF
01675   11D4 DD 75 00            ld   (ix+0),l           ; 11D4 DD 75 00
01676   11D7 DD 75 00            LD   (IX+0),L           ; 11D7 DD 75 00
01677   11DA DD 75 7F            ld   (ix+127),l         ; 11DA DD 75 7F
01678   11DD DD 75 7F            LD   (IX+127),L         ; 11DD DD 75 7F
01679   11E0 FD 36 80 80         ld   (iy+-128),-128     ; 11E0 FD 36 80 80
01680   11E4 FD 36 80 80         LD   (IY+-128),-128     ; 11E4 FD 36 80 80
01681   11E8 FD 36 80 FF         ld   (iy+-128),-1       ; 11E8 FD 36 80 FF
01682   11EC FD 36 80 FF         LD   (IY+-128),-1       ; 11EC FD 36 80 FF
01683   11F0 FD 36 80 00         ld   (iy+-128),0        ; 11F0 FD 36 80 00
01684   11F4 FD 36 80 00         LD   (IY+-128),0        ; 11F4 FD 36 80 00
01685   11F8 FD 36 80 7F         ld   (iy+-128),127      ; 11F8 FD 36 80 7F
01686   11FC FD 36 80 7F         LD   (IY+-128),127      ; 11FC FD 36 80 7F
01687   1200 FD 36 80 FF         ld   (iy+-128),255      ; 1200 FD 36 80 FF
01688   1204 FD 36 80 FF         LD   (IY+-128),255      ; 1204 FD 36 80 FF
01689   1208 FD 36 FF 80         ld   (iy+-1),-128       ; 1208 FD 36 FF 80
01690   120C FD 36 FF 80         LD   (IY+-1),-128       ; 120C FD 36 FF 80
01691   1210 FD 36 FF FF         ld   (iy+-1),-1         ; 1210 FD 36 FF FF
01692   1214 FD 36 FF FF         LD   (IY+-1),-1         ; 1214 FD 36 FF FF
01693   1218 FD 36 FF 00         ld   (iy+-1),0          ; 1218 FD 36 FF 00
01694   121C FD 36 FF 00         LD   (IY+-1),0          ; 121C FD 36 FF 00
01695   1220 FD 36 FF 7F         ld   (iy+-1),127        ; 1220 FD 36 FF 7F
01696   1224 FD 36 FF 7F         LD   (IY+-1),127        ; 1224 FD 36 FF 7F
01697   1228 FD 36 FF FF         ld   (iy+-1),255        ; 1228 FD 36 FF FF
01698   122C FD 36 FF FF         LD   (IY+-1),255        ; 122C FD 36 FF FF
01699   1230 FD 36 00 80         ld   (iy+0),-128        ; 1230 FD 36 00 80
01700   1234 FD 36 00 80         LD   (IY+0),-128        ; 1234 FD 36 00 80
01701   1238 FD 36 00 FF         ld   (iy+0),-1          ; 1238 FD 36 00 FF
01702   123C FD 36 00 FF         LD   (IY+0),-1          ; 123C FD 36 00 FF
01703   1240 FD 36 00 00         ld   (iy+0),0           ; 1240 FD 36 00 00
01704   1244 FD 36 00 00         LD   (IY+0),0           ; 1244 FD 36 00 00
01705   1248 FD 36 00 7F         ld   (iy+0),127         ; 1248 FD 36 00 7F
01706   124C FD 36 00 7F         LD   (IY+0),127         ; 124C FD 36 00 7F
01707   1250 FD 36 00 FF         ld   (iy+0),255         ; 1250 FD 36 00 FF
01708   1254 FD 36 00 FF         LD   (IY+0),255         ; 1254 FD 36 00 FF
01709   1258 FD 36 7F 80         ld   (iy+127),-128      ; 1258 FD 36 7F 80
01710   125C FD 36 7F 80         LD   (IY+127),-128      ; 125C FD 36 7F 80
01711   1260 FD 36 7F FF         ld   (iy+127),-1        ; 1260 FD 36 7F FF
01712   1264 FD 36 7F FF         LD   (IY+127),-1        ; 1264 FD 36 7F FF
01713   1268 FD 36 7F 00         ld   (iy+127),0         ; 1268 FD 36 7F 00
01714   126C FD 36 7F 00         LD   (IY+127),0         ; 126C FD 36 7F 00
01715   1270 FD 36 7F 7F         ld   (iy+127),127       ; 1270 FD 36 7F 7F
01716   1274 FD 36 7F 7F         LD   (IY+127),127       ; 1274 FD 36 7F 7F
01717   1278 FD 36 7F FF         ld   (iy+127),255       ; 1278 FD 36 7F FF
01718   127C FD 36 7F FF         LD   (IY+127),255       ; 127C FD 36 7F FF
01719   1280 FD 77 80            ld   (iy+-128),a        ; 1280 FD 77 80
01720   1283 FD 77 80            LD   (IY+-128),A        ; 1283 FD 77 80
01721   1286 FD 77 FF            ld   (iy+-1),a          ; 1286 FD 77 FF
01722   1289 FD 77 FF            LD   (IY+-1),A          ; 1289 FD 77 FF
01723   128C FD 77 00            ld   (iy+0),a           ; 128C FD 77 00
01724   128F FD 77 00            LD   (IY+0),A           ; 128F FD 77 00
01725   1292 FD 77 7F            ld   (iy+127),a         ; 1292 FD 77 7F
01726   1295 FD 77 7F            LD   (IY+127),A         ; 1295 FD 77 7F
01727   1298 FD 70 80            ld   (iy+-128),b        ; 1298 FD 70 80
01728   129B FD 70 80            LD   (IY+-128),B        ; 129B FD 70 80
01729   129E FD 70 FF            ld   (iy+-1),b          ; 129E FD 70 FF
01730   12A1 FD 70 FF            LD   (IY+-1),B          ; 12A1 FD 70 FF
01731   12A4 FD 70 00            ld   (iy+0),b           ; 12A4 FD 70 00
01732   12A7 FD 70 00            LD   (IY+0),B           ; 12A7 FD 70 00
01733   12AA FD 70 7F            ld   (iy+127),b         ; 12AA FD 70 7F
01734   12AD FD 70 7F            LD   (IY+127),B         ; 12AD FD 70 7F
01735   12B0                     ld   (iy+-128),bc       ; 12B0 FD 71 80 FD 70 81
01735   12B0 FD7180FD7081
01736   12B6                     LD   (IY+-128),BC       ; 12B6 FD 71 80 FD 70 81
01736   12B6 FD7180FD7081
01737   12BC                     ld   (iy+-1),bc         ; 12BC FD 71 FF FD 70 00
01737   12BC FD71FFFD7000
01738   12C2                     LD   (IY+-1),BC         ; 12C2 FD 71 FF FD 70 00
01738   12C2 FD71FFFD7000
01739   12C8                     ld   (iy+0),bc          ; 12C8 FD 71 00 FD 70 01
01739   12C8 FD7100FD7001
01740   12CE                     LD   (IY+0),BC          ; 12CE FD 71 00 FD 70 01
01740   12CE FD7100FD7001
01741   12D4                     ld   (iy+126),bc        ; 12D4 FD 71 7E FD 70 7F
01741   12D4 FD717EFD707F
01742   12DA                     LD   (IY+126),BC        ; 12DA FD 71 7E FD 70 7F
01742   12DA FD717EFD707F
01743   12E0 FD 71 80            ld   (iy+-128),c        ; 12E0 FD 71 80
01744   12E3 FD 71 80            LD   (IY+-128),C        ; 12E3 FD 71 80
01745   12E6 FD 71 FF            ld   (iy+-1),c          ; 12E6 FD 71 FF
01746   12E9 FD 71 FF            LD   (IY+-1),C          ; 12E9 FD 71 FF
01747   12EC FD 71 00            ld   (iy+0),c           ; 12EC FD 71 00
01748   12EF FD 71 00            LD   (IY+0),C           ; 12EF FD 71 00
01749   12F2 FD 71 7F            ld   (iy+127),c         ; 12F2 FD 71 7F
01750   12F5 FD 71 7F            LD   (IY+127),C         ; 12F5 FD 71 7F
01751   12F8 FD 72 80            ld   (iy+-128),d        ; 12F8 FD 72 80
01752   12FB FD 72 80            LD   (IY+-128),D        ; 12FB FD 72 80
01753   12FE FD 72 FF            ld   (iy+-1),d          ; 12FE FD 72 FF
01754   1301 FD 72 FF            LD   (IY+-1),D          ; 1301 FD 72 FF
01755   1304 FD 72 00            ld   (iy+0),d           ; 1304 FD 72 00
01756   1307 FD 72 00            LD   (IY+0),D           ; 1307 FD 72 00
01757   130A FD 72 7F            ld   (iy+127),d         ; 130A FD 72 7F
01758   130D FD 72 7F            LD   (IY+127),D         ; 130D FD 72 7F
01759   1310                     ld   (iy+-128),de       ; 1310 FD 73 80 FD 72 81
01759   1310 FD7380FD7281
01760   1316                     LD   (IY+-128),DE       ; 1316 FD 73 80 FD 72 81
01760   1316 FD7380FD7281
01761   131C                     ld   (iy+-1),de         ; 131C FD 73 FF FD 72 00
01761   131C FD73FFFD7200
01762   1322                     LD   (IY+-1),DE         ; 1322 FD 73 FF FD 72 00
01762   1322 FD73FFFD7200
01763   1328                     ld   (iy+0),de          ; 1328 FD 73 00 FD 72 01
01763   1328 FD7300FD7201
01764   132E                     LD   (IY+0),DE          ; 132E FD 73 00 FD 72 01
01764   132E FD7300FD7201
01765   1334                     ld   (iy+126),de        ; 1334 FD 73 7E FD 72 7F
01765   1334 FD737EFD727F
01766   133A                     LD   (IY+126),DE        ; 133A FD 73 7E FD 72 7F
01766   133A FD737EFD727F
01767   1340 FD 73 80            ld   (iy+-128),e        ; 1340 FD 73 80
01768   1343 FD 73 80            LD   (IY+-128),E        ; 1343 FD 73 80
01769   1346 FD 73 FF            ld   (iy+-1),e          ; 1346 FD 73 FF
01770   1349 FD 73 FF            LD   (IY+-1),E          ; 1349 FD 73 FF
01771   134C FD 73 00            ld   (iy+0),e           ; 134C FD 73 00
01772   134F FD 73 00            LD   (IY+0),E           ; 134F FD 73 00
01773   1352 FD 73 7F            ld   (iy+127),e         ; 1352 FD 73 7F
01774   1355 FD 73 7F            LD   (IY+127),E         ; 1355 FD 73 7F
01775   1358 FD 74 80            ld   (iy+-128),h        ; 1358 FD 74 80
01776   135B FD 74 80            LD   (IY+-128),H        ; 135B FD 74 80
01777   135E FD 74 FF            ld   (iy+-1),h          ; 135E FD 74 FF
01778   1361 FD 74 FF            LD   (IY+-1),H          ; 1361 FD 74 FF
01779   1364 FD 74 00            ld   (iy+0),h           ; 1364 FD 74 00
01780   1367 FD 74 00            LD   (IY+0),H           ; 1367 FD 74 00
01781   136A FD 74 7F            ld   (iy+127),h         ; 136A FD 74 7F
01782   136D FD 74 7F            LD   (IY+127),H         ; 136D FD 74 7F
01783   1370                     ld   (iy+-128),hl       ; 1370 FD 75 80 FD 74 81
01783   1370 FD7580FD7481
01784   1376                     LD   (IY+-128),HL       ; 1376 FD 75 80 FD 74 81
01784   1376 FD7580FD7481
01785   137C                     ld   (iy+-1),hl         ; 137C FD 75 FF FD 74 00
01785   137C FD75FFFD7400
01786   1382                     LD   (IY+-1),HL         ; 1382 FD 75 FF FD 74 00
01786   1382 FD75FFFD7400
01787   1388                     ld   (iy+0),hl          ; 1388 FD 75 00 FD 74 01
01787   1388 FD7500FD7401
01788   138E                     LD   (IY+0),HL          ; 138E FD 75 00 FD 74 01
01788   138E FD7500FD7401
01789   1394                     ld   (iy+126),hl        ; 1394 FD 75 7E FD 74 7F
01789   1394 FD757EFD747F
01790   139A                     LD   (IY+126),HL        ; 139A FD 75 7E FD 74 7F
01790   139A FD757EFD747F
01791   13A0 FD 75 80            ld   (iy+-128),l        ; 13A0 FD 75 80
01792   13A3 FD 75 80            LD   (IY+-128),L        ; 13A3 FD 75 80
01793   13A6 FD 75 FF            ld   (iy+-1),l          ; 13A6 FD 75 FF
01794   13A9 FD 75 FF            LD   (IY+-1),L          ; 13A9 FD 75 FF
01795   13AC FD 75 00            ld   (iy+0),l           ; 13AC FD 75 00
01796   13AF FD 75 00            LD   (IY+0),L           ; 13AF FD 75 00
01797   13B2 FD 75 7F            ld   (iy+127),l         ; 13B2 FD 75 7F
01798   13B5 FD 75 7F            LD   (IY+127),L         ; 13B5 FD 75 7F
01799   13B8 32 00 80            ld   [-32768],a         ; 13B8 32 00 80
01800   13BB 32 00 80            LD   [-32768],A         ; 13BB 32 00 80
01801   13BE 32 80 FF            ld   [-128],a           ; 13BE 32 80 FF
01802   13C1 32 80 FF            LD   [-128],A           ; 13C1 32 80 FF
01803   13C4 32 FF FF            ld   [-1],a             ; 13C4 32 FF FF
01804   13C7 32 FF FF            LD   [-1],A             ; 13C7 32 FF FF
01805   13CA 32 00 00            ld   [0],a              ; 13CA 32 00 00
01806   13CD 32 00 00            LD   [0],A              ; 13CD 32 00 00
01807   13D0 32 7F 00            ld   [127],a            ; 13D0 32 7F 00
01808   13D3 32 7F 00            LD   [127],A            ; 13D3 32 7F 00
01809   13D6 32 FF 00            ld   [255],a            ; 13D6 32 FF 00
01810   13D9 32 FF 00            LD   [255],A            ; 13D9 32 FF 00
01811   13DC 32 FF 7F            ld   [32767],a          ; 13DC 32 FF 7F
01812   13DF 32 FF 7F            LD   [32767],A          ; 13DF 32 FF 7F
01813   13E2 32 FF FF            ld   [65535],a          ; 13E2 32 FF FF
01814   13E5 32 FF FF            LD   [65535],A          ; 13E5 32 FF FF
01815   13E8 ED 43 00 80         ld   [-32768],bc        ; 13E8 ED 43 00 80
01816   13EC ED 43 00 80         LD   [-32768],BC        ; 13EC ED 43 00 80
01817   13F0 ED 43 80 FF         ld   [-128],bc          ; 13F0 ED 43 80 FF
01818   13F4 ED 43 80 FF         LD   [-128],BC          ; 13F4 ED 43 80 FF
01819   13F8 ED 43 FF FF         ld   [-1],bc            ; 13F8 ED 43 FF FF
01820   13FC ED 43 FF FF         LD   [-1],BC            ; 13FC ED 43 FF FF
01821   1400 ED 43 00 00         ld   [0],bc             ; 1400 ED 43 00 00
01822   1404 ED 43 00 00         LD   [0],BC             ; 1404 ED 43 00 00
01823   1408 ED 43 7F 00         ld   [127],bc           ; 1408 ED 43 7F 00
01824   140C ED 43 7F 00         LD   [127],BC           ; 140C ED 43 7F 00
01825   1410 ED 43 FF 00         ld   [255],bc           ; 1410 ED 43 FF 00
01826   1414 ED 43 FF 00         LD   [255],BC           ; 1414 ED 43 FF 00
01827   1418 ED 43 FF 7F         ld   [32767],bc         ; 1418 ED 43 FF 7F
01828   141C ED 43 FF 7F         LD   [32767],BC         ; 141C ED 43 FF 7F
01829   1420 ED 43 FF FF         ld   [65535],bc         ; 1420 ED 43 FF FF
01830   1424 ED 43 FF FF         LD   [65535],BC         ; 1424 ED 43 FF FF
01831   1428 ED 53 00 80         ld   [-32768],de        ; 1428 ED 53 00 80
01832   142C ED 53 00 80         LD   [-32768],DE        ; 142C ED 53 00 80
01833   1430 ED 53 80 FF         ld   [-128],de          ; 1430 ED 53 80 FF
01834   1434 ED 53 80 FF         LD   [-128],DE          ; 1434 ED 53 80 FF
01835   1438 ED 53 FF FF         ld   [-1],de            ; 1438 ED 53 FF FF
01836   143C ED 53 FF FF         LD   [-1],DE            ; 143C ED 53 FF FF
01837   1440 ED 53 00 00         ld   [0],de             ; 1440 ED 53 00 00
01838   1444 ED 53 00 00         LD   [0],DE             ; 1444 ED 53 00 00
01839   1448 ED 53 7F 00         ld   [127],de           ; 1448 ED 53 7F 00
01840   144C ED 53 7F 00         LD   [127],DE           ; 144C ED 53 7F 00
01841   1450 ED 53 FF 00         ld   [255],de           ; 1450 ED 53 FF 00
01842   1454 ED 53 FF 00         LD   [255],DE           ; 1454 ED 53 FF 00
01843   1458 ED 53 FF 7F         ld   [32767],de         ; 1458 ED 53 FF 7F
01844   145C ED 53 FF 7F         LD   [32767],DE         ; 145C ED 53 FF 7F
01845   1460 ED 53 FF FF         ld   [65535],de         ; 1460 ED 53 FF FF
01846   1464 ED 53 FF FF         LD   [65535],DE         ; 1464 ED 53 FF FF
01847   1468 22 00 80            ld   [-32768],hl        ; 1468 22 00 80
01848   146B 22 00 80            LD   [-32768],HL        ; 146B 22 00 80
01849   146E 22 80 FF            ld   [-128],hl          ; 146E 22 80 FF
01850   1471 22 80 FF            LD   [-128],HL          ; 1471 22 80 FF
01851   1474 22 FF FF            ld   [-1],hl            ; 1474 22 FF FF
01852   1477 22 FF FF            LD   [-1],HL            ; 1477 22 FF FF
01853   147A 22 00 00            ld   [0],hl             ; 147A 22 00 00
01854   147D 22 00 00            LD   [0],HL             ; 147D 22 00 00
01855   1480 22 7F 00            ld   [127],hl           ; 1480 22 7F 00
01856   1483 22 7F 00            LD   [127],HL           ; 1483 22 7F 00
01857   1486 22 FF 00            ld   [255],hl           ; 1486 22 FF 00
01858   1489 22 FF 00            LD   [255],HL           ; 1489 22 FF 00
01859   148C 22 FF 7F            ld   [32767],hl         ; 148C 22 FF 7F
01860   148F 22 FF 7F            LD   [32767],HL         ; 148F 22 FF 7F
01861   1492 22 FF FF            ld   [65535],hl         ; 1492 22 FF FF
01862   1495 22 FF FF            LD   [65535],HL         ; 1495 22 FF FF
01863   1498 DD 22 00 80         ld   [-32768],ix        ; 1498 DD 22 00 80
01864   149C DD 22 00 80         LD   [-32768],IX        ; 149C DD 22 00 80
01865   14A0 DD 22 80 FF         ld   [-128],ix          ; 14A0 DD 22 80 FF
01866   14A4 DD 22 80 FF         LD   [-128],IX          ; 14A4 DD 22 80 FF
01867   14A8 DD 22 FF FF         ld   [-1],ix            ; 14A8 DD 22 FF FF
01868   14AC DD 22 FF FF         LD   [-1],IX            ; 14AC DD 22 FF FF
01869   14B0 DD 22 00 00         ld   [0],ix             ; 14B0 DD 22 00 00
01870   14B4 DD 22 00 00         LD   [0],IX             ; 14B4 DD 22 00 00
01871   14B8 DD 22 7F 00         ld   [127],ix           ; 14B8 DD 22 7F 00
01872   14BC DD 22 7F 00         LD   [127],IX           ; 14BC DD 22 7F 00
01873   14C0 DD 22 FF 00         ld   [255],ix           ; 14C0 DD 22 FF 00
01874   14C4 DD 22 FF 00         LD   [255],IX           ; 14C4 DD 22 FF 00
01875   14C8 DD 22 FF 7F         ld   [32767],ix         ; 14C8 DD 22 FF 7F
01876   14CC DD 22 FF 7F         LD   [32767],IX         ; 14CC DD 22 FF 7F
01877   14D0 DD 22 FF FF         ld   [65535],ix         ; 14D0 DD 22 FF FF
01878   14D4 DD 22 FF FF         LD   [65535],IX         ; 14D4 DD 22 FF FF
01879   14D8 FD 22 00 80         ld   [-32768],iy        ; 14D8 FD 22 00 80
01880   14DC FD 22 00 80         LD   [-32768],IY        ; 14DC FD 22 00 80
01881   14E0 FD 22 80 FF         ld   [-128],iy          ; 14E0 FD 22 80 FF
01882   14E4 FD 22 80 FF         LD   [-128],IY          ; 14E4 FD 22 80 FF
01883   14E8 FD 22 FF FF         ld   [-1],iy            ; 14E8 FD 22 FF FF
01884   14EC FD 22 FF FF         LD   [-1],IY            ; 14EC FD 22 FF FF
01885   14F0 FD 22 00 00         ld   [0],iy             ; 14F0 FD 22 00 00
01886   14F4 FD 22 00 00         LD   [0],IY             ; 14F4 FD 22 00 00
01887   14F8 FD 22 7F 00         ld   [127],iy           ; 14F8 FD 22 7F 00
01888   14FC FD 22 7F 00         LD   [127],IY           ; 14FC FD 22 7F 00
01889   1500 FD 22 FF 00         ld   [255],iy           ; 1500 FD 22 FF 00
01890   1504 FD 22 FF 00         LD   [255],IY           ; 1504 FD 22 FF 00
01891   1508 FD 22 FF 7F         ld   [32767],iy         ; 1508 FD 22 FF 7F
01892   150C FD 22 FF 7F         LD   [32767],IY         ; 150C FD 22 FF 7F
01893   1510 FD 22 FF FF         ld   [65535],iy         ; 1510 FD 22 FF FF
01894   1514 FD 22 FF FF         LD   [65535],IY         ; 1514 FD 22 FF FF
01895   1518 ED 73 00 80         ld   [-32768],sp        ; 1518 ED 73 00 80
01896   151C ED 73 00 80         LD   [-32768],SP        ; 151C ED 73 00 80
01897   1520 ED 73 80 FF         ld   [-128],sp          ; 1520 ED 73 80 FF
01898   1524 ED 73 80 FF         LD   [-128],SP          ; 1524 ED 73 80 FF
01899   1528 ED 73 FF FF         ld   [-1],sp            ; 1528 ED 73 FF FF
01900   152C ED 73 FF FF         LD   [-1],SP            ; 152C ED 73 FF FF
01901   1530 ED 73 00 00         ld   [0],sp             ; 1530 ED 73 00 00
01902   1534 ED 73 00 00         LD   [0],SP             ; 1534 ED 73 00 00
01903   1538 ED 73 7F 00         ld   [127],sp           ; 1538 ED 73 7F 00
01904   153C ED 73 7F 00         LD   [127],SP           ; 153C ED 73 7F 00
01905   1540 ED 73 FF 00         ld   [255],sp           ; 1540 ED 73 FF 00
01906   1544 ED 73 FF 00         LD   [255],SP           ; 1544 ED 73 FF 00
01907   1548 ED 73 FF 7F         ld   [32767],sp         ; 1548 ED 73 FF 7F
01908   154C ED 73 FF 7F         LD   [32767],SP         ; 154C ED 73 FF 7F
01909   1550 ED 73 FF FF         ld   [65535],sp         ; 1550 ED 73 FF FF
01910   1554 ED 73 FF FF         LD   [65535],SP         ; 1554 ED 73 FF FF
01911   1558 02                  ld   [bc],a             ; 1558 02
01912   1559 02                  LD   [BC],A             ; 1559 02
01913   155A 12                  ld   [de],a             ; 155A 12
01914   155B 12                  LD   [DE],A             ; 155B 12
01915   155C 36 80               ld   [hl],-128          ; 155C 36 80
01916   155E 36 80               LD   [HL],-128          ; 155E 36 80
01917   1560 36 FF               ld   [hl],-1            ; 1560 36 FF
01918   1562 36 FF               LD   [HL],-1            ; 1562 36 FF
01919   1564 36 00               ld   [hl],0             ; 1564 36 00
01920   1566 36 00               LD   [HL],0             ; 1566 36 00
01921   1568 36 7F               ld   [hl],127           ; 1568 36 7F
01922   156A 36 7F               LD   [HL],127           ; 156A 36 7F
01923   156C 36 FF               ld   [hl],255           ; 156C 36 FF
01924   156E 36 FF               LD   [HL],255           ; 156E 36 FF
01925   1570 77                  ld   [hl],a             ; 1570 77
01926   1571 77                  LD   [HL],A             ; 1571 77
01927   1572 70                  ld   [hl],b             ; 1572 70
01928   1573 70                  LD   [HL],B             ; 1573 70
01929   1574 71 23 70 2B         ld   [hl],bc            ; 1574 71 23 70 2B
01930   1578 71 23 70 2B         LD   [HL],BC            ; 1578 71 23 70 2B
01931   157C 71                  ld   [hl],c             ; 157C 71
01932   157D 71                  LD   [HL],C             ; 157D 71
01933   157E 72                  ld   [hl],d             ; 157E 72
01934   157F 72                  LD   [HL],D             ; 157F 72
01935   1580 73 23 72 2B         ld   [hl],de            ; 1580 73 23 72 2B
01936   1584 73 23 72 2B         LD   [HL],DE            ; 1584 73 23 72 2B
01937   1588 73                  ld   [hl],e             ; 1588 73
01938   1589 73                  LD   [HL],E             ; 1589 73
01939   158A 74                  ld   [hl],h             ; 158A 74
01940   158B 74                  LD   [HL],H             ; 158B 74
01941   158C 75                  ld   [hl],l             ; 158C 75
01942   158D 75                  LD   [HL],L             ; 158D 75
01943   158E DD 36 80 80         ld   [ix+-128],-128     ; 158E DD 36 80 80
01944   1592 DD 36 80 80         LD   [IX+-128],-128     ; 1592 DD 36 80 80
01945   1596 DD 36 80 FF         ld   [ix+-128],-1       ; 1596 DD 36 80 FF
01946   159A DD 36 80 FF         LD   [IX+-128],-1       ; 159A DD 36 80 FF
01947   159E DD 36 80 00         ld   [ix+-128],0        ; 159E DD 36 80 00
01948   15A2 DD 36 80 00         LD   [IX+-128],0        ; 15A2 DD 36 80 00
01949   15A6 DD 36 80 7F         ld   [ix+-128],127      ; 15A6 DD 36 80 7F
01950   15AA DD 36 80 7F         LD   [IX+-128],127      ; 15AA DD 36 80 7F
01951   15AE DD 36 80 FF         ld   [ix+-128],255      ; 15AE DD 36 80 FF
01952   15B2 DD 36 80 FF         LD   [IX+-128],255      ; 15B2 DD 36 80 FF
01953   15B6 DD 36 FF 80         ld   [ix+-1],-128       ; 15B6 DD 36 FF 80
01954   15BA DD 36 FF 80         LD   [IX+-1],-128       ; 15BA DD 36 FF 80
01955   15BE DD 36 FF FF         ld   [ix+-1],-1         ; 15BE DD 36 FF FF
01956   15C2 DD 36 FF FF         LD   [IX+-1],-1         ; 15C2 DD 36 FF FF
01957   15C6 DD 36 FF 00         ld   [ix+-1],0          ; 15C6 DD 36 FF 00
01958   15CA DD 36 FF 00         LD   [IX+-1],0          ; 15CA DD 36 FF 00
01959   15CE DD 36 FF 7F         ld   [ix+-1],127        ; 15CE DD 36 FF 7F
01960   15D2 DD 36 FF 7F         LD   [IX+-1],127        ; 15D2 DD 36 FF 7F
01961   15D6 DD 36 FF FF         ld   [ix+-1],255        ; 15D6 DD 36 FF FF
01962   15DA DD 36 FF FF         LD   [IX+-1],255        ; 15DA DD 36 FF FF
01963   15DE DD 36 00 80         ld   [ix+0],-128        ; 15DE DD 36 00 80
01964   15E2 DD 36 00 80         LD   [IX+0],-128        ; 15E2 DD 36 00 80
01965   15E6 DD 36 00 FF         ld   [ix+0],-1          ; 15E6 DD 36 00 FF
01966   15EA DD 36 00 FF         LD   [IX+0],-1          ; 15EA DD 36 00 FF
01967   15EE DD 36 00 00         ld   [ix+0],0           ; 15EE DD 36 00 00
01968   15F2 DD 36 00 00         LD   [IX+0],0           ; 15F2 DD 36 00 00
01969   15F6 DD 36 00 7F         ld   [ix+0],127         ; 15F6 DD 36 00 7F
01970   15FA DD 36 00 7F         LD   [IX+0],127         ; 15FA DD 36 00 7F
01971   15FE DD 36 00 FF         ld   [ix+0],255         ; 15FE DD 36 00 FF
01972   1602 DD 36 00 FF         LD   [IX+0],255         ; 1602 DD 36 00 FF
01973   1606 DD 36 7F 80         ld   [ix+127],-128      ; 1606 DD 36 7F 80
01974   160A DD 36 7F 80         LD   [IX+127],-128      ; 160A DD 36 7F 80
01975   160E DD 36 7F FF         ld   [ix+127],-1        ; 160E DD 36 7F FF
01976   1612 DD 36 7F FF         LD   [IX+127],-1        ; 1612 DD 36 7F FF
01977   1616 DD 36 7F 00         ld   [ix+127],0         ; 1616 DD 36 7F 00
01978   161A DD 36 7F 00         LD   [IX+127],0         ; 161A DD 36 7F 00
01979   161E DD 36 7F 7F         ld   [ix+127],127       ; 161E DD 36 7F 7F
01980   1622 DD 36 7F 7F         LD   [IX+127],127       ; 1622 DD 36 7F 7F
01981   1626 DD 36 7F FF         ld   [ix+127],255       ; 1626 DD 36 7F FF
01982   162A DD 36 7F FF         LD   [IX+127],255       ; 162A DD 36 7F FF
01983   162E DD 77 80            ld   [ix+-128],a        ; 162E DD 77 80
01984   1631 DD 77 80            LD   [IX+-128],A        ; 1631 DD 77 80
01985   1634 DD 77 FF            ld   [ix+-1],a          ; 1634 DD 77 FF
01986   1637 DD 77 FF            LD   [IX+-1],A          ; 1637 DD 77 FF
01987   163A DD 77 00            ld   [ix+0],a           ; 163A DD 77 00
01988   163D DD 77 00            LD   [IX+0],A           ; 163D DD 77 00
01989   1640 DD 77 7F            ld   [ix+127],a         ; 1640 DD 77 7F
01990   1643 DD 77 7F            LD   [IX+127],A         ; 1643 DD 77 7F
01991   1646 DD 70 80            ld   [ix+-128],b        ; 1646 DD 70 80
01992   1649 DD 70 80            LD   [IX+-128],B        ; 1649 DD 70 80
01993   164C DD 70 FF            ld   [ix+-1],b          ; 164C DD 70 FF
01994   164F DD 70 FF            LD   [IX+-1],B          ; 164F DD 70 FF
01995   1652 DD 70 00            ld   [ix+0],b           ; 1652 DD 70 00
01996   1655 DD 70 00            LD   [IX+0],B           ; 1655 DD 70 00
01997   1658 DD 70 7F            ld   [ix+127],b         ; 1658 DD 70 7F
01998   165B DD 70 7F            LD   [IX+127],B         ; 165B DD 70 7F
01999   165E                     ld   [ix+-128],bc       ; 165E DD 71 80 DD 70 81
01999   165E DD7180DD7081
02000   1664                     LD   [IX+-128],BC       ; 1664 DD 71 80 DD 70 81
02000   1664 DD7180DD7081
02001   166A                     ld   [ix+-1],bc         ; 166A DD 71 FF DD 70 00
02001   166A DD71FFDD7000
02002   1670                     LD   [IX+-1],BC         ; 1670 DD 71 FF DD 70 00
02002   1670 DD71FFDD7000
02003   1676                     ld   [ix+0],bc          ; 1676 DD 71 00 DD 70 01
02003   1676 DD7100DD7001
02004   167C                     LD   [IX+0],BC          ; 167C DD 71 00 DD 70 01
02004   167C DD7100DD7001
02005   1682                     ld   [ix+126],bc        ; 1682 DD 71 7E DD 70 7F
02005   1682 DD717EDD707F
02006   1688                     LD   [IX+126],BC        ; 1688 DD 71 7E DD 70 7F
02006   1688 DD717EDD707F
02007   168E DD 71 80            ld   [ix+-128],c        ; 168E DD 71 80
02008   1691 DD 71 80            LD   [IX+-128],C        ; 1691 DD 71 80
02009   1694 DD 71 FF            ld   [ix+-1],c          ; 1694 DD 71 FF
02010   1697 DD 71 FF            LD   [IX+-1],C          ; 1697 DD 71 FF
02011   169A DD 71 00            ld   [ix+0],c           ; 169A DD 71 00
02012   169D DD 71 00            LD   [IX+0],C           ; 169D DD 71 00
02013   16A0 DD 71 7F            ld   [ix+127],c         ; 16A0 DD 71 7F
02014   16A3 DD 71 7F            LD   [IX+127],C         ; 16A3 DD 71 7F
02015   16A6 DD 72 80            ld   [ix+-128],d        ; 16A6 DD 72 80
02016   16A9 DD 72 80            LD   [IX+-128],D        ; 16A9 DD 72 80
02017   16AC DD 72 FF            ld   [ix+-1],d          ; 16AC DD 72 FF
02018   16AF DD 72 FF            LD   [IX+-1],D          ; 16AF DD 72 FF
02019   16B2 DD 72 00            ld   [ix+0],d           ; 16B2 DD 72 00
02020   16B5 DD 72 00            LD   [IX+0],D           ; 16B5 DD 72 00
02021   16B8 DD 72 7F            ld   [ix+127],d         ; 16B8 DD 72 7F
02022   16BB DD 72 7F            LD   [IX+127],D         ; 16BB DD 72 7F
02023   16BE                     ld   [ix+-128],de       ; 16BE DD 73 80 DD 72 81
02023   16BE DD7380DD7281
02024   16C4                     LD   [IX+-128],DE       ; 16C4 DD 73 80 DD 72 81
02024   16C4 DD7380DD7281
02025   16CA                     ld   [ix+-1],de         ; 16CA DD 73 FF DD 72 00
02025   16CA DD73FFDD7200
02026   16D0                     LD   [IX+-1],DE         ; 16D0 DD 73 FF DD 72 00
02026   16D0 DD73FFDD7200
02027   16D6                     ld   [ix+0],de          ; 16D6 DD 73 00 DD 72 01
02027   16D6 DD7300DD7201
02028   16DC                     LD   [IX+0],DE          ; 16DC DD 73 00 DD 72 01
02028   16DC DD7300DD7201
02029   16E2                     ld   [ix+126],de        ; 16E2 DD 73 7E DD 72 7F
02029   16E2 DD737EDD727F
02030   16E8                     LD   [IX+126],DE        ; 16E8 DD 73 7E DD 72 7F
02030   16E8 DD737EDD727F
02031   16EE DD 73 80            ld   [ix+-128],e        ; 16EE DD 73 80
02032   16F1 DD 73 80            LD   [IX+-128],E        ; 16F1 DD 73 80
02033   16F4 DD 73 FF            ld   [ix+-1],e          ; 16F4 DD 73 FF
02034   16F7 DD 73 FF            LD   [IX+-1],E          ; 16F7 DD 73 FF
02035   16FA DD 73 00            ld   [ix+0],e           ; 16FA DD 73 00
02036   16FD DD 73 00            LD   [IX+0],E           ; 16FD DD 73 00
02037   1700 DD 73 7F            ld   [ix+127],e         ; 1700 DD 73 7F
02038   1703 DD 73 7F            LD   [IX+127],E         ; 1703 DD 73 7F
02039   1706 DD 74 80            ld   [ix+-128],h        ; 1706 DD 74 80
02040   1709 DD 74 80            LD   [IX+-128],H        ; 1709 DD 74 80
02041   170C DD 74 FF            ld   [ix+-1],h          ; 170C DD 74 FF
02042   170F DD 74 FF            LD   [IX+-1],H          ; 170F DD 74 FF
02043   1712 DD 74 00            ld   [ix+0],h           ; 1712 DD 74 00
02044   1715 DD 74 00            LD   [IX+0],H           ; 1715 DD 74 00
02045   1718 DD 74 7F            ld   [ix+127],h         ; 1718 DD 74 7F
02046   171B DD 74 7F            LD   [IX+127],H         ; 171B DD 74 7F
02047   171E                     ld   [ix+-128],hl       ; 171E DD 75 80 DD 74 81
02047   171E DD7580DD7481
02048   1724                     LD   [IX+-128],HL       ; 1724 DD 75 80 DD 74 81
02048   1724 DD7580DD7481
02049   172A                     ld   [ix+-1],hl         ; 172A DD 75 FF DD 74 00
02049   172A DD75FFDD7400
02050   1730                     LD   [IX+-1],HL         ; 1730 DD 75 FF DD 74 00
02050   1730 DD75FFDD7400
02051   1736                     ld   [ix+0],hl          ; 1736 DD 75 00 DD 74 01
02051   1736 DD7500DD7401
02052   173C                     LD   [IX+0],HL          ; 173C DD 75 00 DD 74 01
02052   173C DD7500DD7401
02053   1742                     ld   [ix+126],hl        ; 1742 DD 75 7E DD 74 7F
02053   1742 DD757EDD747F
02054   1748                     LD   [IX+126],HL        ; 1748 DD 75 7E DD 74 7F
02054   1748 DD757EDD747F
02055   174E DD 75 80            ld   [ix+-128],l        ; 174E DD 75 80
02056   1751 DD 75 80            LD   [IX+-128],L        ; 1751 DD 75 80
02057   1754 DD 75 FF            ld   [ix+-1],l          ; 1754 DD 75 FF
02058   1757 DD 75 FF            LD   [IX+-1],L          ; 1757 DD 75 FF
02059   175A DD 75 00            ld   [ix+0],l           ; 175A DD 75 00
02060   175D DD 75 00            LD   [IX+0],L           ; 175D DD 75 00
02061   1760 DD 75 7F            ld   [ix+127],l         ; 1760 DD 75 7F
02062   1763 DD 75 7F            LD   [IX+127],L         ; 1763 DD 75 7F
02063   1766 FD 36 80 80         ld   [iy+-128],-128     ; 1766 FD 36 80 80
02064   176A FD 36 80 80         LD   [IY+-128],-128     ; 176A FD 36 80 80
02065   176E FD 36 80 FF         ld   [iy+-128],-1       ; 176E FD 36 80 FF
02066   1772 FD 36 80 FF         LD   [IY+-128],-1       ; 1772 FD 36 80 FF
02067   1776 FD 36 80 00         ld   [iy+-128],0        ; 1776 FD 36 80 00
02068   177A FD 36 80 00         LD   [IY+-128],0        ; 177A FD 36 80 00
02069   177E FD 36 80 7F         ld   [iy+-128],127      ; 177E FD 36 80 7F
02070   1782 FD 36 80 7F         LD   [IY+-128],127      ; 1782 FD 36 80 7F
02071   1786 FD 36 80 FF         ld   [iy+-128],255      ; 1786 FD 36 80 FF
02072   178A FD 36 80 FF         LD   [IY+-128],255      ; 178A FD 36 80 FF
02073   178E FD 36 FF 80         ld   [iy+-1],-128       ; 178E FD 36 FF 80
02074   1792 FD 36 FF 80         LD   [IY+-1],-128       ; 1792 FD 36 FF 80
02075   1796 FD 36 FF FF         ld   [iy+-1],-1         ; 1796 FD 36 FF FF
02076   179A FD 36 FF FF         LD   [IY+-1],-1         ; 179A FD 36 FF FF
02077   179E FD 36 FF 00         ld   [iy+-1],0          ; 179E FD 36 FF 00
02078   17A2 FD 36 FF 00         LD   [IY+-1],0          ; 17A2 FD 36 FF 00
02079   17A6 FD 36 FF 7F         ld   [iy+-1],127        ; 17A6 FD 36 FF 7F
02080   17AA FD 36 FF 7F         LD   [IY+-1],127        ; 17AA FD 36 FF 7F
02081   17AE FD 36 FF FF         ld   [iy+-1],255        ; 17AE FD 36 FF FF
02082   17B2 FD 36 FF FF         LD   [IY+-1],255        ; 17B2 FD 36 FF FF
02083   17B6 FD 36 00 80         ld   [iy+0],-128        ; 17B6 FD 36 00 80
02084   17BA FD 36 00 80         LD   [IY+0],-128        ; 17BA FD 36 00 80
02085   17BE FD 36 00 FF         ld   [iy+0],-1          ; 17BE FD 36 00 FF
02086   17C2 FD 36 00 FF         LD   [IY+0],-1          ; 17C2 FD 36 00 FF
02087   17C6 FD 36 00 00         ld   [iy+0],0           ; 17C6 FD 36 00 00
02088   17CA FD 36 00 00         LD   [IY+0],0           ; 17CA FD 36 00 00
02089   17CE FD 36 00 7F         ld   [iy+0],127         ; 17CE FD 36 00 7F
02090   17D2 FD 36 00 7F         LD   [IY+0],127         ; 17D2 FD 36 00 7F
02091   17D6 FD 36 00 FF         ld   [iy+0],255         ; 17D6 FD 36 00 FF
02092   17DA FD 36 00 FF         LD   [IY+0],255         ; 17DA FD 36 00 FF
02093   17DE FD 36 7F 80         ld   [iy+127],-128      ; 17DE FD 36 7F 80
02094   17E2 FD 36 7F 80         LD   [IY+127],-128      ; 17E2 FD 36 7F 80
02095   17E6 FD 36 7F FF         ld   [iy+127],-1        ; 17E6 FD 36 7F FF
02096   17EA FD 36 7F FF         LD   [IY+127],-1        ; 17EA FD 36 7F FF
02097   17EE FD 36 7F 00         ld   [iy+127],0         ; 17EE FD 36 7F 00
02098   17F2 FD 36 7F 00         LD   [IY+127],0         ; 17F2 FD 36 7F 00
02099   17F6 FD 36 7F 7F         ld   [iy+127],127       ; 17F6 FD 36 7F 7F
02100   17FA FD 36 7F 7F         LD   [IY+127],127       ; 17FA FD 36 7F 7F
02101   17FE FD 36 7F FF         ld   [iy+127],255       ; 17FE FD 36 7F FF
02102   1802 FD 36 7F FF         LD   [IY+127],255       ; 1802 FD 36 7F FF
02103   1806 FD 77 80            ld   [iy+-128],a        ; 1806 FD 77 80
02104   1809 FD 77 80            LD   [IY+-128],A        ; 1809 FD 77 80
02105   180C FD 77 FF            ld   [iy+-1],a          ; 180C FD 77 FF
02106   180F FD 77 FF            LD   [IY+-1],A          ; 180F FD 77 FF
02107   1812 FD 77 00            ld   [iy+0],a           ; 1812 FD 77 00
02108   1815 FD 77 00            LD   [IY+0],A           ; 1815 FD 77 00
02109   1818 FD 77 7F            ld   [iy+127],a         ; 1818 FD 77 7F
02110   181B FD 77 7F            LD   [IY+127],A         ; 181B FD 77 7F
02111   181E FD 70 80            ld   [iy+-128],b        ; 181E FD 70 80
02112   1821 FD 70 80            LD   [IY+-128],B        ; 1821 FD 70 80
02113   1824 FD 70 FF            ld   [iy+-1],b          ; 1824 FD 70 FF
02114   1827 FD 70 FF            LD   [IY+-1],B          ; 1827 FD 70 FF
02115   182A FD 70 00            ld   [iy+0],b           ; 182A FD 70 00
02116   182D FD 70 00            LD   [IY+0],B           ; 182D FD 70 00
02117   1830 FD 70 7F            ld   [iy+127],b         ; 1830 FD 70 7F
02118   1833 FD 70 7F            LD   [IY+127],B         ; 1833 FD 70 7F
02119   1836                     ld   [iy+-128],bc       ; 1836 FD 71 80 FD 70 81
02119   1836 FD7180FD7081
02120   183C                     LD   [IY+-128],BC       ; 183C FD 71 80 FD 70 81
02120   183C FD7180FD7081
02121   1842                     ld   [iy+-1],bc         ; 1842 FD 71 FF FD 70 00
02121   1842 FD71FFFD7000
02122   1848                     LD   [IY+-1],BC         ; 1848 FD 71 FF FD 70 00
02122   1848 FD71FFFD7000
02123   184E                     ld   [iy+0],bc          ; 184E FD 71 00 FD 70 01
02123   184E FD7100FD7001
02124   1854                     LD   [IY+0],BC          ; 1854 FD 71 00 FD 70 01
02124   1854 FD7100FD7001
02125   185A                     ld   [iy+126],bc        ; 185A FD 71 7E FD 70 7F
02125   185A FD717EFD707F
02126   1860                     LD   [IY+126],BC        ; 1860 FD 71 7E FD 70 7F
02126   1860 FD717EFD707F
02127   1866 FD 71 80            ld   [iy+-128],c        ; 1866 FD 71 80
02128   1869 FD 71 80            LD   [IY+-128],C        ; 1869 FD 71 80
02129   186C FD 71 FF            ld   [iy+-1],c          ; 186C FD 71 FF
02130   186F FD 71 FF            LD   [IY+-1],C          ; 186F FD 71 FF
02131   1872 FD 71 00            ld   [iy+0],c           ; 1872 FD 71 00
02132   1875 FD 71 00            LD   [IY+0],C           ; 1875 FD 71 00
02133   1878 FD 71 7F            ld   [iy+127],c         ; 1878 FD 71 7F
02134   187B FD 71 7F            LD   [IY+127],C         ; 187B FD 71 7F
02135   187E FD 72 80            ld   [iy+-128],d        ; 187E FD 72 80
02136   1881 FD 72 80            LD   [IY+-128],D        ; 1881 FD 72 80
02137   1884 FD 72 FF            ld   [iy+-1],d          ; 1884 FD 72 FF
02138   1887 FD 72 FF            LD   [IY+-1],D          ; 1887 FD 72 FF
02139   188A FD 72 00            ld   [iy+0],d           ; 188A FD 72 00
02140   188D FD 72 00            LD   [IY+0],D           ; 188D FD 72 00
02141   1890 FD 72 7F            ld   [iy+127],d         ; 1890 FD 72 7F
02142   1893 FD 72 7F            LD   [IY+127],D         ; 1893 FD 72 7F
02143   1896                     ld   [iy+-128],de       ; 1896 FD 73 80 FD 72 81
02143   1896 FD7380FD7281
02144   189C                     LD   [IY+-128],DE       ; 189C FD 73 80 FD 72 81
02144   189C FD7380FD7281
02145   18A2                     ld   [iy+-1],de         ; 18A2 FD 73 FF FD 72 00
02145   18A2 FD73FFFD7200
02146   18A8                     LD   [IY+-1],DE         ; 18A8 FD 73 FF FD 72 00
02146   18A8 FD73FFFD7200
02147   18AE                     ld   [iy+0],de          ; 18AE FD 73 00 FD 72 01
02147   18AE FD7300FD7201
02148   18B4                     LD   [IY+0],DE          ; 18B4 FD 73 00 FD 72 01
02148   18B4 FD7300FD7201
02149   18BA                     ld   [iy+126],de        ; 18BA FD 73 7E FD 72 7F
02149   18BA FD737EFD727F
02150   18C0                     LD   [IY+126],DE        ; 18C0 FD 73 7E FD 72 7F
02150   18C0 FD737EFD727F
02151   18C6 FD 73 80            ld   [iy+-128],e        ; 18C6 FD 73 80
02152   18C9 FD 73 80            LD   [IY+-128],E        ; 18C9 FD 73 80
02153   18CC FD 73 FF            ld   [iy+-1],e          ; 18CC FD 73 FF
02154   18CF FD 73 FF            LD   [IY+-1],E          ; 18CF FD 73 FF
02155   18D2 FD 73 00            ld   [iy+0],e           ; 18D2 FD 73 00
02156   18D5 FD 73 00            LD   [IY+0],E           ; 18D5 FD 73 00
02157   18D8 FD 73 7F            ld   [iy+127],e         ; 18D8 FD 73 7F
02158   18DB FD 73 7F            LD   [IY+127],E         ; 18DB FD 73 7F
02159   18DE FD 74 80            ld   [iy+-128],h        ; 18DE FD 74 80
02160   18E1 FD 74 80            LD   [IY+-128],H        ; 18E1 FD 74 80
02161   18E4 FD 74 FF            ld   [iy+-1],h          ; 18E4 FD 74 FF
02162   18E7 FD 74 FF            LD   [IY+-1],H          ; 18E7 FD 74 FF
02163   18EA FD 74 00            ld   [iy+0],h           ; 18EA FD 74 00
02164   18ED FD 74 00            LD   [IY+0],H           ; 18ED FD 74 00
02165   18F0 FD 74 7F            ld   [iy+127],h         ; 18F0 FD 74 7F
02166   18F3 FD 74 7F            LD   [IY+127],H         ; 18F3 FD 74 7F
02167   18F6                     ld   [iy+-128],hl       ; 18F6 FD 75 80 FD 74 81
02167   18F6 FD7580FD7481
02168   18FC                     LD   [IY+-128],HL       ; 18FC FD 75 80 FD 74 81
02168   18FC FD7580FD7481
02169   1902                     ld   [iy+-1],hl         ; 1902 FD 75 FF FD 74 00
02169   1902 FD75FFFD7400
02170   1908                     LD   [IY+-1],HL         ; 1908 FD 75 FF FD 74 00
02170   1908 FD75FFFD7400
02171   190E                     ld   [iy+0],hl          ; 190E FD 75 00 FD 74 01
02171   190E FD7500FD7401
02172   1914                     LD   [IY+0],HL          ; 1914 FD 75 00 FD 74 01
02172   1914 FD7500FD7401
02173   191A                     ld   [iy+126],hl        ; 191A FD 75 7E FD 74 7F
02173   191A FD757EFD747F
02174   1920                     LD   [IY+126],HL        ; 1920 FD 75 7E FD 74 7F
02174   1920 FD757EFD747F
02175   1926 FD 75 80            ld   [iy+-128],l        ; 1926 FD 75 80
02176   1929 FD 75 80            LD   [IY+-128],L        ; 1929 FD 75 80
02177   192C FD 75 FF            ld   [iy+-1],l          ; 192C FD 75 FF
02178   192F FD 75 FF            LD   [IY+-1],L          ; 192F FD 75 FF
02179   1932 FD 75 00            ld   [iy+0],l           ; 1932 FD 75 00
02180   1935 FD 75 00            LD   [IY+0],L           ; 1935 FD 75 00
02181   1938 FD 75 7F            ld   [iy+127],l         ; 1938 FD 75 7F
02182   193B FD 75 7F            LD   [IY+127],L         ; 193B FD 75 7F
02183   193E 3A 00 80            ld   a,(-32768)         ; 193E 3A 00 80
02184   1941 3A 00 80            LD   A,(-32768)         ; 1941 3A 00 80
02185   1944 3A 80 FF            ld   a,(-128)           ; 1944 3A 80 FF
02186   1947 3A 80 FF            LD   A,(-128)           ; 1947 3A 80 FF
02187   194A 3A FF FF            ld   a,(-1)             ; 194A 3A FF FF
02188   194D 3A FF FF            LD   A,(-1)             ; 194D 3A FF FF
02189   1950 3A 00 00            ld   a,(0)              ; 1950 3A 00 00
02190   1953 3A 00 00            LD   A,(0)              ; 1953 3A 00 00
02191   1956 3A 7F 00            ld   a,(127)            ; 1956 3A 7F 00
02192   1959 3A 7F 00            LD   A,(127)            ; 1959 3A 7F 00
02193   195C 3A FF 00            ld   a,(255)            ; 195C 3A FF 00
02194   195F 3A FF 00            LD   A,(255)            ; 195F 3A FF 00
02195   1962 3A FF 7F            ld   a,(32767)          ; 1962 3A FF 7F
02196   1965 3A FF 7F            LD   A,(32767)          ; 1965 3A FF 7F
02197   1968 3A FF FF            ld   a,(65535)          ; 1968 3A FF FF
02198   196B 3A FF FF            LD   A,(65535)          ; 196B 3A FF FF
02199   196E 0A                  ld   a,(bc)             ; 196E 0A
02200   196F 0A                  LD   A,(BC)             ; 196F 0A
02201   1970 1A                  ld   a,(de)             ; 1970 1A
02202   1971 1A                  LD   A,(DE)             ; 1971 1A
02203   1972 7E                  ld   a,(hl)             ; 1972 7E
02204   1973 7E                  LD   A,(HL)             ; 1973 7E
02205   1974 DD 7E 80            ld   a,(ix+-128)        ; 1974 DD 7E 80
02206   1977 DD 7E 80            LD   A,(IX+-128)        ; 1977 DD 7E 80
02207   197A DD 7E FF            ld   a,(ix+-1)          ; 197A DD 7E FF
02208   197D DD 7E FF            LD   A,(IX+-1)          ; 197D DD 7E FF
02209   1980 DD 7E 00            ld   a,(ix+0)           ; 1980 DD 7E 00
02210   1983 DD 7E 00            LD   A,(IX+0)           ; 1983 DD 7E 00
02211   1986 DD 7E 7F            ld   a,(ix+127)         ; 1986 DD 7E 7F
02212   1989 DD 7E 7F            LD   A,(IX+127)         ; 1989 DD 7E 7F
02213   198C FD 7E 80            ld   a,(iy+-128)        ; 198C FD 7E 80
02214   198F FD 7E 80            LD   A,(IY+-128)        ; 198F FD 7E 80
02215   1992 FD 7E FF            ld   a,(iy+-1)          ; 1992 FD 7E FF
02216   1995 FD 7E FF            LD   A,(IY+-1)          ; 1995 FD 7E FF
02217   1998 FD 7E 00            ld   a,(iy+0)           ; 1998 FD 7E 00
02218   199B FD 7E 00            LD   A,(IY+0)           ; 199B FD 7E 00
02219   199E FD 7E 7F            ld   a,(iy+127)         ; 199E FD 7E 7F
02220   19A1 FD 7E 7F            LD   A,(IY+127)         ; 19A1 FD 7E 7F
02221   19A4 3E 80               ld   a,-128             ; 19A4 3E 80
02222   19A6 3E 80               LD   A,-128             ; 19A6 3E 80
02223   19A8 3E FF               ld   a,-1               ; 19A8 3E FF
02224   19AA 3E FF               LD   A,-1               ; 19AA 3E FF
02225   19AC 3E 00               ld   a,0                ; 19AC 3E 00
02226   19AE 3E 00               LD   A,0                ; 19AE 3E 00
02227   19B0 3E 7F               ld   a,127              ; 19B0 3E 7F
02228   19B2 3E 7F               LD   A,127              ; 19B2 3E 7F
02229   19B4 3E FF               ld   a,255              ; 19B4 3E FF
02230   19B6 3E FF               LD   A,255              ; 19B6 3E FF
02231   19B8 3A 00 80            ld   a,[-32768]         ; 19B8 3A 00 80
02232   19BB 3A 00 80            LD   A,[-32768]         ; 19BB 3A 00 80
02233   19BE 3A 80 FF            ld   a,[-128]           ; 19BE 3A 80 FF
02234   19C1 3A 80 FF            LD   A,[-128]           ; 19C1 3A 80 FF
02235   19C4 3A FF FF            ld   a,[-1]             ; 19C4 3A FF FF
02236   19C7 3A FF FF            LD   A,[-1]             ; 19C7 3A FF FF
02237   19CA 3A 00 00            ld   a,[0]              ; 19CA 3A 00 00
02238   19CD 3A 00 00            LD   A,[0]              ; 19CD 3A 00 00
02239   19D0 3A 7F 00            ld   a,[127]            ; 19D0 3A 7F 00
02240   19D3 3A 7F 00            LD   A,[127]            ; 19D3 3A 7F 00
02241   19D6 3A FF 00            ld   a,[255]            ; 19D6 3A FF 00
02242   19D9 3A FF 00            LD   A,[255]            ; 19D9 3A FF 00
02243   19DC 3A FF 7F            ld   a,[32767]          ; 19DC 3A FF 7F
02244   19DF 3A FF 7F            LD   A,[32767]          ; 19DF 3A FF 7F
02245   19E2 3A FF FF            ld   a,[65535]          ; 19E2 3A FF FF
02246   19E5 3A FF FF            LD   A,[65535]          ; 19E5 3A FF FF
02247   19E8 0A                  ld   a,[bc]             ; 19E8 0A
02248   19E9 0A                  LD   A,[BC]             ; 19E9 0A
02249   19EA 1A                  ld   a,[de]             ; 19EA 1A
02250   19EB 1A                  LD   A,[DE]             ; 19EB 1A
02251   19EC 7E                  ld   a,[hl]             ; 19EC 7E
02252   19ED 7E                  LD   A,[HL]             ; 19ED 7E
02253   19EE DD 7E 80            ld   a,[ix+-128]        ; 19EE DD 7E 80
02254   19F1 DD 7E 80            LD   A,[IX+-128]        ; 19F1 DD 7E 80
02255   19F4 DD 7E FF            ld   a,[ix+-1]          ; 19F4 DD 7E FF
02256   19F7 DD 7E FF            LD   A,[IX+-1]          ; 19F7 DD 7E FF
02257   19FA DD 7E 00            ld   a,[ix+0]           ; 19FA DD 7E 00
02258   19FD DD 7E 00            LD   A,[IX+0]           ; 19FD DD 7E 00
02259   1A00 DD 7E 7F            ld   a,[ix+127]         ; 1A00 DD 7E 7F
02260   1A03 DD 7E 7F            LD   A,[IX+127]         ; 1A03 DD 7E 7F
02261   1A06 FD 7E 80            ld   a,[iy+-128]        ; 1A06 FD 7E 80
02262   1A09 FD 7E 80            LD   A,[IY+-128]        ; 1A09 FD 7E 80
02263   1A0C FD 7E FF            ld   a,[iy+-1]          ; 1A0C FD 7E FF
02264   1A0F FD 7E FF            LD   A,[IY+-1]          ; 1A0F FD 7E FF
02265   1A12 FD 7E 00            ld   a,[iy+0]           ; 1A12 FD 7E 00
02266   1A15 FD 7E 00            LD   A,[IY+0]           ; 1A15 FD 7E 00
02267   1A18 FD 7E 7F            ld   a,[iy+127]         ; 1A18 FD 7E 7F
02268   1A1B FD 7E 7F            LD   A,[IY+127]         ; 1A1B FD 7E 7F
02269   1A1E 7F                  ld   a,a                ; 1A1E 7F
02270   1A1F 7F                  LD   A,A                ; 1A1F 7F
02271   1A20 78                  ld   a,b                ; 1A20 78
02272   1A21 78                  LD   A,B                ; 1A21 78
02273   1A22 79                  ld   a,c                ; 1A22 79
02274   1A23 79                  LD   A,C                ; 1A23 79
02275   1A24 7A                  ld   a,d                ; 1A24 7A
02276   1A25 7A                  LD   A,D                ; 1A25 7A
02277   1A26 7B                  ld   a,e                ; 1A26 7B
02278   1A27 7B                  LD   A,E                ; 1A27 7B
02279   1A28 7C                  ld   a,h                ; 1A28 7C
02280   1A29 7C                  LD   A,H                ; 1A29 7C
02281   1A2A DD 7C               ld   a,hx               ; 1A2A DD 7C
02282   1A2C DD 7C               LD   A,HX               ; 1A2C DD 7C
02283   1A2E FD 7C               ld   a,hy               ; 1A2E FD 7C
02284   1A30 FD 7C               LD   A,HY               ; 1A30 FD 7C
02285   1A32 ED 57               ld   a,i                ; 1A32 ED 57
02286   1A34 ED 57               LD   A,I                ; 1A34 ED 57
02287   1A36 DD 7C               ld   a,ixh              ; 1A36 DD 7C
02288   1A38 DD 7C               LD   A,IXH              ; 1A38 DD 7C
02289   1A3A DD 7D               ld   a,ixl              ; 1A3A DD 7D
02290   1A3C DD 7D               LD   A,IXL              ; 1A3C DD 7D
02291   1A3E FD 7C               ld   a,iyh              ; 1A3E FD 7C
02292   1A40 FD 7C               LD   A,IYH              ; 1A40 FD 7C
02293   1A42 FD 7D               ld   a,iyl              ; 1A42 FD 7D
02294   1A44 FD 7D               LD   A,IYL              ; 1A44 FD 7D
02295   1A46 7D                  ld   a,l                ; 1A46 7D
02296   1A47 7D                  LD   A,L                ; 1A47 7D
02297   1A48 DD 7D               ld   a,lx               ; 1A48 DD 7D
02298   1A4A DD 7D               LD   A,LX               ; 1A4A DD 7D
02299   1A4C FD 7D               ld   a,ly               ; 1A4C FD 7D
02300   1A4E FD 7D               LD   A,LY               ; 1A4E FD 7D
02301   1A50 ED 5F               ld   a,r                ; 1A50 ED 5F
02302   1A52 ED 5F               LD   A,R                ; 1A52 ED 5F
02303   1A54 DD 7C               ld   a,xh               ; 1A54 DD 7C
02304   1A56 DD 7C               LD   A,XH               ; 1A56 DD 7C
02305   1A58 DD 7D               ld   a,xl               ; 1A58 DD 7D
02306   1A5A DD 7D               LD   A,XL               ; 1A5A DD 7D
02307   1A5C FD 7C               ld   a,yh               ; 1A5C FD 7C
02308   1A5E FD 7C               LD   A,YH               ; 1A5E FD 7C
02309   1A60 FD 7D               ld   a,yl               ; 1A60 FD 7D
02310   1A62 FD 7D               LD   A,YL               ; 1A62 FD 7D
02311   1A64 46                  ld   b,(hl)             ; 1A64 46
02312   1A65 46                  LD   B,(HL)             ; 1A65 46
02313   1A66 DD 46 80            ld   b,(ix+-128)        ; 1A66 DD 46 80
02314   1A69 DD 46 80            LD   B,(IX+-128)        ; 1A69 DD 46 80
02315   1A6C DD 46 FF            ld   b,(ix+-1)          ; 1A6C DD 46 FF
02316   1A6F DD 46 FF            LD   B,(IX+-1)          ; 1A6F DD 46 FF
02317   1A72 DD 46 00            ld   b,(ix+0)           ; 1A72 DD 46 00
02318   1A75 DD 46 00            LD   B,(IX+0)           ; 1A75 DD 46 00
02319   1A78 DD 46 7F            ld   b,(ix+127)         ; 1A78 DD 46 7F
02320   1A7B DD 46 7F            LD   B,(IX+127)         ; 1A7B DD 46 7F
02321   1A7E FD 46 80            ld   b,(iy+-128)        ; 1A7E FD 46 80
02322   1A81 FD 46 80            LD   B,(IY+-128)        ; 1A81 FD 46 80
02323   1A84 FD 46 FF            ld   b,(iy+-1)          ; 1A84 FD 46 FF
02324   1A87 FD 46 FF            LD   B,(IY+-1)          ; 1A87 FD 46 FF
02325   1A8A FD 46 00            ld   b,(iy+0)           ; 1A8A FD 46 00
02326   1A8D FD 46 00            LD   B,(IY+0)           ; 1A8D FD 46 00
02327   1A90 FD 46 7F            ld   b,(iy+127)         ; 1A90 FD 46 7F
02328   1A93 FD 46 7F            LD   B,(IY+127)         ; 1A93 FD 46 7F
02329   1A96 06 80               ld   b,-128             ; 1A96 06 80
02330   1A98 06 80               LD   B,-128             ; 1A98 06 80
02331   1A9A 06 FF               ld   b,-1               ; 1A9A 06 FF
02332   1A9C 06 FF               LD   B,-1               ; 1A9C 06 FF
02333   1A9E 06 00               ld   b,0                ; 1A9E 06 00
02334   1AA0 06 00               LD   B,0                ; 1AA0 06 00
02335   1AA2 06 7F               ld   b,127              ; 1AA2 06 7F
02336   1AA4 06 7F               LD   B,127              ; 1AA4 06 7F
02337   1AA6 06 FF               ld   b,255              ; 1AA6 06 FF
02338   1AA8 06 FF               LD   B,255              ; 1AA8 06 FF
02339   1AAA 46                  ld   b,[hl]             ; 1AAA 46
02340   1AAB 46                  LD   B,[HL]             ; 1AAB 46
02341   1AAC DD 46 80            ld   b,[ix+-128]        ; 1AAC DD 46 80
02342   1AAF DD 46 80            LD   B,[IX+-128]        ; 1AAF DD 46 80
02343   1AB2 DD 46 FF            ld   b,[ix+-1]          ; 1AB2 DD 46 FF
02344   1AB5 DD 46 FF            LD   B,[IX+-1]          ; 1AB5 DD 46 FF
02345   1AB8 DD 46 00            ld   b,[ix+0]           ; 1AB8 DD 46 00
02346   1ABB DD 46 00            LD   B,[IX+0]           ; 1ABB DD 46 00
02347   1ABE DD 46 7F            ld   b,[ix+127]         ; 1ABE DD 46 7F
02348   1AC1 DD 46 7F            LD   B,[IX+127]         ; 1AC1 DD 46 7F
02349   1AC4 FD 46 80            ld   b,[iy+-128]        ; 1AC4 FD 46 80
02350   1AC7 FD 46 80            LD   B,[IY+-128]        ; 1AC7 FD 46 80
02351   1ACA FD 46 FF            ld   b,[iy+-1]          ; 1ACA FD 46 FF
02352   1ACD FD 46 FF            LD   B,[IY+-1]          ; 1ACD FD 46 FF
02353   1AD0 FD 46 00            ld   b,[iy+0]           ; 1AD0 FD 46 00
02354   1AD3 FD 46 00            LD   B,[IY+0]           ; 1AD3 FD 46 00
02355   1AD6 FD 46 7F            ld   b,[iy+127]         ; 1AD6 FD 46 7F
02356   1AD9 FD 46 7F            LD   B,[IY+127]         ; 1AD9 FD 46 7F
02357   1ADC 47                  ld   b,a                ; 1ADC 47
02358   1ADD 47                  LD   B,A                ; 1ADD 47
02359   1ADE 40                  ld   b,b                ; 1ADE 40
02360   1ADF 40                  LD   B,B                ; 1ADF 40
02361   1AE0 41                  ld   b,c                ; 1AE0 41
02362   1AE1 41                  LD   B,C                ; 1AE1 41
02363   1AE2 42                  ld   b,d                ; 1AE2 42
02364   1AE3 42                  LD   B,D                ; 1AE3 42
02365   1AE4 43                  ld   b,e                ; 1AE4 43
02366   1AE5 43                  LD   B,E                ; 1AE5 43
02367   1AE6 44                  ld   b,h                ; 1AE6 44
02368   1AE7 44                  LD   B,H                ; 1AE7 44
02369   1AE8 DD 44               ld   b,hx               ; 1AE8 DD 44
02370   1AEA DD 44               LD   B,HX               ; 1AEA DD 44
02371   1AEC FD 44               ld   b,hy               ; 1AEC FD 44
02372   1AEE FD 44               LD   B,HY               ; 1AEE FD 44
02373   1AF0 DD 44               ld   b,ixh              ; 1AF0 DD 44
02374   1AF2 DD 44               LD   B,IXH              ; 1AF2 DD 44
02375   1AF4 DD 45               ld   b,ixl              ; 1AF4 DD 45
02376   1AF6 DD 45               LD   B,IXL              ; 1AF6 DD 45
02377   1AF8 FD 44               ld   b,iyh              ; 1AF8 FD 44
02378   1AFA FD 44               LD   B,IYH              ; 1AFA FD 44
02379   1AFC FD 45               ld   b,iyl              ; 1AFC FD 45
02380   1AFE FD 45               LD   B,IYL              ; 1AFE FD 45
02381   1B00 45                  ld   b,l                ; 1B00 45
02382   1B01 45                  LD   B,L                ; 1B01 45
02383   1B02 DD 45               ld   b,lx               ; 1B02 DD 45
02384   1B04 DD 45               LD   B,LX               ; 1B04 DD 45
02385   1B06 FD 45               ld   b,ly               ; 1B06 FD 45
02386   1B08 FD 45               LD   B,LY               ; 1B08 FD 45
02387   1B0A DD 44               ld   b,xh               ; 1B0A DD 44
02388   1B0C DD 44               LD   B,XH               ; 1B0C DD 44
02389   1B0E DD 45               ld   b,xl               ; 1B0E DD 45
02390   1B10 DD 45               LD   B,XL               ; 1B10 DD 45
02391   1B12 FD 44               ld   b,yh               ; 1B12 FD 44
02392   1B14 FD 44               LD   B,YH               ; 1B14 FD 44
02393   1B16 FD 45               ld   b,yl               ; 1B16 FD 45
02394   1B18 FD 45               LD   B,YL               ; 1B18 FD 45
02395   1B1A ED 4B 00 80         ld   bc,(-32768)        ; 1B1A ED 4B 00 80
02396   1B1E ED 4B 00 80         LD   BC,(-32768)        ; 1B1E ED 4B 00 80
02397   1B22 ED 4B 80 FF         ld   bc,(-128)          ; 1B22 ED 4B 80 FF
02398   1B26 ED 4B 80 FF         LD   BC,(-128)          ; 1B26 ED 4B 80 FF
02399   1B2A ED 4B FF FF         ld   bc,(-1)            ; 1B2A ED 4B FF FF
02400   1B2E ED 4B FF FF         LD   BC,(-1)            ; 1B2E ED 4B FF FF
02401   1B32 ED 4B 00 00         ld   bc,(0)             ; 1B32 ED 4B 00 00
02402   1B36 ED 4B 00 00         LD   BC,(0)             ; 1B36 ED 4B 00 00
02403   1B3A ED 4B 7F 00         ld   bc,(127)           ; 1B3A ED 4B 7F 00
02404   1B3E ED 4B 7F 00         LD   BC,(127)           ; 1B3E ED 4B 7F 00
02405   1B42 ED 4B FF 00         ld   bc,(255)           ; 1B42 ED 4B FF 00
02406   1B46 ED 4B FF 00         LD   BC,(255)           ; 1B46 ED 4B FF 00
02407   1B4A ED 4B FF 7F         ld   bc,(32767)         ; 1B4A ED 4B FF 7F
02408   1B4E ED 4B FF 7F         LD   BC,(32767)         ; 1B4E ED 4B FF 7F
02409   1B52 ED 4B FF FF         ld   bc,(65535)         ; 1B52 ED 4B FF FF
02410   1B56 ED 4B FF FF         LD   BC,(65535)         ; 1B56 ED 4B FF FF
02411   1B5A 4E 23 46 2B         ld   bc,(hl)            ; 1B5A 4E 23 46 2B
02412   1B5E 4E 23 46 2B         LD   BC,(HL)            ; 1B5E 4E 23 46 2B
02413   1B62                     ld   bc,(ix+-128)       ; 1B62 DD 4E 80 DD 46 81
02413   1B62 DD4E80DD4681
02414   1B68                     LD   BC,(IX+-128)       ; 1B68 DD 4E 80 DD 46 81
02414   1B68 DD4E80DD4681
02415   1B6E                     ld   bc,(ix+-1)         ; 1B6E DD 4E FF DD 46 00
02415   1B6E DD4EFFDD4600
02416   1B74                     LD   BC,(IX+-1)         ; 1B74 DD 4E FF DD 46 00
02416   1B74 DD4EFFDD4600
02417   1B7A                     ld   bc,(ix+0)          ; 1B7A DD 4E 00 DD 46 01
02417   1B7A DD4E00DD4601
02418   1B80                     LD   BC,(IX+0)          ; 1B80 DD 4E 00 DD 46 01
02418   1B80 DD4E00DD4601
02419   1B86                     ld   bc,(ix+126)        ; 1B86 DD 4E 7E DD 46 7F
02419   1B86 DD4E7EDD467F
02420   1B8C                     LD   BC,(IX+126)        ; 1B8C DD 4E 7E DD 46 7F
02420   1B8C DD4E7EDD467F
02421   1B92                     ld   bc,(iy+-128)       ; 1B92 FD 4E 80 FD 46 81
02421   1B92 FD4E80FD4681
02422   1B98                     LD   BC,(IY+-128)       ; 1B98 FD 4E 80 FD 46 81
02422   1B98 FD4E80FD4681
02423   1B9E                     ld   bc,(iy+-1)         ; 1B9E FD 4E FF FD 46 00
02423   1B9E FD4EFFFD4600
02424   1BA4                     LD   BC,(IY+-1)         ; 1BA4 FD 4E FF FD 46 00
02424   1BA4 FD4EFFFD4600
02425   1BAA                     ld   bc,(iy+0)          ; 1BAA FD 4E 00 FD 46 01
02425   1BAA FD4E00FD4601
02426   1BB0                     LD   BC,(IY+0)          ; 1BB0 FD 4E 00 FD 46 01
02426   1BB0 FD4E00FD4601
02427   1BB6                     ld   bc,(iy+126)        ; 1BB6 FD 4E 7E FD 46 7F
02427   1BB6 FD4E7EFD467F
02428   1BBC                     LD   BC,(IY+126)        ; 1BBC FD 4E 7E FD 46 7F
02428   1BBC FD4E7EFD467F
02429   1BC2 01 00 80            ld   bc,-32768          ; 1BC2 01 00 80
02430   1BC5 01 00 80            LD   BC,-32768          ; 1BC5 01 00 80
02431   1BC8 01 80 FF            ld   bc,-128            ; 1BC8 01 80 FF
02432   1BCB 01 80 FF            LD   BC,-128            ; 1BCB 01 80 FF
02433   1BCE 01 FF FF            ld   bc,-1              ; 1BCE 01 FF FF
02434   1BD1 01 FF FF            LD   BC,-1              ; 1BD1 01 FF FF
02435   1BD4 01 00 00            ld   bc,0               ; 1BD4 01 00 00
02436   1BD7 01 00 00            LD   BC,0               ; 1BD7 01 00 00
02437   1BDA 01 7F 00            ld   bc,127             ; 1BDA 01 7F 00
02438   1BDD 01 7F 00            LD   BC,127             ; 1BDD 01 7F 00
02439   1BE0 01 FF 00            ld   bc,255             ; 1BE0 01 FF 00
02440   1BE3 01 FF 00            LD   BC,255             ; 1BE3 01 FF 00
02441   1BE6 01 FF 7F            ld   bc,32767           ; 1BE6 01 FF 7F
02442   1BE9 01 FF 7F            LD   BC,32767           ; 1BE9 01 FF 7F
02443   1BEC 01 FF FF            ld   bc,65535           ; 1BEC 01 FF FF
02444   1BEF 01 FF FF            LD   BC,65535           ; 1BEF 01 FF FF
02445   1BF2 ED 4B 00 80         ld   bc,[-32768]        ; 1BF2 ED 4B 00 80
02446   1BF6 ED 4B 00 80         LD   BC,[-32768]        ; 1BF6 ED 4B 00 80
02447   1BFA ED 4B 80 FF         ld   bc,[-128]          ; 1BFA ED 4B 80 FF
02448   1BFE ED 4B 80 FF         LD   BC,[-128]          ; 1BFE ED 4B 80 FF
02449   1C02 ED 4B FF FF         ld   bc,[-1]            ; 1C02 ED 4B FF FF
02450   1C06 ED 4B FF FF         LD   BC,[-1]            ; 1C06 ED 4B FF FF
02451   1C0A ED 4B 00 00         ld   bc,[0]             ; 1C0A ED 4B 00 00
02452   1C0E ED 4B 00 00         LD   BC,[0]             ; 1C0E ED 4B 00 00
02453   1C12 ED 4B 7F 00         ld   bc,[127]           ; 1C12 ED 4B 7F 00
02454   1C16 ED 4B 7F 00         LD   BC,[127]           ; 1C16 ED 4B 7F 00
02455   1C1A ED 4B FF 00         ld   bc,[255]           ; 1C1A ED 4B FF 00
02456   1C1E ED 4B FF 00         LD   BC,[255]           ; 1C1E ED 4B FF 00
02457   1C22 ED 4B FF 7F         ld   bc,[32767]         ; 1C22 ED 4B FF 7F
02458   1C26 ED 4B FF 7F         LD   BC,[32767]         ; 1C26 ED 4B FF 7F
02459   1C2A ED 4B FF FF         ld   bc,[65535]         ; 1C2A ED 4B FF FF
02460   1C2E ED 4B FF FF         LD   BC,[65535]         ; 1C2E ED 4B FF FF
02461   1C32 4E 23 46 2B         ld   bc,[hl]            ; 1C32 4E 23 46 2B
02462   1C36 4E 23 46 2B         LD   BC,[HL]            ; 1C36 4E 23 46 2B
02463   1C3A                     ld   bc,[ix+-128]       ; 1C3A DD 4E 80 DD 46 81
02463   1C3A DD4E80DD4681
02464   1C40                     LD   BC,[IX+-128]       ; 1C40 DD 4E 80 DD 46 81
02464   1C40 DD4E80DD4681
02465   1C46                     ld   bc,[ix+-1]         ; 1C46 DD 4E FF DD 46 00
02465   1C46 DD4EFFDD4600
02466   1C4C                     LD   BC,[IX+-1]         ; 1C4C DD 4E FF DD 46 00
02466   1C4C DD4EFFDD4600
02467   1C52                     ld   bc,[ix+0]          ; 1C52 DD 4E 00 DD 46 01
02467   1C52 DD4E00DD4601
02468   1C58                     LD   BC,[IX+0]          ; 1C58 DD 4E 00 DD 46 01
02468   1C58 DD4E00DD4601
02469   1C5E                     ld   bc,[ix+126]        ; 1C5E DD 4E 7E DD 46 7F
02469   1C5E DD4E7EDD467F
02470   1C64                     LD   BC,[IX+126]        ; 1C64 DD 4E 7E DD 46 7F
02470   1C64 DD4E7EDD467F
02471   1C6A                     ld   bc,[iy+-128]       ; 1C6A FD 4E 80 FD 46 81
02471   1C6A FD4E80FD4681
02472   1C70                     LD   BC,[IY+-128]       ; 1C70 FD 4E 80 FD 46 81
02472   1C70 FD4E80FD4681
02473   1C76                     ld   bc,[iy+-1]         ; 1C76 FD 4E FF FD 46 00
02473   1C76 FD4EFFFD4600
02474   1C7C                     LD   BC,[IY+-1]         ; 1C7C FD 4E FF FD 46 00
02474   1C7C FD4EFFFD4600
02475   1C82                     ld   bc,[iy+0]          ; 1C82 FD 4E 00 FD 46 01
02475   1C82 FD4E00FD4601
02476   1C88                     LD   BC,[IY+0]          ; 1C88 FD 4E 00 FD 46 01
02476   1C88 FD4E00FD4601
02477   1C8E                     ld   bc,[iy+126]        ; 1C8E FD 4E 7E FD 46 7F
02477   1C8E FD4E7EFD467F
02478   1C94                     LD   BC,[IY+126]        ; 1C94 FD 4E 7E FD 46 7F
02478   1C94 FD4E7EFD467F
02479   1C9A 40 49               ld   bc,bc              ; 1C9A 40 49
02480   1C9C 40 49               LD   BC,BC              ; 1C9C 40 49
02481   1C9E 42 4B               ld   bc,de              ; 1C9E 42 4B
02482   1CA0 42 4B               LD   BC,DE              ; 1CA0 42 4B
02483   1CA2 44 4D               ld   bc,hl              ; 1CA2 44 4D
02484   1CA4 44 4D               LD   BC,HL              ; 1CA4 44 4D
02485   1CA6 DD 44 DD 4D         ld   bc,ix              ; 1CA6 DD 44 DD 4D
02486   1CAA DD 44 DD 4D         LD   BC,IX              ; 1CAA DD 44 DD 4D
02487   1CAE FD 44 FD 4D         ld   bc,iy              ; 1CAE FD 44 FD 4D
02488   1CB2 FD 44 FD 4D         LD   BC,IY              ; 1CB2 FD 44 FD 4D
02489   1CB6 4E                  ld   c,(hl)             ; 1CB6 4E
02490   1CB7 4E                  LD   C,(HL)             ; 1CB7 4E
02491   1CB8 DD 4E 80            ld   c,(ix+-128)        ; 1CB8 DD 4E 80
02492   1CBB DD 4E 80            LD   C,(IX+-128)        ; 1CBB DD 4E 80
02493   1CBE DD 4E FF            ld   c,(ix+-1)          ; 1CBE DD 4E FF
02494   1CC1 DD 4E FF            LD   C,(IX+-1)          ; 1CC1 DD 4E FF
02495   1CC4 DD 4E 00            ld   c,(ix+0)           ; 1CC4 DD 4E 00
02496   1CC7 DD 4E 00            LD   C,(IX+0)           ; 1CC7 DD 4E 00
02497   1CCA DD 4E 7F            ld   c,(ix+127)         ; 1CCA DD 4E 7F
02498   1CCD DD 4E 7F            LD   C,(IX+127)         ; 1CCD DD 4E 7F
02499   1CD0 FD 4E 80            ld   c,(iy+-128)        ; 1CD0 FD 4E 80
02500   1CD3 FD 4E 80            LD   C,(IY+-128)        ; 1CD3 FD 4E 80
02501   1CD6 FD 4E FF            ld   c,(iy+-1)          ; 1CD6 FD 4E FF
02502   1CD9 FD 4E FF            LD   C,(IY+-1)          ; 1CD9 FD 4E FF
02503   1CDC FD 4E 00            ld   c,(iy+0)           ; 1CDC FD 4E 00
02504   1CDF FD 4E 00            LD   C,(IY+0)           ; 1CDF FD 4E 00
02505   1CE2 FD 4E 7F            ld   c,(iy+127)         ; 1CE2 FD 4E 7F
02506   1CE5 FD 4E 7F            LD   C,(IY+127)         ; 1CE5 FD 4E 7F
02507   1CE8 0E 80               ld   c,-128             ; 1CE8 0E 80
02508   1CEA 0E 80               LD   C,-128             ; 1CEA 0E 80
02509   1CEC 0E FF               ld   c,-1               ; 1CEC 0E FF
02510   1CEE 0E FF               LD   C,-1               ; 1CEE 0E FF
02511   1CF0 0E 00               ld   c,0                ; 1CF0 0E 00
02512   1CF2 0E 00               LD   C,0                ; 1CF2 0E 00
02513   1CF4 0E 7F               ld   c,127              ; 1CF4 0E 7F
02514   1CF6 0E 7F               LD   C,127              ; 1CF6 0E 7F
02515   1CF8 0E FF               ld   c,255              ; 1CF8 0E FF
02516   1CFA 0E FF               LD   C,255              ; 1CFA 0E FF
02517   1CFC 4E                  ld   c,[hl]             ; 1CFC 4E
02518   1CFD 4E                  LD   C,[HL]             ; 1CFD 4E
02519   1CFE DD 4E 80            ld   c,[ix+-128]        ; 1CFE DD 4E 80
02520   1D01 DD 4E 80            LD   C,[IX+-128]        ; 1D01 DD 4E 80
02521   1D04 DD 4E FF            ld   c,[ix+-1]          ; 1D04 DD 4E FF
02522   1D07 DD 4E FF            LD   C,[IX+-1]          ; 1D07 DD 4E FF
02523   1D0A DD 4E 00            ld   c,[ix+0]           ; 1D0A DD 4E 00
02524   1D0D DD 4E 00            LD   C,[IX+0]           ; 1D0D DD 4E 00
02525   1D10 DD 4E 7F            ld   c,[ix+127]         ; 1D10 DD 4E 7F
02526   1D13 DD 4E 7F            LD   C,[IX+127]         ; 1D13 DD 4E 7F
02527   1D16 FD 4E 80            ld   c,[iy+-128]        ; 1D16 FD 4E 80
02528   1D19 FD 4E 80            LD   C,[IY+-128]        ; 1D19 FD 4E 80
02529   1D1C FD 4E FF            ld   c,[iy+-1]          ; 1D1C FD 4E FF
02530   1D1F FD 4E FF            LD   C,[IY+-1]          ; 1D1F FD 4E FF
02531   1D22 FD 4E 00            ld   c,[iy+0]           ; 1D22 FD 4E 00
02532   1D25 FD 4E 00            LD   C,[IY+0]           ; 1D25 FD 4E 00
02533   1D28 FD 4E 7F            ld   c,[iy+127]         ; 1D28 FD 4E 7F
02534   1D2B FD 4E 7F            LD   C,[IY+127]         ; 1D2B FD 4E 7F
02535   1D2E 4F                  ld   c,a                ; 1D2E 4F
02536   1D2F 4F                  LD   C,A                ; 1D2F 4F
02537   1D30 48                  ld   c,b                ; 1D30 48
02538   1D31 48                  LD   C,B                ; 1D31 48
02539   1D32 49                  ld   c,c                ; 1D32 49
02540   1D33 49                  LD   C,C                ; 1D33 49
02541   1D34 4A                  ld   c,d                ; 1D34 4A
02542   1D35 4A                  LD   C,D                ; 1D35 4A
02543   1D36 4B                  ld   c,e                ; 1D36 4B
02544   1D37 4B                  LD   C,E                ; 1D37 4B
02545   1D38 4C                  ld   c,h                ; 1D38 4C
02546   1D39 4C                  LD   C,H                ; 1D39 4C
02547   1D3A DD 4C               ld   c,hx               ; 1D3A DD 4C
02548   1D3C DD 4C               LD   C,HX               ; 1D3C DD 4C
02549   1D3E FD 4C               ld   c,hy               ; 1D3E FD 4C
02550   1D40 FD 4C               LD   C,HY               ; 1D40 FD 4C
02551   1D42 DD 4C               ld   c,ixh              ; 1D42 DD 4C
02552   1D44 DD 4C               LD   C,IXH              ; 1D44 DD 4C
02553   1D46 DD 4D               ld   c,ixl              ; 1D46 DD 4D
02554   1D48 DD 4D               LD   C,IXL              ; 1D48 DD 4D
02555   1D4A FD 4C               ld   c,iyh              ; 1D4A FD 4C
02556   1D4C FD 4C               LD   C,IYH              ; 1D4C FD 4C
02557   1D4E FD 4D               ld   c,iyl              ; 1D4E FD 4D
02558   1D50 FD 4D               LD   C,IYL              ; 1D50 FD 4D
02559   1D52 4D                  ld   c,l                ; 1D52 4D
02560   1D53 4D                  LD   C,L                ; 1D53 4D
02561   1D54 DD 4D               ld   c,lx               ; 1D54 DD 4D
02562   1D56 DD 4D               LD   C,LX               ; 1D56 DD 4D
02563   1D58 FD 4D               ld   c,ly               ; 1D58 FD 4D
02564   1D5A FD 4D               LD   C,LY               ; 1D5A FD 4D
02565   1D5C DD 4C               ld   c,xh               ; 1D5C DD 4C
02566   1D5E DD 4C               LD   C,XH               ; 1D5E DD 4C
02567   1D60 DD 4D               ld   c,xl               ; 1D60 DD 4D
02568   1D62 DD 4D               LD   C,XL               ; 1D62 DD 4D
02569   1D64 FD 4C               ld   c,yh               ; 1D64 FD 4C
02570   1D66 FD 4C               LD   C,YH               ; 1D66 FD 4C
02571   1D68 FD 4D               ld   c,yl               ; 1D68 FD 4D
02572   1D6A FD 4D               LD   C,YL               ; 1D6A FD 4D
02573   1D6C 56                  ld   d,(hl)             ; 1D6C 56
02574   1D6D 56                  LD   D,(HL)             ; 1D6D 56
02575   1D6E DD 56 80            ld   d,(ix+-128)        ; 1D6E DD 56 80
02576   1D71 DD 56 80            LD   D,(IX+-128)        ; 1D71 DD 56 80
02577   1D74 DD 56 FF            ld   d,(ix+-1)          ; 1D74 DD 56 FF
02578   1D77 DD 56 FF            LD   D,(IX+-1)          ; 1D77 DD 56 FF
02579   1D7A DD 56 00            ld   d,(ix+0)           ; 1D7A DD 56 00
02580   1D7D DD 56 00            LD   D,(IX+0)           ; 1D7D DD 56 00
02581   1D80 DD 56 7F            ld   d,(ix+127)         ; 1D80 DD 56 7F
02582   1D83 DD 56 7F            LD   D,(IX+127)         ; 1D83 DD 56 7F
02583   1D86 FD 56 80            ld   d,(iy+-128)        ; 1D86 FD 56 80
02584   1D89 FD 56 80            LD   D,(IY+-128)        ; 1D89 FD 56 80
02585   1D8C FD 56 FF            ld   d,(iy+-1)          ; 1D8C FD 56 FF
02586   1D8F FD 56 FF            LD   D,(IY+-1)          ; 1D8F FD 56 FF
02587   1D92 FD 56 00            ld   d,(iy+0)           ; 1D92 FD 56 00
02588   1D95 FD 56 00            LD   D,(IY+0)           ; 1D95 FD 56 00
02589   1D98 FD 56 7F            ld   d,(iy+127)         ; 1D98 FD 56 7F
02590   1D9B FD 56 7F            LD   D,(IY+127)         ; 1D9B FD 56 7F
02591   1D9E 16 80               ld   d,-128             ; 1D9E 16 80
02592   1DA0 16 80               LD   D,-128             ; 1DA0 16 80
02593   1DA2 16 FF               ld   d,-1               ; 1DA2 16 FF
02594   1DA4 16 FF               LD   D,-1               ; 1DA4 16 FF
02595   1DA6 16 00               ld   d,0                ; 1DA6 16 00
02596   1DA8 16 00               LD   D,0                ; 1DA8 16 00
02597   1DAA 16 7F               ld   d,127              ; 1DAA 16 7F
02598   1DAC 16 7F               LD   D,127              ; 1DAC 16 7F
02599   1DAE 16 FF               ld   d,255              ; 1DAE 16 FF
02600   1DB0 16 FF               LD   D,255              ; 1DB0 16 FF
02601   1DB2 56                  ld   d,[hl]             ; 1DB2 56
02602   1DB3 56                  LD   D,[HL]             ; 1DB3 56
02603   1DB4 DD 56 80            ld   d,[ix+-128]        ; 1DB4 DD 56 80
02604   1DB7 DD 56 80            LD   D,[IX+-128]        ; 1DB7 DD 56 80
02605   1DBA DD 56 FF            ld   d,[ix+-1]          ; 1DBA DD 56 FF
02606   1DBD DD 56 FF            LD   D,[IX+-1]          ; 1DBD DD 56 FF
02607   1DC0 DD 56 00            ld   d,[ix+0]           ; 1DC0 DD 56 00
02608   1DC3 DD 56 00            LD   D,[IX+0]           ; 1DC3 DD 56 00
02609   1DC6 DD 56 7F            ld   d,[ix+127]         ; 1DC6 DD 56 7F
02610   1DC9 DD 56 7F            LD   D,[IX+127]         ; 1DC9 DD 56 7F
02611   1DCC FD 56 80            ld   d,[iy+-128]        ; 1DCC FD 56 80
02612   1DCF FD 56 80            LD   D,[IY+-128]        ; 1DCF FD 56 80
02613   1DD2 FD 56 FF            ld   d,[iy+-1]          ; 1DD2 FD 56 FF
02614   1DD5 FD 56 FF            LD   D,[IY+-1]          ; 1DD5 FD 56 FF
02615   1DD8 FD 56 00            ld   d,[iy+0]           ; 1DD8 FD 56 00
02616   1DDB FD 56 00            LD   D,[IY+0]           ; 1DDB FD 56 00
02617   1DDE FD 56 7F            ld   d,[iy+127]         ; 1DDE FD 56 7F
02618   1DE1 FD 56 7F            LD   D,[IY+127]         ; 1DE1 FD 56 7F
02619   1DE4 57                  ld   d,a                ; 1DE4 57
02620   1DE5 57                  LD   D,A                ; 1DE5 57
02621   1DE6 50                  ld   d,b                ; 1DE6 50
02622   1DE7 50                  LD   D,B                ; 1DE7 50
02623   1DE8 51                  ld   d,c                ; 1DE8 51
02624   1DE9 51                  LD   D,C                ; 1DE9 51
02625   1DEA 52                  ld   d,d                ; 1DEA 52
02626   1DEB 52                  LD   D,D                ; 1DEB 52
02627   1DEC 53                  ld   d,e                ; 1DEC 53
02628   1DED 53                  LD   D,E                ; 1DED 53
02629   1DEE 54                  ld   d,h                ; 1DEE 54
02630   1DEF 54                  LD   D,H                ; 1DEF 54
02631   1DF0 DD 54               ld   d,hx               ; 1DF0 DD 54
02632   1DF2 DD 54               LD   D,HX               ; 1DF2 DD 54
02633   1DF4 FD 54               ld   d,hy               ; 1DF4 FD 54
02634   1DF6 FD 54               LD   D,HY               ; 1DF6 FD 54
02635   1DF8 DD 54               ld   d,ixh              ; 1DF8 DD 54
02636   1DFA DD 54               LD   D,IXH              ; 1DFA DD 54
02637   1DFC DD 55               ld   d,ixl              ; 1DFC DD 55
02638   1DFE DD 55               LD   D,IXL              ; 1DFE DD 55
02639   1E00 FD 54               ld   d,iyh              ; 1E00 FD 54
02640   1E02 FD 54               LD   D,IYH              ; 1E02 FD 54
02641   1E04 FD 55               ld   d,iyl              ; 1E04 FD 55
02642   1E06 FD 55               LD   D,IYL              ; 1E06 FD 55
02643   1E08 55                  ld   d,l                ; 1E08 55
02644   1E09 55                  LD   D,L                ; 1E09 55
02645   1E0A DD 55               ld   d,lx               ; 1E0A DD 55
02646   1E0C DD 55               LD   D,LX               ; 1E0C DD 55
02647   1E0E FD 55               ld   d,ly               ; 1E0E FD 55
02648   1E10 FD 55               LD   D,LY               ; 1E10 FD 55
02649   1E12 DD 54               ld   d,xh               ; 1E12 DD 54
02650   1E14 DD 54               LD   D,XH               ; 1E14 DD 54
02651   1E16 DD 55               ld   d,xl               ; 1E16 DD 55
02652   1E18 DD 55               LD   D,XL               ; 1E18 DD 55
02653   1E1A FD 54               ld   d,yh               ; 1E1A FD 54
02654   1E1C FD 54               LD   D,YH               ; 1E1C FD 54
02655   1E1E FD 55               ld   d,yl               ; 1E1E FD 55
02656   1E20 FD 55               LD   D,YL               ; 1E20 FD 55
02657   1E22 ED 5B 00 80         ld   de,(-32768)        ; 1E22 ED 5B 00 80
02658   1E26 ED 5B 00 80         LD   DE,(-32768)        ; 1E26 ED 5B 00 80
02659   1E2A ED 5B 80 FF         ld   de,(-128)          ; 1E2A ED 5B 80 FF
02660   1E2E ED 5B 80 FF         LD   DE,(-128)          ; 1E2E ED 5B 80 FF
02661   1E32 ED 5B FF FF         ld   de,(-1)            ; 1E32 ED 5B FF FF
02662   1E36 ED 5B FF FF         LD   DE,(-1)            ; 1E36 ED 5B FF FF
02663   1E3A ED 5B 00 00         ld   de,(0)             ; 1E3A ED 5B 00 00
02664   1E3E ED 5B 00 00         LD   DE,(0)             ; 1E3E ED 5B 00 00
02665   1E42 ED 5B 7F 00         ld   de,(127)           ; 1E42 ED 5B 7F 00
02666   1E46 ED 5B 7F 00         LD   DE,(127)           ; 1E46 ED 5B 7F 00
02667   1E4A ED 5B FF 00         ld   de,(255)           ; 1E4A ED 5B FF 00
02668   1E4E ED 5B FF 00         LD   DE,(255)           ; 1E4E ED 5B FF 00
02669   1E52 ED 5B FF 7F         ld   de,(32767)         ; 1E52 ED 5B FF 7F
02670   1E56 ED 5B FF 7F         LD   DE,(32767)         ; 1E56 ED 5B FF 7F
02671   1E5A ED 5B FF FF         ld   de,(65535)         ; 1E5A ED 5B FF FF
02672   1E5E ED 5B FF FF         LD   DE,(65535)         ; 1E5E ED 5B FF FF
02673   1E62 5E 23 56 2B         ld   de,(hl)            ; 1E62 5E 23 56 2B
02674   1E66 5E 23 56 2B         LD   DE,(HL)            ; 1E66 5E 23 56 2B
02675   1E6A                     ld   de,(ix+-128)       ; 1E6A DD 5E 80 DD 56 81
02675   1E6A DD5E80DD5681
02676   1E70                     LD   DE,(IX+-128)       ; 1E70 DD 5E 80 DD 56 81
02676   1E70 DD5E80DD5681
02677   1E76                     ld   de,(ix+-1)         ; 1E76 DD 5E FF DD 56 00
02677   1E76 DD5EFFDD5600
02678   1E7C                     LD   DE,(IX+-1)         ; 1E7C DD 5E FF DD 56 00
02678   1E7C DD5EFFDD5600
02679   1E82                     ld   de,(ix+0)          ; 1E82 DD 5E 00 DD 56 01
02679   1E82 DD5E00DD5601
02680   1E88                     LD   DE,(IX+0)          ; 1E88 DD 5E 00 DD 56 01
02680   1E88 DD5E00DD5601
02681   1E8E                     ld   de,(ix+126)        ; 1E8E DD 5E 7E DD 56 7F
02681   1E8E DD5E7EDD567F
02682   1E94                     LD   DE,(IX+126)        ; 1E94 DD 5E 7E DD 56 7F
02682   1E94 DD5E7EDD567F
02683   1E9A                     ld   de,(iy+-128)       ; 1E9A FD 5E 80 FD 56 81
02683   1E9A FD5E80FD5681
02684   1EA0                     LD   DE,(IY+-128)       ; 1EA0 FD 5E 80 FD 56 81
02684   1EA0 FD5E80FD5681
02685   1EA6                     ld   de,(iy+-1)         ; 1EA6 FD 5E FF FD 56 00
02685   1EA6 FD5EFFFD5600
02686   1EAC                     LD   DE,(IY+-1)         ; 1EAC FD 5E FF FD 56 00
02686   1EAC FD5EFFFD5600
02687   1EB2                     ld   de,(iy+0)          ; 1EB2 FD 5E 00 FD 56 01
02687   1EB2 FD5E00FD5601
02688   1EB8                     LD   DE,(IY+0)          ; 1EB8 FD 5E 00 FD 56 01
02688   1EB8 FD5E00FD5601
02689   1EBE                     ld   de,(iy+126)        ; 1EBE FD 5E 7E FD 56 7F
02689   1EBE FD5E7EFD567F
02690   1EC4                     LD   DE,(IY+126)        ; 1EC4 FD 5E 7E FD 56 7F
02690   1EC4 FD5E7EFD567F
02691   1ECA 11 00 80            ld   de,-32768          ; 1ECA 11 00 80
02692   1ECD 11 00 80            LD   DE,-32768          ; 1ECD 11 00 80
02693   1ED0 11 80 FF            ld   de,-128            ; 1ED0 11 80 FF
02694   1ED3 11 80 FF            LD   DE,-128            ; 1ED3 11 80 FF
02695   1ED6 11 FF FF            ld   de,-1              ; 1ED6 11 FF FF
02696   1ED9 11 FF FF            LD   DE,-1              ; 1ED9 11 FF FF
02697   1EDC 11 00 00            ld   de,0               ; 1EDC 11 00 00
02698   1EDF 11 00 00            LD   DE,0               ; 1EDF 11 00 00
02699   1EE2 11 7F 00            ld   de,127             ; 1EE2 11 7F 00
02700   1EE5 11 7F 00            LD   DE,127             ; 1EE5 11 7F 00
02701   1EE8 11 FF 00            ld   de,255             ; 1EE8 11 FF 00
02702   1EEB 11 FF 00            LD   DE,255             ; 1EEB 11 FF 00
02703   1EEE 11 FF 7F            ld   de,32767           ; 1EEE 11 FF 7F
02704   1EF1 11 FF 7F            LD   DE,32767           ; 1EF1 11 FF 7F
02705   1EF4 11 FF FF            ld   de,65535           ; 1EF4 11 FF FF
02706   1EF7 11 FF FF            LD   DE,65535           ; 1EF7 11 FF FF
02707   1EFA ED 5B 00 80         ld   de,[-32768]        ; 1EFA ED 5B 00 80
02708   1EFE ED 5B 00 80         LD   DE,[-32768]        ; 1EFE ED 5B 00 80
02709   1F02 ED 5B 80 FF         ld   de,[-128]          ; 1F02 ED 5B 80 FF
02710   1F06 ED 5B 80 FF         LD   DE,[-128]          ; 1F06 ED 5B 80 FF
02711   1F0A ED 5B FF FF         ld   de,[-1]            ; 1F0A ED 5B FF FF
02712   1F0E ED 5B FF FF         LD   DE,[-1]            ; 1F0E ED 5B FF FF
02713   1F12 ED 5B 00 00         ld   de,[0]             ; 1F12 ED 5B 00 00
02714   1F16 ED 5B 00 00         LD   DE,[0]             ; 1F16 ED 5B 00 00
02715   1F1A ED 5B 7F 00         ld   de,[127]           ; 1F1A ED 5B 7F 00
02716   1F1E ED 5B 7F 00         LD   DE,[127]           ; 1F1E ED 5B 7F 00
02717   1F22 ED 5B FF 00         ld   de,[255]           ; 1F22 ED 5B FF 00
02718   1F26 ED 5B FF 00         LD   DE,[255]           ; 1F26 ED 5B FF 00
02719   1F2A ED 5B FF 7F         ld   de,[32767]         ; 1F2A ED 5B FF 7F
02720   1F2E ED 5B FF 7F         LD   DE,[32767]         ; 1F2E ED 5B FF 7F
02721   1F32 ED 5B FF FF         ld   de,[65535]         ; 1F32 ED 5B FF FF
02722   1F36 ED 5B FF FF         LD   DE,[65535]         ; 1F36 ED 5B FF FF
02723   1F3A 5E 23 56 2B         ld   de,[hl]            ; 1F3A 5E 23 56 2B
02724   1F3E 5E 23 56 2B         LD   DE,[HL]            ; 1F3E 5E 23 56 2B
02725   1F42                     ld   de,[ix+-128]       ; 1F42 DD 5E 80 DD 56 81
02725   1F42 DD5E80DD5681
02726   1F48                     LD   DE,[IX+-128]       ; 1F48 DD 5E 80 DD 56 81
02726   1F48 DD5E80DD5681
02727   1F4E                     ld   de,[ix+-1]         ; 1F4E DD 5E FF DD 56 00
02727   1F4E DD5EFFDD5600
02728   1F54                     LD   DE,[IX+-1]         ; 1F54 DD 5E FF DD 56 00
02728   1F54 DD5EFFDD5600
02729   1F5A                     ld   de,[ix+0]          ; 1F5A DD 5E 00 DD 56 01
02729   1F5A DD5E00DD5601
02730   1F60                     LD   DE,[IX+0]          ; 1F60 DD 5E 00 DD 56 01
02730   1F60 DD5E00DD5601
02731   1F66                     ld   de,[ix+126]        ; 1F66 DD 5E 7E DD 56 7F
02731   1F66 DD5E7EDD567F
02732   1F6C                     LD   DE,[IX+126]        ; 1F6C DD 5E 7E DD 56 7F
02732   1F6C DD5E7EDD567F
02733   1F72                     ld   de,[iy+-128]       ; 1F72 FD 5E 80 FD 56 81
02733   1F72 FD5E80FD5681
02734   1F78                     LD   DE,[IY+-128]       ; 1F78 FD 5E 80 FD 56 81
02734   1F78 FD5E80FD5681
02735   1F7E                     ld   de,[iy+-1]         ; 1F7E FD 5E FF FD 56 00
02735   1F7E FD5EFFFD5600
02736   1F84                     LD   DE,[IY+-1]         ; 1F84 FD 5E FF FD 56 00
02736   1F84 FD5EFFFD5600
02737   1F8A                     ld   de,[iy+0]          ; 1F8A FD 5E 00 FD 56 01
02737   1F8A FD5E00FD5601
02738   1F90                     LD   DE,[IY+0]          ; 1F90 FD 5E 00 FD 56 01
02738   1F90 FD5E00FD5601
02739   1F96                     ld   de,[iy+126]        ; 1F96 FD 5E 7E FD 56 7F
02739   1F96 FD5E7EFD567F
02740   1F9C                     LD   DE,[IY+126]        ; 1F9C FD 5E 7E FD 56 7F
02740   1F9C FD5E7EFD567F
02741   1FA2 50 59               ld   de,bc              ; 1FA2 50 59
02742   1FA4 50 59               LD   DE,BC              ; 1FA4 50 59
02743   1FA6 52 5B               ld   de,de              ; 1FA6 52 5B
02744   1FA8 52 5B               LD   DE,DE              ; 1FA8 52 5B
02745   1FAA 54 5D               ld   de,hl              ; 1FAA 54 5D
02746   1FAC 54 5D               LD   DE,HL              ; 1FAC 54 5D
02747   1FAE DD 54 DD 5D         ld   de,ix              ; 1FAE DD 54 DD 5D
02748   1FB2 DD 54 DD 5D         LD   DE,IX              ; 1FB2 DD 54 DD 5D
02749   1FB6 FD 54 FD 5D         ld   de,iy              ; 1FB6 FD 54 FD 5D
02750   1FBA FD 54 FD 5D         LD   DE,IY              ; 1FBA FD 54 FD 5D
02751   1FBE 5E                  ld   e,(hl)             ; 1FBE 5E
02752   1FBF 5E                  LD   E,(HL)             ; 1FBF 5E
02753   1FC0 DD 5E 80            ld   e,(ix+-128)        ; 1FC0 DD 5E 80
02754   1FC3 DD 5E 80            LD   E,(IX+-128)        ; 1FC3 DD 5E 80
02755   1FC6 DD 5E FF            ld   e,(ix+-1)          ; 1FC6 DD 5E FF
02756   1FC9 DD 5E FF            LD   E,(IX+-1)          ; 1FC9 DD 5E FF
02757   1FCC DD 5E 00            ld   e,(ix+0)           ; 1FCC DD 5E 00
02758   1FCF DD 5E 00            LD   E,(IX+0)           ; 1FCF DD 5E 00
02759   1FD2 DD 5E 7F            ld   e,(ix+127)         ; 1FD2 DD 5E 7F
02760   1FD5 DD 5E 7F            LD   E,(IX+127)         ; 1FD5 DD 5E 7F
02761   1FD8 FD 5E 80            ld   e,(iy+-128)        ; 1FD8 FD 5E 80
02762   1FDB FD 5E 80            LD   E,(IY+-128)        ; 1FDB FD 5E 80
02763   1FDE FD 5E FF            ld   e,(iy+-1)          ; 1FDE FD 5E FF
02764   1FE1 FD 5E FF            LD   E,(IY+-1)          ; 1FE1 FD 5E FF
02765   1FE4 FD 5E 00            ld   e,(iy+0)           ; 1FE4 FD 5E 00
02766   1FE7 FD 5E 00            LD   E,(IY+0)           ; 1FE7 FD 5E 00
02767   1FEA FD 5E 7F            ld   e,(iy+127)         ; 1FEA FD 5E 7F
02768   1FED FD 5E 7F            LD   E,(IY+127)         ; 1FED FD 5E 7F
02769   1FF0 1E 80               ld   e,-128             ; 1FF0 1E 80
02770   1FF2 1E 80               LD   E,-128             ; 1FF2 1E 80
02771   1FF4 1E FF               ld   e,-1               ; 1FF4 1E FF
02772   1FF6 1E FF               LD   E,-1               ; 1FF6 1E FF
02773   1FF8 1E 00               ld   e,0                ; 1FF8 1E 00
02774   1FFA 1E 00               LD   E,0                ; 1FFA 1E 00
02775   1FFC 1E 7F               ld   e,127              ; 1FFC 1E 7F
02776   1FFE 1E 7F               LD   E,127              ; 1FFE 1E 7F
02777   2000 1E FF               ld   e,255              ; 2000 1E FF
02778   2002 1E FF               LD   E,255              ; 2002 1E FF
02779   2004 5E                  ld   e,[hl]             ; 2004 5E
02780   2005 5E                  LD   E,[HL]             ; 2005 5E
02781   2006 DD 5E 80            ld   e,[ix+-128]        ; 2006 DD 5E 80
02782   2009 DD 5E 80            LD   E,[IX+-128]        ; 2009 DD 5E 80
02783   200C DD 5E FF            ld   e,[ix+-1]          ; 200C DD 5E FF
02784   200F DD 5E FF            LD   E,[IX+-1]          ; 200F DD 5E FF
02785   2012 DD 5E 00            ld   e,[ix+0]           ; 2012 DD 5E 00
02786   2015 DD 5E 00            LD   E,[IX+0]           ; 2015 DD 5E 00
02787   2018 DD 5E 7F            ld   e,[ix+127]         ; 2018 DD 5E 7F
02788   201B DD 5E 7F            LD   E,[IX+127]         ; 201B DD 5E 7F
02789   201E FD 5E 80            ld   e,[iy+-128]        ; 201E FD 5E 80
02790   2021 FD 5E 80            LD   E,[IY+-128]        ; 2021 FD 5E 80
02791   2024 FD 5E FF            ld   e,[iy+-1]          ; 2024 FD 5E FF
02792   2027 FD 5E FF            LD   E,[IY+-1]          ; 2027 FD 5E FF
02793   202A FD 5E 00            ld   e,[iy+0]           ; 202A FD 5E 00
02794   202D FD 5E 00            LD   E,[IY+0]           ; 202D FD 5E 00
02795   2030 FD 5E 7F            ld   e,[iy+127]         ; 2030 FD 5E 7F
02796   2033 FD 5E 7F            LD   E,[IY+127]         ; 2033 FD 5E 7F
02797   2036 5F                  ld   e,a                ; 2036 5F
02798   2037 5F                  LD   E,A                ; 2037 5F
02799   2038 58                  ld   e,b                ; 2038 58
02800   2039 58                  LD   E,B                ; 2039 58
02801   203A 59                  ld   e,c                ; 203A 59
02802   203B 59                  LD   E,C                ; 203B 59
02803   203C 5A                  ld   e,d                ; 203C 5A
02804   203D 5A                  LD   E,D                ; 203D 5A
02805   203E 5B                  ld   e,e                ; 203E 5B
02806   203F 5B                  LD   E,E                ; 203F 5B
02807   2040 5C                  ld   e,h                ; 2040 5C
02808   2041 5C                  LD   E,H                ; 2041 5C
02809   2042 DD 5C               ld   e,hx               ; 2042 DD 5C
02810   2044 DD 5C               LD   E,HX               ; 2044 DD 5C
02811   2046 FD 5C               ld   e,hy               ; 2046 FD 5C
02812   2048 FD 5C               LD   E,HY               ; 2048 FD 5C
02813   204A DD 5C               ld   e,ixh              ; 204A DD 5C
02814   204C DD 5C               LD   E,IXH              ; 204C DD 5C
02815   204E DD 5D               ld   e,ixl              ; 204E DD 5D
02816   2050 DD 5D               LD   E,IXL              ; 2050 DD 5D
02817   2052 FD 5C               ld   e,iyh              ; 2052 FD 5C
02818   2054 FD 5C               LD   E,IYH              ; 2054 FD 5C
02819   2056 FD 5D               ld   e,iyl              ; 2056 FD 5D
02820   2058 FD 5D               LD   E,IYL              ; 2058 FD 5D
02821   205A 5D                  ld   e,l                ; 205A 5D
02822   205B 5D                  LD   E,L                ; 205B 5D
02823   205C DD 5D               ld   e,lx               ; 205C DD 5D
02824   205E DD 5D               LD   E,LX               ; 205E DD 5D
02825   2060 FD 5D               ld   e,ly               ; 2060 FD 5D
02826   2062 FD 5D               LD   E,LY               ; 2062 FD 5D
02827   2064 DD 5C               ld   e,xh               ; 2064 DD 5C
02828   2066 DD 5C               LD   E,XH               ; 2066 DD 5C
02829   2068 DD 5D               ld   e,xl               ; 2068 DD 5D
02830   206A DD 5D               LD   E,XL               ; 206A DD 5D
02831   206C FD 5C               ld   e,yh               ; 206C FD 5C
02832   206E FD 5C               LD   E,YH               ; 206E FD 5C
02833   2070 FD 5D               ld   e,yl               ; 2070 FD 5D
02834   2072 FD 5D               LD   E,YL               ; 2072 FD 5D
02835   2074 66                  ld   h,(hl)             ; 2074 66
02836   2075 66                  LD   H,(HL)             ; 2075 66
02837   2076 DD 66 80            ld   h,(ix+-128)        ; 2076 DD 66 80
02838   2079 DD 66 80            LD   H,(IX+-128)        ; 2079 DD 66 80
02839   207C DD 66 FF            ld   h,(ix+-1)          ; 207C DD 66 FF
02840   207F DD 66 FF            LD   H,(IX+-1)          ; 207F DD 66 FF
02841   2082 DD 66 00            ld   h,(ix+0)           ; 2082 DD 66 00
02842   2085 DD 66 00            LD   H,(IX+0)           ; 2085 DD 66 00
02843   2088 DD 66 7F            ld   h,(ix+127)         ; 2088 DD 66 7F
02844   208B DD 66 7F            LD   H,(IX+127)         ; 208B DD 66 7F
02845   208E FD 66 80            ld   h,(iy+-128)        ; 208E FD 66 80
02846   2091 FD 66 80            LD   H,(IY+-128)        ; 2091 FD 66 80
02847   2094 FD 66 FF            ld   h,(iy+-1)          ; 2094 FD 66 FF
02848   2097 FD 66 FF            LD   H,(IY+-1)          ; 2097 FD 66 FF
02849   209A FD 66 00            ld   h,(iy+0)           ; 209A FD 66 00
02850   209D FD 66 00            LD   H,(IY+0)           ; 209D FD 66 00
02851   20A0 FD 66 7F            ld   h,(iy+127)         ; 20A0 FD 66 7F
02852   20A3 FD 66 7F            LD   H,(IY+127)         ; 20A3 FD 66 7F
02853   20A6 26 80               ld   h,-128             ; 20A6 26 80
02854   20A8 26 80               LD   H,-128             ; 20A8 26 80
02855   20AA 26 FF               ld   h,-1               ; 20AA 26 FF
02856   20AC 26 FF               LD   H,-1               ; 20AC 26 FF
02857   20AE 26 00               ld   h,0                ; 20AE 26 00
02858   20B0 26 00               LD   H,0                ; 20B0 26 00
02859   20B2 26 7F               ld   h,127              ; 20B2 26 7F
02860   20B4 26 7F               LD   H,127              ; 20B4 26 7F
02861   20B6 26 FF               ld   h,255              ; 20B6 26 FF
02862   20B8 26 FF               LD   H,255              ; 20B8 26 FF
02863   20BA 66                  ld   h,[hl]             ; 20BA 66
02864   20BB 66                  LD   H,[HL]             ; 20BB 66
02865   20BC DD 66 80            ld   h,[ix+-128]        ; 20BC DD 66 80
02866   20BF DD 66 80            LD   H,[IX+-128]        ; 20BF DD 66 80
02867   20C2 DD 66 FF            ld   h,[ix+-1]          ; 20C2 DD 66 FF
02868   20C5 DD 66 FF            LD   H,[IX+-1]          ; 20C5 DD 66 FF
02869   20C8 DD 66 00            ld   h,[ix+0]           ; 20C8 DD 66 00
02870   20CB DD 66 00            LD   H,[IX+0]           ; 20CB DD 66 00
02871   20CE DD 66 7F            ld   h,[ix+127]         ; 20CE DD 66 7F
02872   20D1 DD 66 7F            LD   H,[IX+127]         ; 20D1 DD 66 7F
02873   20D4 FD 66 80            ld   h,[iy+-128]        ; 20D4 FD 66 80
02874   20D7 FD 66 80            LD   H,[IY+-128]        ; 20D7 FD 66 80
02875   20DA FD 66 FF            ld   h,[iy+-1]          ; 20DA FD 66 FF
02876   20DD FD 66 FF            LD   H,[IY+-1]          ; 20DD FD 66 FF
02877   20E0 FD 66 00            ld   h,[iy+0]           ; 20E0 FD 66 00
02878   20E3 FD 66 00            LD   H,[IY+0]           ; 20E3 FD 66 00
02879   20E6 FD 66 7F            ld   h,[iy+127]         ; 20E6 FD 66 7F
02880   20E9 FD 66 7F            LD   H,[IY+127]         ; 20E9 FD 66 7F
02881   20EC 67                  ld   h,a                ; 20EC 67
02882   20ED 67                  LD   H,A                ; 20ED 67
02883   20EE 60                  ld   h,b                ; 20EE 60
02884   20EF 60                  LD   H,B                ; 20EF 60
02885   20F0 61                  ld   h,c                ; 20F0 61
02886   20F1 61                  LD   H,C                ; 20F1 61
02887   20F2 62                  ld   h,d                ; 20F2 62
02888   20F3 62                  LD   H,D                ; 20F3 62
02889   20F4 63                  ld   h,e                ; 20F4 63
02890   20F5 63                  LD   H,E                ; 20F5 63
02891   20F6 64                  ld   h,h                ; 20F6 64
02892   20F7 64                  LD   H,H                ; 20F7 64
02893   20F8 65                  ld   h,l                ; 20F8 65
02894   20F9 65                  LD   H,L                ; 20F9 65
02895   20FA 2A 00 80            ld   hl,(-32768)        ; 20FA 2A 00 80
02896   20FD 2A 00 80            LD   HL,(-32768)        ; 20FD 2A 00 80
02897   2100 2A 80 FF            ld   hl,(-128)          ; 2100 2A 80 FF
02898   2103 2A 80 FF            LD   HL,(-128)          ; 2103 2A 80 FF
02899   2106 2A FF FF            ld   hl,(-1)            ; 2106 2A FF FF
02900   2109 2A FF FF            LD   HL,(-1)            ; 2109 2A FF FF
02901   210C 2A 00 00            ld   hl,(0)             ; 210C 2A 00 00
02902   210F 2A 00 00            LD   HL,(0)             ; 210F 2A 00 00
02903   2112 2A 7F 00            ld   hl,(127)           ; 2112 2A 7F 00
02904   2115 2A 7F 00            LD   HL,(127)           ; 2115 2A 7F 00
02905   2118 2A FF 00            ld   hl,(255)           ; 2118 2A FF 00
02906   211B 2A FF 00            LD   HL,(255)           ; 211B 2A FF 00
02907   211E 2A FF 7F            ld   hl,(32767)         ; 211E 2A FF 7F
02908   2121 2A FF 7F            LD   HL,(32767)         ; 2121 2A FF 7F
02909   2124 2A FF FF            ld   hl,(65535)         ; 2124 2A FF FF
02910   2127 2A FF FF            LD   HL,(65535)         ; 2127 2A FF FF
02911   212A                     ld   hl,(ix+-128)       ; 212A DD 6E 80 DD 66 81
02911   212A DD6E80DD6681
02912   2130                     LD   HL,(IX+-128)       ; 2130 DD 6E 80 DD 66 81
02912   2130 DD6E80DD6681
02913   2136                     ld   hl,(ix+-1)         ; 2136 DD 6E FF DD 66 00
02913   2136 DD6EFFDD6600
02914   213C                     LD   HL,(IX+-1)         ; 213C DD 6E FF DD 66 00
02914   213C DD6EFFDD6600
02915   2142                     ld   hl,(ix+0)          ; 2142 DD 6E 00 DD 66 01
02915   2142 DD6E00DD6601
02916   2148                     LD   HL,(IX+0)          ; 2148 DD 6E 00 DD 66 01
02916   2148 DD6E00DD6601
02917   214E                     ld   hl,(ix+126)        ; 214E DD 6E 7E DD 66 7F
02917   214E DD6E7EDD667F
02918   2154                     LD   HL,(IX+126)        ; 2154 DD 6E 7E DD 66 7F
02918   2154 DD6E7EDD667F
02919   215A                     ld   hl,(iy+-128)       ; 215A FD 6E 80 FD 66 81
02919   215A FD6E80FD6681
02920   2160                     LD   HL,(IY+-128)       ; 2160 FD 6E 80 FD 66 81
02920   2160 FD6E80FD6681
02921   2166                     ld   hl,(iy+-1)         ; 2166 FD 6E FF FD 66 00
02921   2166 FD6EFFFD6600
02922   216C                     LD   HL,(IY+-1)         ; 216C FD 6E FF FD 66 00
02922   216C FD6EFFFD6600
02923   2172                     ld   hl,(iy+0)          ; 2172 FD 6E 00 FD 66 01
02923   2172 FD6E00FD6601
02924   2178                     LD   HL,(IY+0)          ; 2178 FD 6E 00 FD 66 01
02924   2178 FD6E00FD6601
02925   217E                     ld   hl,(iy+126)        ; 217E FD 6E 7E FD 66 7F
02925   217E FD6E7EFD667F
02926   2184                     LD   HL,(IY+126)        ; 2184 FD 6E 7E FD 66 7F
02926   2184 FD6E7EFD667F
02927   218A 21 00 80            ld   hl,-32768          ; 218A 21 00 80
02928   218D 21 00 80            LD   HL,-32768          ; 218D 21 00 80
02929   2190 21 80 FF            ld   hl,-128            ; 2190 21 80 FF
02930   2193 21 80 FF            LD   HL,-128            ; 2193 21 80 FF
02931   2196 21 FF FF            ld   hl,-1              ; 2196 21 FF FF
02932   2199 21 FF FF            LD   HL,-1              ; 2199 21 FF FF
02933   219C 21 00 00            ld   hl,0               ; 219C 21 00 00
02934   219F 21 00 00            LD   HL,0               ; 219F 21 00 00
02935   21A2 21 7F 00            ld   hl,127             ; 21A2 21 7F 00
02936   21A5 21 7F 00            LD   HL,127             ; 21A5 21 7F 00
02937   21A8 21 FF 00            ld   hl,255             ; 21A8 21 FF 00
02938   21AB 21 FF 00            LD   HL,255             ; 21AB 21 FF 00
02939   21AE 21 FF 7F            ld   hl,32767           ; 21AE 21 FF 7F
02940   21B1 21 FF 7F            LD   HL,32767           ; 21B1 21 FF 7F
02941   21B4 21 FF FF            ld   hl,65535           ; 21B4 21 FF FF
02942   21B7 21 FF FF            LD   HL,65535           ; 21B7 21 FF FF
02943   21BA 2A 00 80            ld   hl,[-32768]        ; 21BA 2A 00 80
02944   21BD 2A 00 80            LD   HL,[-32768]        ; 21BD 2A 00 80
02945   21C0 2A 80 FF            ld   hl,[-128]          ; 21C0 2A 80 FF
02946   21C3 2A 80 FF            LD   HL,[-128]          ; 21C3 2A 80 FF
02947   21C6 2A FF FF            ld   hl,[-1]            ; 21C6 2A FF FF
02948   21C9 2A FF FF            LD   HL,[-1]            ; 21C9 2A FF FF
02949   21CC 2A 00 00            ld   hl,[0]             ; 21CC 2A 00 00
02950   21CF 2A 00 00            LD   HL,[0]             ; 21CF 2A 00 00
02951   21D2 2A 7F 00            ld   hl,[127]           ; 21D2 2A 7F 00
02952   21D5 2A 7F 00            LD   HL,[127]           ; 21D5 2A 7F 00
02953   21D8 2A FF 00            ld   hl,[255]           ; 21D8 2A FF 00
02954   21DB 2A FF 00            LD   HL,[255]           ; 21DB 2A FF 00
02955   21DE 2A FF 7F            ld   hl,[32767]         ; 21DE 2A FF 7F
02956   21E1 2A FF 7F            LD   HL,[32767]         ; 21E1 2A FF 7F
02957   21E4 2A FF FF            ld   hl,[65535]         ; 21E4 2A FF FF
02958   21E7 2A FF FF            LD   HL,[65535]         ; 21E7 2A FF FF
02959   21EA                     ld   hl,[ix+-128]       ; 21EA DD 6E 80 DD 66 81
02959   21EA DD6E80DD6681
02960   21F0                     LD   HL,[IX+-128]       ; 21F0 DD 6E 80 DD 66 81
02960   21F0 DD6E80DD6681
02961   21F6                     ld   hl,[ix+-1]         ; 21F6 DD 6E FF DD 66 00
02961   21F6 DD6EFFDD6600
02962   21FC                     LD   HL,[IX+-1]         ; 21FC DD 6E FF DD 66 00
02962   21FC DD6EFFDD6600
02963   2202                     ld   hl,[ix+0]          ; 2202 DD 6E 00 DD 66 01
02963   2202 DD6E00DD6601
02964   2208                     LD   HL,[IX+0]          ; 2208 DD 6E 00 DD 66 01
02964   2208 DD6E00DD6601
02965   220E                     ld   hl,[ix+126]        ; 220E DD 6E 7E DD 66 7F
02965   220E DD6E7EDD667F
02966   2214                     LD   HL,[IX+126]        ; 2214 DD 6E 7E DD 66 7F
02966   2214 DD6E7EDD667F
02967   221A                     ld   hl,[iy+-128]       ; 221A FD 6E 80 FD 66 81
02967   221A FD6E80FD6681
02968   2220                     LD   HL,[IY+-128]       ; 2220 FD 6E 80 FD 66 81
02968   2220 FD6E80FD6681
02969   2226                     ld   hl,[iy+-1]         ; 2226 FD 6E FF FD 66 00
02969   2226 FD6EFFFD6600
02970   222C                     LD   HL,[IY+-1]         ; 222C FD 6E FF FD 66 00
02970   222C FD6EFFFD6600
02971   2232                     ld   hl,[iy+0]          ; 2232 FD 6E 00 FD 66 01
02971   2232 FD6E00FD6601
02972   2238                     LD   HL,[IY+0]          ; 2238 FD 6E 00 FD 66 01
02972   2238 FD6E00FD6601
02973   223E                     ld   hl,[iy+126]        ; 223E FD 6E 7E FD 66 7F
02973   223E FD6E7EFD667F
02974   2244                     LD   HL,[IY+126]        ; 2244 FD 6E 7E FD 66 7F
02974   2244 FD6E7EFD667F
02975   224A 60 69               ld   hl,bc              ; 224A 60 69
02976   224C 60 69               LD   HL,BC              ; 224C 60 69
02977   224E 62 6B               ld   hl,de              ; 224E 62 6B
02978   2250 62 6B               LD   HL,DE              ; 2250 62 6B
02979   2252 64 6D               ld   hl,hl              ; 2252 64 6D
02980   2254 64 6D               LD   HL,HL              ; 2254 64 6D
02981   2256 DD E5 E1            ld   hl,ix              ; 2256 DD E5 E1
02982   2259 DD E5 E1            LD   HL,IX              ; 2259 DD E5 E1
02983   225C FD E5 E1            ld   hl,iy              ; 225C FD E5 E1
02984   225F FD E5 E1            LD   HL,IY              ; 225F FD E5 E1
02985   2262 DD 26 80            ld   hx,-128            ; 2262 DD 26 80
02986   2265 DD 26 80            LD   HX,-128            ; 2265 DD 26 80
02987   2268 DD 26 FF            ld   hx,-1              ; 2268 DD 26 FF
02988   226B DD 26 FF            LD   HX,-1              ; 226B DD 26 FF
02989   226E DD 26 00            ld   hx,0               ; 226E DD 26 00
02990   2271 DD 26 00            LD   HX,0               ; 2271 DD 26 00
02991   2274 DD 26 7F            ld   hx,127             ; 2274 DD 26 7F
02992   2277 DD 26 7F            LD   HX,127             ; 2277 DD 26 7F
02993   227A DD 26 FF            ld   hx,255             ; 227A DD 26 FF
02994   227D DD 26 FF            LD   HX,255             ; 227D DD 26 FF
02995   2280 DD 67               ld   hx,a               ; 2280 DD 67
02996   2282 DD 67               LD   HX,A               ; 2282 DD 67
02997   2284 DD 60               ld   hx,b               ; 2284 DD 60
02998   2286 DD 60               LD   HX,B               ; 2286 DD 60
02999   2288 DD 61               ld   hx,c               ; 2288 DD 61
03000   228A DD 61               LD   HX,C               ; 228A DD 61
03001   228C DD 62               ld   hx,d               ; 228C DD 62
03002   228E DD 62               LD   HX,D               ; 228E DD 62
03003   2290 DD 63               ld   hx,e               ; 2290 DD 63
03004   2292 DD 63               LD   HX,E               ; 2292 DD 63
03005   2294 DD 64               ld   hx,hx              ; 2294 DD 64
03006   2296 DD 64               LD   HX,HX              ; 2296 DD 64
03007   2298 DD 65               ld   hx,lx              ; 2298 DD 65
03008   229A DD 65               LD   HX,LX              ; 229A DD 65
03009   229C FD 26 80            ld   hy,-128            ; 229C FD 26 80
03010   229F FD 26 80            LD   HY,-128            ; 229F FD 26 80
03011   22A2 FD 26 FF            ld   hy,-1              ; 22A2 FD 26 FF
03012   22A5 FD 26 FF            LD   HY,-1              ; 22A5 FD 26 FF
03013   22A8 FD 26 00            ld   hy,0               ; 22A8 FD 26 00
03014   22AB FD 26 00            LD   HY,0               ; 22AB FD 26 00
03015   22AE FD 26 7F            ld   hy,127             ; 22AE FD 26 7F
03016   22B1 FD 26 7F            LD   HY,127             ; 22B1 FD 26 7F
03017   22B4 FD 26 FF            ld   hy,255             ; 22B4 FD 26 FF
03018   22B7 FD 26 FF            LD   HY,255             ; 22B7 FD 26 FF
03019   22BA FD 67               ld   hy,a               ; 22BA FD 67
03020   22BC FD 67               LD   HY,A               ; 22BC FD 67
03021   22BE FD 60               ld   hy,b               ; 22BE FD 60
03022   22C0 FD 60               LD   HY,B               ; 22C0 FD 60
03023   22C2 FD 61               ld   hy,c               ; 22C2 FD 61
03024   22C4 FD 61               LD   HY,C               ; 22C4 FD 61
03025   22C6 FD 62               ld   hy,d               ; 22C6 FD 62
03026   22C8 FD 62               LD   HY,D               ; 22C8 FD 62
03027   22CA FD 63               ld   hy,e               ; 22CA FD 63
03028   22CC FD 63               LD   HY,E               ; 22CC FD 63
03029   22CE FD 64               ld   hy,hy              ; 22CE FD 64
03030   22D0 FD 64               LD   HY,HY              ; 22D0 FD 64
03031   22D2 FD 65               ld   hy,ly              ; 22D2 FD 65
03032   22D4 FD 65               LD   HY,LY              ; 22D4 FD 65
03033   22D6 ED 47               ld   i,a                ; 22D6 ED 47
03034   22D8 ED 47               LD   I,A                ; 22D8 ED 47
03035   22DA DD 2A 00 80         ld   ix,(-32768)        ; 22DA DD 2A 00 80
03036   22DE DD 2A 00 80         LD   IX,(-32768)        ; 22DE DD 2A 00 80
03037   22E2 DD 2A 80 FF         ld   ix,(-128)          ; 22E2 DD 2A 80 FF
03038   22E6 DD 2A 80 FF         LD   IX,(-128)          ; 22E6 DD 2A 80 FF
03039   22EA DD 2A FF FF         ld   ix,(-1)            ; 22EA DD 2A FF FF
03040   22EE DD 2A FF FF         LD   IX,(-1)            ; 22EE DD 2A FF FF
03041   22F2 DD 2A 00 00         ld   ix,(0)             ; 22F2 DD 2A 00 00
03042   22F6 DD 2A 00 00         LD   IX,(0)             ; 22F6 DD 2A 00 00
03043   22FA DD 2A 7F 00         ld   ix,(127)           ; 22FA DD 2A 7F 00
03044   22FE DD 2A 7F 00         LD   IX,(127)           ; 22FE DD 2A 7F 00
03045   2302 DD 2A FF 00         ld   ix,(255)           ; 2302 DD 2A FF 00
03046   2306 DD 2A FF 00         LD   IX,(255)           ; 2306 DD 2A FF 00
03047   230A DD 2A FF 7F         ld   ix,(32767)         ; 230A DD 2A FF 7F
03048   230E DD 2A FF 7F         LD   IX,(32767)         ; 230E DD 2A FF 7F
03049   2312 DD 2A FF FF         ld   ix,(65535)         ; 2312 DD 2A FF FF
03050   2316 DD 2A FF FF         LD   IX,(65535)         ; 2316 DD 2A FF FF
03051   231A DD 21 00 80         ld   ix,-32768          ; 231A DD 21 00 80
03052   231E DD 21 00 80         LD   IX,-32768          ; 231E DD 21 00 80
03053   2322 DD 21 80 FF         ld   ix,-128            ; 2322 DD 21 80 FF
03054   2326 DD 21 80 FF         LD   IX,-128            ; 2326 DD 21 80 FF
03055   232A DD 21 FF FF         ld   ix,-1              ; 232A DD 21 FF FF
03056   232E DD 21 FF FF         LD   IX,-1              ; 232E DD 21 FF FF
03057   2332 DD 21 00 00         ld   ix,0               ; 2332 DD 21 00 00
03058   2336 DD 21 00 00         LD   IX,0               ; 2336 DD 21 00 00
03059   233A DD 21 7F 00         ld   ix,127             ; 233A DD 21 7F 00
03060   233E DD 21 7F 00         LD   IX,127             ; 233E DD 21 7F 00
03061   2342 DD 21 FF 00         ld   ix,255             ; 2342 DD 21 FF 00
03062   2346 DD 21 FF 00         LD   IX,255             ; 2346 DD 21 FF 00
03063   234A DD 21 FF 7F         ld   ix,32767           ; 234A DD 21 FF 7F
03064   234E DD 21 FF 7F         LD   IX,32767           ; 234E DD 21 FF 7F
03065   2352 DD 21 FF FF         ld   ix,65535           ; 2352 DD 21 FF FF
03066   2356 DD 21 FF FF         LD   IX,65535           ; 2356 DD 21 FF FF
03067   235A DD 2A 00 80         ld   ix,[-32768]        ; 235A DD 2A 00 80
03068   235E DD 2A 00 80         LD   IX,[-32768]        ; 235E DD 2A 00 80
03069   2362 DD 2A 80 FF         ld   ix,[-128]          ; 2362 DD 2A 80 FF
03070   2366 DD 2A 80 FF         LD   IX,[-128]          ; 2366 DD 2A 80 FF
03071   236A DD 2A FF FF         ld   ix,[-1]            ; 236A DD 2A FF FF
03072   236E DD 2A FF FF         LD   IX,[-1]            ; 236E DD 2A FF FF
03073   2372 DD 2A 00 00         ld   ix,[0]             ; 2372 DD 2A 00 00
03074   2376 DD 2A 00 00         LD   IX,[0]             ; 2376 DD 2A 00 00
03075   237A DD 2A 7F 00         ld   ix,[127]           ; 237A DD 2A 7F 00
03076   237E DD 2A 7F 00         LD   IX,[127]           ; 237E DD 2A 7F 00
03077   2382 DD 2A FF 00         ld   ix,[255]           ; 2382 DD 2A FF 00
03078   2386 DD 2A FF 00         LD   IX,[255]           ; 2386 DD 2A FF 00
03079   238A DD 2A FF 7F         ld   ix,[32767]         ; 238A DD 2A FF 7F
03080   238E DD 2A FF 7F         LD   IX,[32767]         ; 238E DD 2A FF 7F
03081   2392 DD 2A FF FF         ld   ix,[65535]         ; 2392 DD 2A FF FF
03082   2396 DD 2A FF FF         LD   IX,[65535]         ; 2396 DD 2A FF FF
03083   239A DD 69 DD 60         ld   ix,bc              ; 239A DD 69 DD 60
03084   239E DD 69 DD 60         LD   IX,BC              ; 239E DD 69 DD 60
03085   23A2 DD 6B DD 62         ld   ix,de              ; 23A2 DD 6B DD 62
03086   23A6 DD 6B DD 62         LD   IX,DE              ; 23A6 DD 6B DD 62
03087   23AA E5 DD E1            ld   ix,hl              ; 23AA E5 DD E1
03088   23AD E5 DD E1            LD   IX,HL              ; 23AD E5 DD E1
03089   23B0 DD 6D DD 64         ld   ix,ix              ; 23B0 DD 6D DD 64
03090   23B4 DD 6D DD 64         LD   IX,IX              ; 23B4 DD 6D DD 64
03091   23B8 FD E5 DD E1         ld   ix,iy              ; 23B8 FD E5 DD E1
03092   23BC FD E5 DD E1         LD   IX,IY              ; 23BC FD E5 DD E1
03093   23C0 DD 26 80            ld   ixh,-128           ; 23C0 DD 26 80
03094   23C3 DD 26 80            LD   IXH,-128           ; 23C3 DD 26 80
03095   23C6 DD 26 FF            ld   ixh,-1             ; 23C6 DD 26 FF
03096   23C9 DD 26 FF            LD   IXH,-1             ; 23C9 DD 26 FF
03097   23CC DD 26 00            ld   ixh,0              ; 23CC DD 26 00
03098   23CF DD 26 00            LD   IXH,0              ; 23CF DD 26 00
03099   23D2 DD 26 7F            ld   ixh,127            ; 23D2 DD 26 7F
03100   23D5 DD 26 7F            LD   IXH,127            ; 23D5 DD 26 7F
03101   23D8 DD 26 FF            ld   ixh,255            ; 23D8 DD 26 FF
03102   23DB DD 26 FF            LD   IXH,255            ; 23DB DD 26 FF
03103   23DE DD 67               ld   ixh,a              ; 23DE DD 67
03104   23E0 DD 67               LD   IXH,A              ; 23E0 DD 67
03105   23E2 DD 60               ld   ixh,b              ; 23E2 DD 60
03106   23E4 DD 60               LD   IXH,B              ; 23E4 DD 60
03107   23E6 DD 61               ld   ixh,c              ; 23E6 DD 61
03108   23E8 DD 61               LD   IXH,C              ; 23E8 DD 61
03109   23EA DD 62               ld   ixh,d              ; 23EA DD 62
03110   23EC DD 62               LD   IXH,D              ; 23EC DD 62
03111   23EE DD 63               ld   ixh,e              ; 23EE DD 63
03112   23F0 DD 63               LD   IXH,E              ; 23F0 DD 63
03113   23F2 DD 64               ld   ixh,ixh            ; 23F2 DD 64
03114   23F4 DD 64               LD   IXH,IXH            ; 23F4 DD 64
03115   23F6 DD 65               ld   ixh,ixl            ; 23F6 DD 65
03116   23F8 DD 65               LD   IXH,IXL            ; 23F8 DD 65
03117   23FA DD 2E 80            ld   ixl,-128           ; 23FA DD 2E 80
03118   23FD DD 2E 80            LD   IXL,-128           ; 23FD DD 2E 80
03119   2400 DD 2E FF            ld   ixl,-1             ; 2400 DD 2E FF
03120   2403 DD 2E FF            LD   IXL,-1             ; 2403 DD 2E FF
03121   2406 DD 2E 00            ld   ixl,0              ; 2406 DD 2E 00
03122   2409 DD 2E 00            LD   IXL,0              ; 2409 DD 2E 00
03123   240C DD 2E 7F            ld   ixl,127            ; 240C DD 2E 7F
03124   240F DD 2E 7F            LD   IXL,127            ; 240F DD 2E 7F
03125   2412 DD 2E FF            ld   ixl,255            ; 2412 DD 2E FF
03126   2415 DD 2E FF            LD   IXL,255            ; 2415 DD 2E FF
03127   2418 DD 6F               ld   ixl,a              ; 2418 DD 6F
03128   241A DD 6F               LD   IXL,A              ; 241A DD 6F
03129   241C DD 68               ld   ixl,b              ; 241C DD 68
03130   241E DD 68               LD   IXL,B              ; 241E DD 68
03131   2420 DD 69               ld   ixl,c              ; 2420 DD 69
03132   2422 DD 69               LD   IXL,C              ; 2422 DD 69
03133   2424 DD 6A               ld   ixl,d              ; 2424 DD 6A
03134   2426 DD 6A               LD   IXL,D              ; 2426 DD 6A
03135   2428 DD 6B               ld   ixl,e              ; 2428 DD 6B
03136   242A DD 6B               LD   IXL,E              ; 242A DD 6B
03137   242C DD 6C               ld   ixl,ixh            ; 242C DD 6C
03138   242E DD 6C               LD   IXL,IXH            ; 242E DD 6C
03139   2430 DD 6D               ld   ixl,ixl            ; 2430 DD 6D
03140   2432 DD 6D               LD   IXL,IXL            ; 2432 DD 6D
03141   2434 FD 2A 00 80         ld   iy,(-32768)        ; 2434 FD 2A 00 80
03142   2438 FD 2A 00 80         LD   IY,(-32768)        ; 2438 FD 2A 00 80
03143   243C FD 2A 80 FF         ld   iy,(-128)          ; 243C FD 2A 80 FF
03144   2440 FD 2A 80 FF         LD   IY,(-128)          ; 2440 FD 2A 80 FF
03145   2444 FD 2A FF FF         ld   iy,(-1)            ; 2444 FD 2A FF FF
03146   2448 FD 2A FF FF         LD   IY,(-1)            ; 2448 FD 2A FF FF
03147   244C FD 2A 00 00         ld   iy,(0)             ; 244C FD 2A 00 00
03148   2450 FD 2A 00 00         LD   IY,(0)             ; 2450 FD 2A 00 00
03149   2454 FD 2A 7F 00         ld   iy,(127)           ; 2454 FD 2A 7F 00
03150   2458 FD 2A 7F 00         LD   IY,(127)           ; 2458 FD 2A 7F 00
03151   245C FD 2A FF 00         ld   iy,(255)           ; 245C FD 2A FF 00
03152   2460 FD 2A FF 00         LD   IY,(255)           ; 2460 FD 2A FF 00
03153   2464 FD 2A FF 7F         ld   iy,(32767)         ; 2464 FD 2A FF 7F
03154   2468 FD 2A FF 7F         LD   IY,(32767)         ; 2468 FD 2A FF 7F
03155   246C FD 2A FF FF         ld   iy,(65535)         ; 246C FD 2A FF FF
03156   2470 FD 2A FF FF         LD   IY,(65535)         ; 2470 FD 2A FF FF
03157   2474 FD 21 00 80         ld   iy,-32768          ; 2474 FD 21 00 80
03158   2478 FD 21 00 80         LD   IY,-32768          ; 2478 FD 21 00 80
03159   247C FD 21 80 FF         ld   iy,-128            ; 247C FD 21 80 FF
03160   2480 FD 21 80 FF         LD   IY,-128            ; 2480 FD 21 80 FF
03161   2484 FD 21 FF FF         ld   iy,-1              ; 2484 FD 21 FF FF
03162   2488 FD 21 FF FF         LD   IY,-1              ; 2488 FD 21 FF FF
03163   248C FD 21 00 00         ld   iy,0               ; 248C FD 21 00 00
03164   2490 FD 21 00 00         LD   IY,0               ; 2490 FD 21 00 00
03165   2494 FD 21 7F 00         ld   iy,127             ; 2494 FD 21 7F 00
03166   2498 FD 21 7F 00         LD   IY,127             ; 2498 FD 21 7F 00
03167   249C FD 21 FF 00         ld   iy,255             ; 249C FD 21 FF 00
03168   24A0 FD 21 FF 00         LD   IY,255             ; 24A0 FD 21 FF 00
03169   24A4 FD 21 FF 7F         ld   iy,32767           ; 24A4 FD 21 FF 7F
03170   24A8 FD 21 FF 7F         LD   IY,32767           ; 24A8 FD 21 FF 7F
03171   24AC FD 21 FF FF         ld   iy,65535           ; 24AC FD 21 FF FF
03172   24B0 FD 21 FF FF         LD   IY,65535           ; 24B0 FD 21 FF FF
03173   24B4 FD 2A 00 80         ld   iy,[-32768]        ; 24B4 FD 2A 00 80
03174   24B8 FD 2A 00 80         LD   IY,[-32768]        ; 24B8 FD 2A 00 80
03175   24BC FD 2A 80 FF         ld   iy,[-128]          ; 24BC FD 2A 80 FF
03176   24C0 FD 2A 80 FF         LD   IY,[-128]          ; 24C0 FD 2A 80 FF
03177   24C4 FD 2A FF FF         ld   iy,[-1]            ; 24C4 FD 2A FF FF
03178   24C8 FD 2A FF FF         LD   IY,[-1]            ; 24C8 FD 2A FF FF
03179   24CC FD 2A 00 00         ld   iy,[0]             ; 24CC FD 2A 00 00
03180   24D0 FD 2A 00 00         LD   IY,[0]             ; 24D0 FD 2A 00 00
03181   24D4 FD 2A 7F 00         ld   iy,[127]           ; 24D4 FD 2A 7F 00
03182   24D8 FD 2A 7F 00         LD   IY,[127]           ; 24D8 FD 2A 7F 00
03183   24DC FD 2A FF 00         ld   iy,[255]           ; 24DC FD 2A FF 00
03184   24E0 FD 2A FF 00         LD   IY,[255]           ; 24E0 FD 2A FF 00
03185   24E4 FD 2A FF 7F         ld   iy,[32767]         ; 24E4 FD 2A FF 7F
03186   24E8 FD 2A FF 7F         LD   IY,[32767]         ; 24E8 FD 2A FF 7F
03187   24EC FD 2A FF FF         ld   iy,[65535]         ; 24EC FD 2A FF FF
03188   24F0 FD 2A FF FF         LD   IY,[65535]         ; 24F0 FD 2A FF FF
03189   24F4 FD 69 FD 60         ld   iy,bc              ; 24F4 FD 69 FD 60
03190   24F8 FD 69 FD 60         LD   IY,BC              ; 24F8 FD 69 FD 60
03191   24FC FD 6B FD 62         ld   iy,de              ; 24FC FD 6B FD 62
03192   2500 FD 6B FD 62         LD   IY,DE              ; 2500 FD 6B FD 62
03193   2504 E5 FD E1            ld   iy,hl              ; 2504 E5 FD E1
03194   2507 E5 FD E1            LD   IY,HL              ; 2507 E5 FD E1
03195   250A DD E5 FD E1         ld   iy,ix              ; 250A DD E5 FD E1
03196   250E DD E5 FD E1         LD   IY,IX              ; 250E DD E5 FD E1
03197   2512 FD 6D FD 64         ld   iy,iy              ; 2512 FD 6D FD 64
03198   2516 FD 6D FD 64         LD   IY,IY              ; 2516 FD 6D FD 64
03199   251A FD 26 80            ld   iyh,-128           ; 251A FD 26 80
03200   251D FD 26 80            LD   IYH,-128           ; 251D FD 26 80
03201   2520 FD 26 FF            ld   iyh,-1             ; 2520 FD 26 FF
03202   2523 FD 26 FF            LD   IYH,-1             ; 2523 FD 26 FF
03203   2526 FD 26 00            ld   iyh,0              ; 2526 FD 26 00
03204   2529 FD 26 00            LD   IYH,0              ; 2529 FD 26 00
03205   252C FD 26 7F            ld   iyh,127            ; 252C FD 26 7F
03206   252F FD 26 7F            LD   IYH,127            ; 252F FD 26 7F
03207   2532 FD 26 FF            ld   iyh,255            ; 2532 FD 26 FF
03208   2535 FD 26 FF            LD   IYH,255            ; 2535 FD 26 FF
03209   2538 FD 67               ld   iyh,a              ; 2538 FD 67
03210   253A FD 67               LD   IYH,A              ; 253A FD 67
03211   253C FD 60               ld   iyh,b              ; 253C FD 60
03212   253E FD 60               LD   IYH,B              ; 253E FD 60
03213   2540 FD 61               ld   iyh,c              ; 2540 FD 61
03214   2542 FD 61               LD   IYH,C              ; 2542 FD 61
03215   2544 FD 62               ld   iyh,d              ; 2544 FD 62
03216   2546 FD 62               LD   IYH,D              ; 2546 FD 62
03217   2548 FD 63               ld   iyh,e              ; 2548 FD 63
03218   254A FD 63               LD   IYH,E              ; 254A FD 63
03219   254C FD 64               ld   iyh,iyh            ; 254C FD 64
03220   254E FD 64               LD   IYH,IYH            ; 254E FD 64
03221   2550 FD 65               ld   iyh,iyl            ; 2550 FD 65
03222   2552 FD 65               LD   IYH,IYL            ; 2552 FD 65
03223   2554 FD 2E 80            ld   iyl,-128           ; 2554 FD 2E 80
03224   2557 FD 2E 80            LD   IYL,-128           ; 2557 FD 2E 80
03225   255A FD 2E FF            ld   iyl,-1             ; 255A FD 2E FF
03226   255D FD 2E FF            LD   IYL,-1             ; 255D FD 2E FF
03227   2560 FD 2E 00            ld   iyl,0              ; 2560 FD 2E 00
03228   2563 FD 2E 00            LD   IYL,0              ; 2563 FD 2E 00
03229   2566 FD 2E 7F            ld   iyl,127            ; 2566 FD 2E 7F
03230   2569 FD 2E 7F            LD   IYL,127            ; 2569 FD 2E 7F
03231   256C FD 2E FF            ld   iyl,255            ; 256C FD 2E FF
03232   256F FD 2E FF            LD   IYL,255            ; 256F FD 2E FF
03233   2572 FD 6F               ld   iyl,a              ; 2572 FD 6F
03234   2574 FD 6F               LD   IYL,A              ; 2574 FD 6F
03235   2576 FD 68               ld   iyl,b              ; 2576 FD 68
03236   2578 FD 68               LD   IYL,B              ; 2578 FD 68
03237   257A FD 69               ld   iyl,c              ; 257A FD 69
03238   257C FD 69               LD   IYL,C              ; 257C FD 69
03239   257E FD 6A               ld   iyl,d              ; 257E FD 6A
03240   2580 FD 6A               LD   IYL,D              ; 2580 FD 6A
03241   2582 FD 6B               ld   iyl,e              ; 2582 FD 6B
03242   2584 FD 6B               LD   IYL,E              ; 2584 FD 6B
03243   2586 FD 6C               ld   iyl,iyh            ; 2586 FD 6C
03244   2588 FD 6C               LD   IYL,IYH            ; 2588 FD 6C
03245   258A FD 6D               ld   iyl,iyl            ; 258A FD 6D
03246   258C FD 6D               LD   IYL,IYL            ; 258C FD 6D
03247   258E 6E                  ld   l,(hl)             ; 258E 6E
03248   258F 6E                  LD   L,(HL)             ; 258F 6E
03249   2590 DD 6E 80            ld   l,(ix+-128)        ; 2590 DD 6E 80
03250   2593 DD 6E 80            LD   L,(IX+-128)        ; 2593 DD 6E 80
03251   2596 DD 6E FF            ld   l,(ix+-1)          ; 2596 DD 6E FF
03252   2599 DD 6E FF            LD   L,(IX+-1)          ; 2599 DD 6E FF
03253   259C DD 6E 00            ld   l,(ix+0)           ; 259C DD 6E 00
03254   259F DD 6E 00            LD   L,(IX+0)           ; 259F DD 6E 00
03255   25A2 DD 6E 7F            ld   l,(ix+127)         ; 25A2 DD 6E 7F
03256   25A5 DD 6E 7F            LD   L,(IX+127)         ; 25A5 DD 6E 7F
03257   25A8 FD 6E 80            ld   l,(iy+-128)        ; 25A8 FD 6E 80
03258   25AB FD 6E 80            LD   L,(IY+-128)        ; 25AB FD 6E 80
03259   25AE FD 6E FF            ld   l,(iy+-1)          ; 25AE FD 6E FF
03260   25B1 FD 6E FF            LD   L,(IY+-1)          ; 25B1 FD 6E FF
03261   25B4 FD 6E 00            ld   l,(iy+0)           ; 25B4 FD 6E 00
03262   25B7 FD 6E 00            LD   L,(IY+0)           ; 25B7 FD 6E 00
03263   25BA FD 6E 7F            ld   l,(iy+127)         ; 25BA FD 6E 7F
03264   25BD FD 6E 7F            LD   L,(IY+127)         ; 25BD FD 6E 7F
03265   25C0 2E 80               ld   l,-128             ; 25C0 2E 80
03266   25C2 2E 80               LD   L,-128             ; 25C2 2E 80
03267   25C4 2E FF               ld   l,-1               ; 25C4 2E FF
03268   25C6 2E FF               LD   L,-1               ; 25C6 2E FF
03269   25C8 2E 00               ld   l,0                ; 25C8 2E 00
03270   25CA 2E 00               LD   L,0                ; 25CA 2E 00
03271   25CC 2E 7F               ld   l,127              ; 25CC 2E 7F
03272   25CE 2E 7F               LD   L,127              ; 25CE 2E 7F
03273   25D0 2E FF               ld   l,255              ; 25D0 2E FF
03274   25D2 2E FF               LD   L,255              ; 25D2 2E FF
03275   25D4 6E                  ld   l,[hl]             ; 25D4 6E
03276   25D5 6E                  LD   L,[HL]             ; 25D5 6E
03277   25D6 DD 6E 80            ld   l,[ix+-128]        ; 25D6 DD 6E 80
03278   25D9 DD 6E 80            LD   L,[IX+-128]        ; 25D9 DD 6E 80
03279   25DC DD 6E FF            ld   l,[ix+-1]          ; 25DC DD 6E FF
03280   25DF DD 6E FF            LD   L,[IX+-1]          ; 25DF DD 6E FF
03281   25E2 DD 6E 00            ld   l,[ix+0]           ; 25E2 DD 6E 00
03282   25E5 DD 6E 00            LD   L,[IX+0]           ; 25E5 DD 6E 00
03283   25E8 DD 6E 7F            ld   l,[ix+127]         ; 25E8 DD 6E 7F
03284   25EB DD 6E 7F            LD   L,[IX+127]         ; 25EB DD 6E 7F
03285   25EE FD 6E 80            ld   l,[iy+-128]        ; 25EE FD 6E 80
03286   25F1 FD 6E 80            LD   L,[IY+-128]        ; 25F1 FD 6E 80
03287   25F4 FD 6E FF            ld   l,[iy+-1]          ; 25F4 FD 6E FF
03288   25F7 FD 6E FF            LD   L,[IY+-1]          ; 25F7 FD 6E FF
03289   25FA FD 6E 00            ld   l,[iy+0]           ; 25FA FD 6E 00
03290   25FD FD 6E 00            LD   L,[IY+0]           ; 25FD FD 6E 00
03291   2600 FD 6E 7F            ld   l,[iy+127]         ; 2600 FD 6E 7F
03292   2603 FD 6E 7F            LD   L,[IY+127]         ; 2603 FD 6E 7F
03293   2606 6F                  ld   l,a                ; 2606 6F
03294   2607 6F                  LD   L,A                ; 2607 6F
03295   2608 68                  ld   l,b                ; 2608 68
03296   2609 68                  LD   L,B                ; 2609 68
03297   260A 69                  ld   l,c                ; 260A 69
03298   260B 69                  LD   L,C                ; 260B 69
03299   260C 6A                  ld   l,d                ; 260C 6A
03300   260D 6A                  LD   L,D                ; 260D 6A
03301   260E 6B                  ld   l,e                ; 260E 6B
03302   260F 6B                  LD   L,E                ; 260F 6B
03303   2610 6C                  ld   l,h                ; 2610 6C
03304   2611 6C                  LD   L,H                ; 2611 6C
03305   2612 6D                  ld   l,l                ; 2612 6D
03306   2613 6D                  LD   L,L                ; 2613 6D
03307   2614 DD 2E 80            ld   lx,-128            ; 2614 DD 2E 80
03308   2617 DD 2E 80            LD   LX,-128            ; 2617 DD 2E 80
03309   261A DD 2E FF            ld   lx,-1              ; 261A DD 2E FF
03310   261D DD 2E FF            LD   LX,-1              ; 261D DD 2E FF
03311   2620 DD 2E 00            ld   lx,0               ; 2620 DD 2E 00
03312   2623 DD 2E 00            LD   LX,0               ; 2623 DD 2E 00
03313   2626 DD 2E 7F            ld   lx,127             ; 2626 DD 2E 7F
03314   2629 DD 2E 7F            LD   LX,127             ; 2629 DD 2E 7F
03315   262C DD 2E FF            ld   lx,255             ; 262C DD 2E FF
03316   262F DD 2E FF            LD   LX,255             ; 262F DD 2E FF
03317   2632 DD 6F               ld   lx,a               ; 2632 DD 6F
03318   2634 DD 6F               LD   LX,A               ; 2634 DD 6F
03319   2636 DD 68               ld   lx,b               ; 2636 DD 68
03320   2638 DD 68               LD   LX,B               ; 2638 DD 68
03321   263A DD 69               ld   lx,c               ; 263A DD 69
03322   263C DD 69               LD   LX,C               ; 263C DD 69
03323   263E DD 6A               ld   lx,d               ; 263E DD 6A
03324   2640 DD 6A               LD   LX,D               ; 2640 DD 6A
03325   2642 DD 6B               ld   lx,e               ; 2642 DD 6B
03326   2644 DD 6B               LD   LX,E               ; 2644 DD 6B
03327   2646 DD 6C               ld   lx,hx              ; 2646 DD 6C
03328   2648 DD 6C               LD   LX,HX              ; 2648 DD 6C
03329   264A DD 6D               ld   lx,lx              ; 264A DD 6D
03330   264C DD 6D               LD   LX,LX              ; 264C DD 6D
03331   264E FD 2E 80            ld   ly,-128            ; 264E FD 2E 80
03332   2651 FD 2E 80            LD   LY,-128            ; 2651 FD 2E 80
03333   2654 FD 2E FF            ld   ly,-1              ; 2654 FD 2E FF
03334   2657 FD 2E FF            LD   LY,-1              ; 2657 FD 2E FF
03335   265A FD 2E 00            ld   ly,0               ; 265A FD 2E 00
03336   265D FD 2E 00            LD   LY,0               ; 265D FD 2E 00
03337   2660 FD 2E 7F            ld   ly,127             ; 2660 FD 2E 7F
03338   2663 FD 2E 7F            LD   LY,127             ; 2663 FD 2E 7F
03339   2666 FD 2E FF            ld   ly,255             ; 2666 FD 2E FF
03340   2669 FD 2E FF            LD   LY,255             ; 2669 FD 2E FF
03341   266C FD 6F               ld   ly,a               ; 266C FD 6F
03342   266E FD 6F               LD   LY,A               ; 266E FD 6F
03343   2670 FD 68               ld   ly,b               ; 2670 FD 68
03344   2672 FD 68               LD   LY,B               ; 2672 FD 68
03345   2674 FD 69               ld   ly,c               ; 2674 FD 69
03346   2676 FD 69               LD   LY,C               ; 2676 FD 69
03347   2678 FD 6A               ld   ly,d               ; 2678 FD 6A
03348   267A FD 6A               LD   LY,D               ; 267A FD 6A
03349   267C FD 6B               ld   ly,e               ; 267C FD 6B
03350   267E FD 6B               LD   LY,E               ; 267E FD 6B
03351   2680 FD 6C               ld   ly,hy              ; 2680 FD 6C
03352   2682 FD 6C               LD   LY,HY              ; 2682 FD 6C
03353   2684 FD 6D               ld   ly,ly              ; 2684 FD 6D
03354   2686 FD 6D               LD   LY,LY              ; 2686 FD 6D
03355   2688 ED 4F               ld   r,a                ; 2688 ED 4F
03356   268A ED 4F               LD   R,A                ; 268A ED 4F
03357   268C ED 7B 00 80         ld   sp,(-32768)        ; 268C ED 7B 00 80
03358   2690 ED 7B 00 80         LD   SP,(-32768)        ; 2690 ED 7B 00 80
03359   2694 ED 7B 80 FF         ld   sp,(-128)          ; 2694 ED 7B 80 FF
03360   2698 ED 7B 80 FF         LD   SP,(-128)          ; 2698 ED 7B 80 FF
03361   269C ED 7B FF FF         ld   sp,(-1)            ; 269C ED 7B FF FF
03362   26A0 ED 7B FF FF         LD   SP,(-1)            ; 26A0 ED 7B FF FF
03363   26A4 ED 7B 00 00         ld   sp,(0)             ; 26A4 ED 7B 00 00
03364   26A8 ED 7B 00 00         LD   SP,(0)             ; 26A8 ED 7B 00 00
03365   26AC ED 7B 7F 00         ld   sp,(127)           ; 26AC ED 7B 7F 00
03366   26B0 ED 7B 7F 00         LD   SP,(127)           ; 26B0 ED 7B 7F 00
03367   26B4 ED 7B FF 00         ld   sp,(255)           ; 26B4 ED 7B FF 00
03368   26B8 ED 7B FF 00         LD   SP,(255)           ; 26B8 ED 7B FF 00
03369   26BC ED 7B FF 7F         ld   sp,(32767)         ; 26BC ED 7B FF 7F
03370   26C0 ED 7B FF 7F         LD   SP,(32767)         ; 26C0 ED 7B FF 7F
03371   26C4 ED 7B FF FF         ld   sp,(65535)         ; 26C4 ED 7B FF FF
03372   26C8 ED 7B FF FF         LD   SP,(65535)         ; 26C8 ED 7B FF FF
03373   26CC 31 00 80            ld   sp,-32768          ; 26CC 31 00 80
03374   26CF 31 00 80            LD   SP,-32768          ; 26CF 31 00 80
03375   26D2 31 80 FF            ld   sp,-128            ; 26D2 31 80 FF
03376   26D5 31 80 FF            LD   SP,-128            ; 26D5 31 80 FF
03377   26D8 31 FF FF            ld   sp,-1              ; 26D8 31 FF FF
03378   26DB 31 FF FF            LD   SP,-1              ; 26DB 31 FF FF
03379   26DE 31 00 00            ld   sp,0               ; 26DE 31 00 00
03380   26E1 31 00 00            LD   SP,0               ; 26E1 31 00 00
03381   26E4 31 7F 00            ld   sp,127             ; 26E4 31 7F 00
03382   26E7 31 7F 00            LD   SP,127             ; 26E7 31 7F 00
03383   26EA 31 FF 00            ld   sp,255             ; 26EA 31 FF 00
03384   26ED 31 FF 00            LD   SP,255             ; 26ED 31 FF 00
03385   26F0 31 FF 7F            ld   sp,32767           ; 26F0 31 FF 7F
03386   26F3 31 FF 7F            LD   SP,32767           ; 26F3 31 FF 7F
03387   26F6 31 FF FF            ld   sp,65535           ; 26F6 31 FF FF
03388   26F9 31 FF FF            LD   SP,65535           ; 26F9 31 FF FF
03389   26FC ED 7B 00 80         ld   sp,[-32768]        ; 26FC ED 7B 00 80
03390   2700 ED 7B 00 80         LD   SP,[-32768]        ; 2700 ED 7B 00 80
03391   2704 ED 7B 80 FF         ld   sp,[-128]          ; 2704 ED 7B 80 FF
03392   2708 ED 7B 80 FF         LD   SP,[-128]          ; 2708 ED 7B 80 FF
03393   270C ED 7B FF FF         ld   sp,[-1]            ; 270C ED 7B FF FF
03394   2710 ED 7B FF FF         LD   SP,[-1]            ; 2710 ED 7B FF FF
03395   2714 ED 7B 00 00         ld   sp,[0]             ; 2714 ED 7B 00 00
03396   2718 ED 7B 00 00         LD   SP,[0]             ; 2718 ED 7B 00 00
03397   271C ED 7B 7F 00         ld   sp,[127]           ; 271C ED 7B 7F 00
03398   2720 ED 7B 7F 00         LD   SP,[127]           ; 2720 ED 7B 7F 00
03399   2724 ED 7B FF 00         ld   sp,[255]           ; 2724 ED 7B FF 00
03400   2728 ED 7B FF 00         LD   SP,[255]           ; 2728 ED 7B FF 00
03401   272C ED 7B FF 7F         ld   sp,[32767]         ; 272C ED 7B FF 7F
03402   2730 ED 7B FF 7F         LD   SP,[32767]         ; 2730 ED 7B FF 7F
03403   2734 ED 7B FF FF         ld   sp,[65535]         ; 2734 ED 7B FF FF
03404   2738 ED 7B FF FF         LD   SP,[65535]         ; 2738 ED 7B FF FF
03405   273C F9                  ld   sp,hl              ; 273C F9
03406   273D F9                  LD   SP,HL              ; 273D F9
03407   273E DD F9               ld   sp,ix              ; 273E DD F9
03408   2740 DD F9               LD   SP,IX              ; 2740 DD F9
03409   2742 FD F9               ld   sp,iy              ; 2742 FD F9
03410   2744 FD F9               LD   SP,IY              ; 2744 FD F9
03411   2746 DD 26 80            ld   xh,-128            ; 2746 DD 26 80
03412   2749 DD 26 80            LD   XH,-128            ; 2749 DD 26 80
03413   274C DD 26 FF            ld   xh,-1              ; 274C DD 26 FF
03414   274F DD 26 FF            LD   XH,-1              ; 274F DD 26 FF
03415   2752 DD 26 00            ld   xh,0               ; 2752 DD 26 00
03416   2755 DD 26 00            LD   XH,0               ; 2755 DD 26 00
03417   2758 DD 26 7F            ld   xh,127             ; 2758 DD 26 7F
03418   275B DD 26 7F            LD   XH,127             ; 275B DD 26 7F
03419   275E DD 26 FF            ld   xh,255             ; 275E DD 26 FF
03420   2761 DD 26 FF            LD   XH,255             ; 2761 DD 26 FF
03421   2764 DD 67               ld   xh,a               ; 2764 DD 67
03422   2766 DD 67               LD   XH,A               ; 2766 DD 67
03423   2768 DD 60               ld   xh,b               ; 2768 DD 60
03424   276A DD 60               LD   XH,B               ; 276A DD 60
03425   276C DD 61               ld   xh,c               ; 276C DD 61
03426   276E DD 61               LD   XH,C               ; 276E DD 61
03427   2770 DD 62               ld   xh,d               ; 2770 DD 62
03428   2772 DD 62               LD   XH,D               ; 2772 DD 62
03429   2774 DD 63               ld   xh,e               ; 2774 DD 63
03430   2776 DD 63               LD   XH,E               ; 2776 DD 63
03431   2778 DD 64               ld   xh,xh              ; 2778 DD 64
03432   277A DD 64               LD   XH,XH              ; 277A DD 64
03433   277C DD 65               ld   xh,xl              ; 277C DD 65
03434   277E DD 65               LD   XH,XL              ; 277E DD 65
03435   2780 DD 2E 80            ld   xl,-128            ; 2780 DD 2E 80
03436   2783 DD 2E 80            LD   XL,-128            ; 2783 DD 2E 80
03437   2786 DD 2E FF            ld   xl,-1              ; 2786 DD 2E FF
03438   2789 DD 2E FF            LD   XL,-1              ; 2789 DD 2E FF
03439   278C DD 2E 00            ld   xl,0               ; 278C DD 2E 00
03440   278F DD 2E 00            LD   XL,0               ; 278F DD 2E 00
03441   2792 DD 2E 7F            ld   xl,127             ; 2792 DD 2E 7F
03442   2795 DD 2E 7F            LD   XL,127             ; 2795 DD 2E 7F
03443   2798 DD 2E FF            ld   xl,255             ; 2798 DD 2E FF
03444   279B DD 2E FF            LD   XL,255             ; 279B DD 2E FF
03445   279E DD 6F               ld   xl,a               ; 279E DD 6F
03446   27A0 DD 6F               LD   XL,A               ; 27A0 DD 6F
03447   27A2 DD 68               ld   xl,b               ; 27A2 DD 68
03448   27A4 DD 68               LD   XL,B               ; 27A4 DD 68
03449   27A6 DD 69               ld   xl,c               ; 27A6 DD 69
03450   27A8 DD 69               LD   XL,C               ; 27A8 DD 69
03451   27AA DD 6A               ld   xl,d               ; 27AA DD 6A
03452   27AC DD 6A               LD   XL,D               ; 27AC DD 6A
03453   27AE DD 6B               ld   xl,e               ; 27AE DD 6B
03454   27B0 DD 6B               LD   XL,E               ; 27B0 DD 6B
03455   27B2 DD 6C               ld   xl,xh              ; 27B2 DD 6C
03456   27B4 DD 6C               LD   XL,XH              ; 27B4 DD 6C
03457   27B6 DD 6D               ld   xl,xl              ; 27B6 DD 6D
03458   27B8 DD 6D               LD   XL,XL              ; 27B8 DD 6D
03459   27BA FD 26 80            ld   yh,-128            ; 27BA FD 26 80
03460   27BD FD 26 80            LD   YH,-128            ; 27BD FD 26 80
03461   27C0 FD 26 FF            ld   yh,-1              ; 27C0 FD 26 FF
03462   27C3 FD 26 FF            LD   YH,-1              ; 27C3 FD 26 FF
03463   27C6 FD 26 00            ld   yh,0               ; 27C6 FD 26 00
03464   27C9 FD 26 00            LD   YH,0               ; 27C9 FD 26 00
03465   27CC FD 26 7F            ld   yh,127             ; 27CC FD 26 7F
03466   27CF FD 26 7F            LD   YH,127             ; 27CF FD 26 7F
03467   27D2 FD 26 FF            ld   yh,255             ; 27D2 FD 26 FF
03468   27D5 FD 26 FF            LD   YH,255             ; 27D5 FD 26 FF
03469   27D8 FD 67               ld   yh,a               ; 27D8 FD 67
03470   27DA FD 67               LD   YH,A               ; 27DA FD 67
03471   27DC FD 60               ld   yh,b               ; 27DC FD 60
03472   27DE FD 60               LD   YH,B               ; 27DE FD 60
03473   27E0 FD 61               ld   yh,c               ; 27E0 FD 61
03474   27E2 FD 61               LD   YH,C               ; 27E2 FD 61
03475   27E4 FD 62               ld   yh,d               ; 27E4 FD 62
03476   27E6 FD 62               LD   YH,D               ; 27E6 FD 62
03477   27E8 FD 63               ld   yh,e               ; 27E8 FD 63
03478   27EA FD 63               LD   YH,E               ; 27EA FD 63
03479   27EC FD 64               ld   yh,yh              ; 27EC FD 64
03480   27EE FD 64               LD   YH,YH              ; 27EE FD 64
03481   27F0 FD 65               ld   yh,yl              ; 27F0 FD 65
03482   27F2 FD 65               LD   YH,YL              ; 27F2 FD 65
03483   27F4 FD 2E 80            ld   yl,-128            ; 27F4 FD 2E 80
03484   27F7 FD 2E 80            LD   YL,-128            ; 27F7 FD 2E 80
03485   27FA FD 2E FF            ld   yl,-1              ; 27FA FD 2E FF
03486   27FD FD 2E FF            LD   YL,-1              ; 27FD FD 2E FF
03487   2800 FD 2E 00            ld   yl,0               ; 2800 FD 2E 00
03488   2803 FD 2E 00            LD   YL,0               ; 2803 FD 2E 00
03489   2806 FD 2E 7F            ld   yl,127             ; 2806 FD 2E 7F
03490   2809 FD 2E 7F            LD   YL,127             ; 2809 FD 2E 7F
03491   280C FD 2E FF            ld   yl,255             ; 280C FD 2E FF
03492   280F FD 2E FF            LD   YL,255             ; 280F FD 2E FF
03493   2812 FD 6F               ld   yl,a               ; 2812 FD 6F
03494   2814 FD 6F               LD   YL,A               ; 2814 FD 6F
03495   2816 FD 68               ld   yl,b               ; 2816 FD 68
03496   2818 FD 68               LD   YL,B               ; 2818 FD 68
03497   281A FD 69               ld   yl,c               ; 281A FD 69
03498   281C FD 69               LD   YL,C               ; 281C FD 69
03499   281E FD 6A               ld   yl,d               ; 281E FD 6A
03500   2820 FD 6A               LD   YL,D               ; 2820 FD 6A
03501   2822 FD 6B               ld   yl,e               ; 2822 FD 6B
03502   2824 FD 6B               LD   YL,E               ; 2824 FD 6B
03503   2826 FD 6C               ld   yl,yh              ; 2826 FD 6C
03504   2828 FD 6C               LD   YL,YH              ; 2828 FD 6C
03505   282A FD 6D               ld   yl,yl              ; 282A FD 6D
03506   282C FD 6D               LD   YL,YL              ; 282C FD 6D
03507   282E ED A8               ldd                     ; 282E ED A8
03508   2830 ED A8               LDD                     ; 2830 ED A8
03509   2832 02 0B               ldd  (bc),a             ; 2832 02 0B
03510   2834 02 0B               LDD  (BC),A             ; 2834 02 0B
03511   2836 12 1B               ldd  (de),a             ; 2836 12 1B
03512   2838 12 1B               LDD  (DE),A             ; 2838 12 1B
03513   283A 36 80 2B            ldd  (hl),-128          ; 283A 36 80 2B
03514   283D 36 80 2B            LDD  (HL),-128          ; 283D 36 80 2B
03515   2840 36 FF 2B            ldd  (hl),-1            ; 2840 36 FF 2B
03516   2843 36 FF 2B            LDD  (HL),-1            ; 2843 36 FF 2B
03517   2846 36 00 2B            ldd  (hl),0             ; 2846 36 00 2B
03518   2849 36 00 2B            LDD  (HL),0             ; 2849 36 00 2B
03519   284C 36 7F 2B            ldd  (hl),127           ; 284C 36 7F 2B
03520   284F 36 7F 2B            LDD  (HL),127           ; 284F 36 7F 2B
03521   2852 36 FF 2B            ldd  (hl),255           ; 2852 36 FF 2B
03522   2855 36 FF 2B            LDD  (HL),255           ; 2855 36 FF 2B
03523   2858 77 2B               ldd  (hl),a             ; 2858 77 2B
03524   285A 77 2B               LDD  (HL),A             ; 285A 77 2B
03525   285C 70 2B               ldd  (hl),b             ; 285C 70 2B
03526   285E 70 2B               LDD  (HL),B             ; 285E 70 2B
03527   2860 71 2B               ldd  (hl),c             ; 2860 71 2B
03528   2862 71 2B               LDD  (HL),C             ; 2862 71 2B
03529   2864 72 2B               ldd  (hl),d             ; 2864 72 2B
03530   2866 72 2B               LDD  (HL),D             ; 2866 72 2B
03531   2868 73 2B               ldd  (hl),e             ; 2868 73 2B
03532   286A 73 2B               LDD  (HL),E             ; 286A 73 2B
03533   286C 74 2B               ldd  (hl),h             ; 286C 74 2B
03534   286E 74 2B               LDD  (HL),H             ; 286E 74 2B
03535   2870 75 2B               ldd  (hl),l             ; 2870 75 2B
03536   2872 75 2B               LDD  (HL),L             ; 2872 75 2B
03537   2874                     ldd  (ix+-128),-128     ; 2874 DD 36 80 80 DD 2B
03537   2874 DD368080DD2B
03538   287A                     LDD  (IX+-128),-128     ; 287A DD 36 80 80 DD 2B
03538   287A DD368080DD2B
03539   2880                     ldd  (ix+-128),-1       ; 2880 DD 36 80 FF DD 2B
03539   2880 DD3680FFDD2B
03540   2886                     LDD  (IX+-128),-1       ; 2886 DD 36 80 FF DD 2B
03540   2886 DD3680FFDD2B
03541   288C                     ldd  (ix+-128),0        ; 288C DD 36 80 00 DD 2B
03541   288C DD368000DD2B
03542   2892                     LDD  (IX+-128),0        ; 2892 DD 36 80 00 DD 2B
03542   2892 DD368000DD2B
03543   2898                     ldd  (ix+-128),127      ; 2898 DD 36 80 7F DD 2B
03543   2898 DD36807FDD2B
03544   289E                     LDD  (IX+-128),127      ; 289E DD 36 80 7F DD 2B
03544   289E DD36807FDD2B
03545   28A4                     ldd  (ix+-128),255      ; 28A4 DD 36 80 FF DD 2B
03545   28A4 DD3680FFDD2B
03546   28AA                     LDD  (IX+-128),255      ; 28AA DD 36 80 FF DD 2B
03546   28AA DD3680FFDD2B
03547   28B0                     ldd  (ix+-1),-128       ; 28B0 DD 36 FF 80 DD 2B
03547   28B0 DD36FF80DD2B
03548   28B6                     LDD  (IX+-1),-128       ; 28B6 DD 36 FF 80 DD 2B
03548   28B6 DD36FF80DD2B
03549   28BC                     ldd  (ix+-1),-1         ; 28BC DD 36 FF FF DD 2B
03549   28BC DD36FFFFDD2B
03550   28C2                     LDD  (IX+-1),-1         ; 28C2 DD 36 FF FF DD 2B
03550   28C2 DD36FFFFDD2B
03551   28C8                     ldd  (ix+-1),0          ; 28C8 DD 36 FF 00 DD 2B
03551   28C8 DD36FF00DD2B
03552   28CE                     LDD  (IX+-1),0          ; 28CE DD 36 FF 00 DD 2B
03552   28CE DD36FF00DD2B
03553   28D4                     ldd  (ix+-1),127        ; 28D4 DD 36 FF 7F DD 2B
03553   28D4 DD36FF7FDD2B
03554   28DA                     LDD  (IX+-1),127        ; 28DA DD 36 FF 7F DD 2B
03554   28DA DD36FF7FDD2B
03555   28E0                     ldd  (ix+-1),255        ; 28E0 DD 36 FF FF DD 2B
03555   28E0 DD36FFFFDD2B
03556   28E6                     LDD  (IX+-1),255        ; 28E6 DD 36 FF FF DD 2B
03556   28E6 DD36FFFFDD2B
03557   28EC                     ldd  (ix+0),-128        ; 28EC DD 36 00 80 DD 2B
03557   28EC DD360080DD2B
03558   28F2                     LDD  (IX+0),-128        ; 28F2 DD 36 00 80 DD 2B
03558   28F2 DD360080DD2B
03559   28F8                     ldd  (ix+0),-1          ; 28F8 DD 36 00 FF DD 2B
03559   28F8 DD3600FFDD2B
03560   28FE                     LDD  (IX+0),-1          ; 28FE DD 36 00 FF DD 2B
03560   28FE DD3600FFDD2B
03561   2904                     ldd  (ix+0),0           ; 2904 DD 36 00 00 DD 2B
03561   2904 DD360000DD2B
03562   290A                     LDD  (IX+0),0           ; 290A DD 36 00 00 DD 2B
03562   290A DD360000DD2B
03563   2910                     ldd  (ix+0),127         ; 2910 DD 36 00 7F DD 2B
03563   2910 DD36007FDD2B
03564   2916                     LDD  (IX+0),127         ; 2916 DD 36 00 7F DD 2B
03564   2916 DD36007FDD2B
03565   291C                     ldd  (ix+0),255         ; 291C DD 36 00 FF DD 2B
03565   291C DD3600FFDD2B
03566   2922                     LDD  (IX+0),255         ; 2922 DD 36 00 FF DD 2B
03566   2922 DD3600FFDD2B
03567   2928                     ldd  (ix+127),-128      ; 2928 DD 36 7F 80 DD 2B
03567   2928 DD367F80DD2B
03568   292E                     LDD  (IX+127),-128      ; 292E DD 36 7F 80 DD 2B
03568   292E DD367F80DD2B
03569   2934                     ldd  (ix+127),-1        ; 2934 DD 36 7F FF DD 2B
03569   2934 DD367FFFDD2B
03570   293A                     LDD  (IX+127),-1        ; 293A DD 36 7F FF DD 2B
03570   293A DD367FFFDD2B
03571   2940                     ldd  (ix+127),0         ; 2940 DD 36 7F 00 DD 2B
03571   2940 DD367F00DD2B
03572   2946                     LDD  (IX+127),0         ; 2946 DD 36 7F 00 DD 2B
03572   2946 DD367F00DD2B
03573   294C                     ldd  (ix+127),127       ; 294C DD 36 7F 7F DD 2B
03573   294C DD367F7FDD2B
03574   2952                     LDD  (IX+127),127       ; 2952 DD 36 7F 7F DD 2B
03574   2952 DD367F7FDD2B
03575   2958                     ldd  (ix+127),255       ; 2958 DD 36 7F FF DD 2B
03575   2958 DD367FFFDD2B
03576   295E                     LDD  (IX+127),255       ; 295E DD 36 7F FF DD 2B
03576   295E DD367FFFDD2B
03577   2964 DD7780DD2B          ldd  (ix+-128),a        ; 2964 DD 77 80 DD 2B
03578   2969 DD7780DD2B          LDD  (IX+-128),A        ; 2969 DD 77 80 DD 2B
03579   296E DD77FFDD2B          ldd  (ix+-1),a          ; 296E DD 77 FF DD 2B
03580   2973 DD77FFDD2B          LDD  (IX+-1),A          ; 2973 DD 77 FF DD 2B
03581   2978 DD7700DD2B          ldd  (ix+0),a           ; 2978 DD 77 00 DD 2B
03582   297D DD7700DD2B          LDD  (IX+0),A           ; 297D DD 77 00 DD 2B
03583   2982 DD777FDD2B          ldd  (ix+127),a         ; 2982 DD 77 7F DD 2B
03584   2987 DD777FDD2B          LDD  (IX+127),A         ; 2987 DD 77 7F DD 2B
03585   298C DD7080DD2B          ldd  (ix+-128),b        ; 298C DD 70 80 DD 2B
03586   2991 DD7080DD2B          LDD  (IX+-128),B        ; 2991 DD 70 80 DD 2B
03587   2996 DD70FFDD2B          ldd  (ix+-1),b          ; 2996 DD 70 FF DD 2B
03588   299B DD70FFDD2B          LDD  (IX+-1),B          ; 299B DD 70 FF DD 2B
03589   29A0 DD7000DD2B          ldd  (ix+0),b           ; 29A0 DD 70 00 DD 2B
03590   29A5 DD7000DD2B          LDD  (IX+0),B           ; 29A5 DD 70 00 DD 2B
03591   29AA DD707FDD2B          ldd  (ix+127),b         ; 29AA DD 70 7F DD 2B
03592   29AF DD707FDD2B          LDD  (IX+127),B         ; 29AF DD 70 7F DD 2B
03593   29B4 DD7180DD2B          ldd  (ix+-128),c        ; 29B4 DD 71 80 DD 2B
03594   29B9 DD7180DD2B          LDD  (IX+-128),C        ; 29B9 DD 71 80 DD 2B
03595   29BE DD71FFDD2B          ldd  (ix+-1),c          ; 29BE DD 71 FF DD 2B
03596   29C3 DD71FFDD2B          LDD  (IX+-1),C          ; 29C3 DD 71 FF DD 2B
03597   29C8 DD7100DD2B          ldd  (ix+0),c           ; 29C8 DD 71 00 DD 2B
03598   29CD DD7100DD2B          LDD  (IX+0),C           ; 29CD DD 71 00 DD 2B
03599   29D2 DD717FDD2B          ldd  (ix+127),c         ; 29D2 DD 71 7F DD 2B
03600   29D7 DD717FDD2B          LDD  (IX+127),C         ; 29D7 DD 71 7F DD 2B
03601   29DC DD7280DD2B          ldd  (ix+-128),d        ; 29DC DD 72 80 DD 2B
03602   29E1 DD7280DD2B          LDD  (IX+-128),D        ; 29E1 DD 72 80 DD 2B
03603   29E6 DD72FFDD2B          ldd  (ix+-1),d          ; 29E6 DD 72 FF DD 2B
03604   29EB DD72FFDD2B          LDD  (IX+-1),D          ; 29EB DD 72 FF DD 2B
03605   29F0 DD7200DD2B          ldd  (ix+0),d           ; 29F0 DD 72 00 DD 2B
03606   29F5 DD7200DD2B          LDD  (IX+0),D           ; 29F5 DD 72 00 DD 2B
03607   29FA DD727FDD2B          ldd  (ix+127),d         ; 29FA DD 72 7F DD 2B
03608   29FF DD727FDD2B          LDD  (IX+127),D         ; 29FF DD 72 7F DD 2B
03609   2A04 DD7380DD2B          ldd  (ix+-128),e        ; 2A04 DD 73 80 DD 2B
03610   2A09 DD7380DD2B          LDD  (IX+-128),E        ; 2A09 DD 73 80 DD 2B
03611   2A0E DD73FFDD2B          ldd  (ix+-1),e          ; 2A0E DD 73 FF DD 2B
03612   2A13 DD73FFDD2B          LDD  (IX+-1),E          ; 2A13 DD 73 FF DD 2B
03613   2A18 DD7300DD2B          ldd  (ix+0),e           ; 2A18 DD 73 00 DD 2B
03614   2A1D DD7300DD2B          LDD  (IX+0),E           ; 2A1D DD 73 00 DD 2B
03615   2A22 DD737FDD2B          ldd  (ix+127),e         ; 2A22 DD 73 7F DD 2B
03616   2A27 DD737FDD2B          LDD  (IX+127),E         ; 2A27 DD 73 7F DD 2B
03617   2A2C DD7480DD2B          ldd  (ix+-128),h        ; 2A2C DD 74 80 DD 2B
03618   2A31 DD7480DD2B          LDD  (IX+-128),H        ; 2A31 DD 74 80 DD 2B
03619   2A36 DD74FFDD2B          ldd  (ix+-1),h          ; 2A36 DD 74 FF DD 2B
03620   2A3B DD74FFDD2B          LDD  (IX+-1),H          ; 2A3B DD 74 FF DD 2B
03621   2A40 DD7400DD2B          ldd  (ix+0),h           ; 2A40 DD 74 00 DD 2B
03622   2A45 DD7400DD2B          LDD  (IX+0),H           ; 2A45 DD 74 00 DD 2B
03623   2A4A DD747FDD2B          ldd  (ix+127),h         ; 2A4A DD 74 7F DD 2B
03624   2A4F DD747FDD2B          LDD  (IX+127),H         ; 2A4F DD 74 7F DD 2B
03625   2A54 DD7580DD2B          ldd  (ix+-128),l        ; 2A54 DD 75 80 DD 2B
03626   2A59 DD7580DD2B          LDD  (IX+-128),L        ; 2A59 DD 75 80 DD 2B
03627   2A5E DD75FFDD2B          ldd  (ix+-1),l          ; 2A5E DD 75 FF DD 2B
03628   2A63 DD75FFDD2B          LDD  (IX+-1),L          ; 2A63 DD 75 FF DD 2B
03629   2A68 DD7500DD2B          ldd  (ix+0),l           ; 2A68 DD 75 00 DD 2B
03630   2A6D DD7500DD2B          LDD  (IX+0),L           ; 2A6D DD 75 00 DD 2B
03631   2A72 DD757FDD2B          ldd  (ix+127),l         ; 2A72 DD 75 7F DD 2B
03632   2A77 DD757FDD2B          LDD  (IX+127),L         ; 2A77 DD 75 7F DD 2B
03633   2A7C                     ldd  (iy+-128),-128     ; 2A7C FD 36 80 80 FD 2B
03633   2A7C FD368080FD2B
03634   2A82                     LDD  (IY+-128),-128     ; 2A82 FD 36 80 80 FD 2B
03634   2A82 FD368080FD2B
03635   2A88                     ldd  (iy+-128),-1       ; 2A88 FD 36 80 FF FD 2B
03635   2A88 FD3680FFFD2B
03636   2A8E                     LDD  (IY+-128),-1       ; 2A8E FD 36 80 FF FD 2B
03636   2A8E FD3680FFFD2B
03637   2A94                     ldd  (iy+-128),0        ; 2A94 FD 36 80 00 FD 2B
03637   2A94 FD368000FD2B
03638   2A9A                     LDD  (IY+-128),0        ; 2A9A FD 36 80 00 FD 2B
03638   2A9A FD368000FD2B
03639   2AA0                     ldd  (iy+-128),127      ; 2AA0 FD 36 80 7F FD 2B
03639   2AA0 FD36807FFD2B
03640   2AA6                     LDD  (IY+-128),127      ; 2AA6 FD 36 80 7F FD 2B
03640   2AA6 FD36807FFD2B
03641   2AAC                     ldd  (iy+-128),255      ; 2AAC FD 36 80 FF FD 2B
03641   2AAC FD3680FFFD2B
03642   2AB2                     LDD  (IY+-128),255      ; 2AB2 FD 36 80 FF FD 2B
03642   2AB2 FD3680FFFD2B
03643   2AB8                     ldd  (iy+-1),-128       ; 2AB8 FD 36 FF 80 FD 2B
03643   2AB8 FD36FF80FD2B
03644   2ABE                     LDD  (IY+-1),-128       ; 2ABE FD 36 FF 80 FD 2B
03644   2ABE FD36FF80FD2B
03645   2AC4                     ldd  (iy+-1),-1         ; 2AC4 FD 36 FF FF FD 2B
03645   2AC4 FD36FFFFFD2B
03646   2ACA                     LDD  (IY+-1),-1         ; 2ACA FD 36 FF FF FD 2B
03646   2ACA FD36FFFFFD2B
03647   2AD0                     ldd  (iy+-1),0          ; 2AD0 FD 36 FF 00 FD 2B
03647   2AD0 FD36FF00FD2B
03648   2AD6                     LDD  (IY+-1),0          ; 2AD6 FD 36 FF 00 FD 2B
03648   2AD6 FD36FF00FD2B
03649   2ADC                     ldd  (iy+-1),127        ; 2ADC FD 36 FF 7F FD 2B
03649   2ADC FD36FF7FFD2B
03650   2AE2                     LDD  (IY+-1),127        ; 2AE2 FD 36 FF 7F FD 2B
03650   2AE2 FD36FF7FFD2B
03651   2AE8                     ldd  (iy+-1),255        ; 2AE8 FD 36 FF FF FD 2B
03651   2AE8 FD36FFFFFD2B
03652   2AEE                     LDD  (IY+-1),255        ; 2AEE FD 36 FF FF FD 2B
03652   2AEE FD36FFFFFD2B
03653   2AF4                     ldd  (iy+0),-128        ; 2AF4 FD 36 00 80 FD 2B
03653   2AF4 FD360080FD2B
03654   2AFA                     LDD  (IY+0),-128        ; 2AFA FD 36 00 80 FD 2B
03654   2AFA FD360080FD2B
03655   2B00                     ldd  (iy+0),-1          ; 2B00 FD 36 00 FF FD 2B
03655   2B00 FD3600FFFD2B
03656   2B06                     LDD  (IY+0),-1          ; 2B06 FD 36 00 FF FD 2B
03656   2B06 FD3600FFFD2B
03657   2B0C                     ldd  (iy+0),0           ; 2B0C FD 36 00 00 FD 2B
03657   2B0C FD360000FD2B
03658   2B12                     LDD  (IY+0),0           ; 2B12 FD 36 00 00 FD 2B
03658   2B12 FD360000FD2B
03659   2B18                     ldd  (iy+0),127         ; 2B18 FD 36 00 7F FD 2B
03659   2B18 FD36007FFD2B
03660   2B1E                     LDD  (IY+0),127         ; 2B1E FD 36 00 7F FD 2B
03660   2B1E FD36007FFD2B
03661   2B24                     ldd  (iy+0),255         ; 2B24 FD 36 00 FF FD 2B
03661   2B24 FD3600FFFD2B
03662   2B2A                     LDD  (IY+0),255         ; 2B2A FD 36 00 FF FD 2B
03662   2B2A FD3600FFFD2B
03663   2B30                     ldd  (iy+127),-128      ; 2B30 FD 36 7F 80 FD 2B
03663   2B30 FD367F80FD2B
03664   2B36                     LDD  (IY+127),-128      ; 2B36 FD 36 7F 80 FD 2B
03664   2B36 FD367F80FD2B
03665   2B3C                     ldd  (iy+127),-1        ; 2B3C FD 36 7F FF FD 2B
03665   2B3C FD367FFFFD2B
03666   2B42                     LDD  (IY+127),-1        ; 2B42 FD 36 7F FF FD 2B
03666   2B42 FD367FFFFD2B
03667   2B48                     ldd  (iy+127),0         ; 2B48 FD 36 7F 00 FD 2B
03667   2B48 FD367F00FD2B
03668   2B4E                     LDD  (IY+127),0         ; 2B4E FD 36 7F 00 FD 2B
03668   2B4E FD367F00FD2B
03669   2B54                     ldd  (iy+127),127       ; 2B54 FD 36 7F 7F FD 2B
03669   2B54 FD367F7FFD2B
03670   2B5A                     LDD  (IY+127),127       ; 2B5A FD 36 7F 7F FD 2B
03670   2B5A FD367F7FFD2B
03671   2B60                     ldd  (iy+127),255       ; 2B60 FD 36 7F FF FD 2B
03671   2B60 FD367FFFFD2B
03672   2B66                     LDD  (IY+127),255       ; 2B66 FD 36 7F FF FD 2B
03672   2B66 FD367FFFFD2B
03673   2B6C FD7780FD2B          ldd  (iy+-128),a        ; 2B6C FD 77 80 FD 2B
03674   2B71 FD7780FD2B          LDD  (IY+-128),A        ; 2B71 FD 77 80 FD 2B
03675   2B76 FD77FFFD2B          ldd  (iy+-1),a          ; 2B76 FD 77 FF FD 2B
03676   2B7B FD77FFFD2B          LDD  (IY+-1),A          ; 2B7B FD 77 FF FD 2B
03677   2B80 FD7700FD2B          ldd  (iy+0),a           ; 2B80 FD 77 00 FD 2B
03678   2B85 FD7700FD2B          LDD  (IY+0),A           ; 2B85 FD 77 00 FD 2B
03679   2B8A FD777FFD2B          ldd  (iy+127),a         ; 2B8A FD 77 7F FD 2B
03680   2B8F FD777FFD2B          LDD  (IY+127),A         ; 2B8F FD 77 7F FD 2B
03681   2B94 FD7080FD2B          ldd  (iy+-128),b        ; 2B94 FD 70 80 FD 2B
03682   2B99 FD7080FD2B          LDD  (IY+-128),B        ; 2B99 FD 70 80 FD 2B
03683   2B9E FD70FFFD2B          ldd  (iy+-1),b          ; 2B9E FD 70 FF FD 2B
03684   2BA3 FD70FFFD2B          LDD  (IY+-1),B          ; 2BA3 FD 70 FF FD 2B
03685   2BA8 FD7000FD2B          ldd  (iy+0),b           ; 2BA8 FD 70 00 FD 2B
03686   2BAD FD7000FD2B          LDD  (IY+0),B           ; 2BAD FD 70 00 FD 2B
03687   2BB2 FD707FFD2B          ldd  (iy+127),b         ; 2BB2 FD 70 7F FD 2B
03688   2BB7 FD707FFD2B          LDD  (IY+127),B         ; 2BB7 FD 70 7F FD 2B
03689   2BBC FD7180FD2B          ldd  (iy+-128),c        ; 2BBC FD 71 80 FD 2B
03690   2BC1 FD7180FD2B          LDD  (IY+-128),C        ; 2BC1 FD 71 80 FD 2B
03691   2BC6 FD71FFFD2B          ldd  (iy+-1),c          ; 2BC6 FD 71 FF FD 2B
03692   2BCB FD71FFFD2B          LDD  (IY+-1),C          ; 2BCB FD 71 FF FD 2B
03693   2BD0 FD7100FD2B          ldd  (iy+0),c           ; 2BD0 FD 71 00 FD 2B
03694   2BD5 FD7100FD2B          LDD  (IY+0),C           ; 2BD5 FD 71 00 FD 2B
03695   2BDA FD717FFD2B          ldd  (iy+127),c         ; 2BDA FD 71 7F FD 2B
03696   2BDF FD717FFD2B          LDD  (IY+127),C         ; 2BDF FD 71 7F FD 2B
03697   2BE4 FD7280FD2B          ldd  (iy+-128),d        ; 2BE4 FD 72 80 FD 2B
03698   2BE9 FD7280FD2B          LDD  (IY+-128),D        ; 2BE9 FD 72 80 FD 2B
03699   2BEE FD72FFFD2B          ldd  (iy+-1),d          ; 2BEE FD 72 FF FD 2B
03700   2BF3 FD72FFFD2B          LDD  (IY+-1),D          ; 2BF3 FD 72 FF FD 2B
03701   2BF8 FD7200FD2B          ldd  (iy+0),d           ; 2BF8 FD 72 00 FD 2B
03702   2BFD FD7200FD2B          LDD  (IY+0),D           ; 2BFD FD 72 00 FD 2B
03703   2C02 FD727FFD2B          ldd  (iy+127),d         ; 2C02 FD 72 7F FD 2B
03704   2C07 FD727FFD2B          LDD  (IY+127),D         ; 2C07 FD 72 7F FD 2B
03705   2C0C FD7380FD2B          ldd  (iy+-128),e        ; 2C0C FD 73 80 FD 2B
03706   2C11 FD7380FD2B          LDD  (IY+-128),E        ; 2C11 FD 73 80 FD 2B
03707   2C16 FD73FFFD2B          ldd  (iy+-1),e          ; 2C16 FD 73 FF FD 2B
03708   2C1B FD73FFFD2B          LDD  (IY+-1),E          ; 2C1B FD 73 FF FD 2B
03709   2C20 FD7300FD2B          ldd  (iy+0),e           ; 2C20 FD 73 00 FD 2B
03710   2C25 FD7300FD2B          LDD  (IY+0),E           ; 2C25 FD 73 00 FD 2B
03711   2C2A FD737FFD2B          ldd  (iy+127),e         ; 2C2A FD 73 7F FD 2B
03712   2C2F FD737FFD2B          LDD  (IY+127),E         ; 2C2F FD 73 7F FD 2B
03713   2C34 FD7480FD2B          ldd  (iy+-128),h        ; 2C34 FD 74 80 FD 2B
03714   2C39 FD7480FD2B          LDD  (IY+-128),H        ; 2C39 FD 74 80 FD 2B
03715   2C3E FD74FFFD2B          ldd  (iy+-1),h          ; 2C3E FD 74 FF FD 2B
03716   2C43 FD74FFFD2B          LDD  (IY+-1),H          ; 2C43 FD 74 FF FD 2B
03717   2C48 FD7400FD2B          ldd  (iy+0),h           ; 2C48 FD 74 00 FD 2B
03718   2C4D FD7400FD2B          LDD  (IY+0),H           ; 2C4D FD 74 00 FD 2B
03719   2C52 FD747FFD2B          ldd  (iy+127),h         ; 2C52 FD 74 7F FD 2B
03720   2C57 FD747FFD2B          LDD  (IY+127),H         ; 2C57 FD 74 7F FD 2B
03721   2C5C FD7580FD2B          ldd  (iy+-128),l        ; 2C5C FD 75 80 FD 2B
03722   2C61 FD7580FD2B          LDD  (IY+-128),L        ; 2C61 FD 75 80 FD 2B
03723   2C66 FD75FFFD2B          ldd  (iy+-1),l          ; 2C66 FD 75 FF FD 2B
03724   2C6B FD75FFFD2B          LDD  (IY+-1),L          ; 2C6B FD 75 FF FD 2B
03725   2C70 FD7500FD2B          ldd  (iy+0),l           ; 2C70 FD 75 00 FD 2B
03726   2C75 FD7500FD2B          LDD  (IY+0),L           ; 2C75 FD 75 00 FD 2B
03727   2C7A FD757FFD2B          ldd  (iy+127),l         ; 2C7A FD 75 7F FD 2B
03728   2C7F FD757FFD2B          LDD  (IY+127),L         ; 2C7F FD 75 7F FD 2B
03729   2C84 02 0B               ldd  [bc],a             ; 2C84 02 0B
03730   2C86 02 0B               LDD  [BC],A             ; 2C86 02 0B
03731   2C88 12 1B               ldd  [de],a             ; 2C88 12 1B
03732   2C8A 12 1B               LDD  [DE],A             ; 2C8A 12 1B
03733   2C8C 36 80 2B            ldd  [hl],-128          ; 2C8C 36 80 2B
03734   2C8F 36 80 2B            LDD  [HL],-128          ; 2C8F 36 80 2B
03735   2C92 36 FF 2B            ldd  [hl],-1            ; 2C92 36 FF 2B
03736   2C95 36 FF 2B            LDD  [HL],-1            ; 2C95 36 FF 2B
03737   2C98 36 00 2B            ldd  [hl],0             ; 2C98 36 00 2B
03738   2C9B 36 00 2B            LDD  [HL],0             ; 2C9B 36 00 2B
03739   2C9E 36 7F 2B            ldd  [hl],127           ; 2C9E 36 7F 2B
03740   2CA1 36 7F 2B            LDD  [HL],127           ; 2CA1 36 7F 2B
03741   2CA4 36 FF 2B            ldd  [hl],255           ; 2CA4 36 FF 2B
03742   2CA7 36 FF 2B            LDD  [HL],255           ; 2CA7 36 FF 2B
03743   2CAA 77 2B               ldd  [hl],a             ; 2CAA 77 2B
03744   2CAC 77 2B               LDD  [HL],A             ; 2CAC 77 2B
03745   2CAE 70 2B               ldd  [hl],b             ; 2CAE 70 2B
03746   2CB0 70 2B               LDD  [HL],B             ; 2CB0 70 2B
03747   2CB2 71 2B               ldd  [hl],c             ; 2CB2 71 2B
03748   2CB4 71 2B               LDD  [HL],C             ; 2CB4 71 2B
03749   2CB6 72 2B               ldd  [hl],d             ; 2CB6 72 2B
03750   2CB8 72 2B               LDD  [HL],D             ; 2CB8 72 2B
03751   2CBA 73 2B               ldd  [hl],e             ; 2CBA 73 2B
03752   2CBC 73 2B               LDD  [HL],E             ; 2CBC 73 2B
03753   2CBE 74 2B               ldd  [hl],h             ; 2CBE 74 2B
03754   2CC0 74 2B               LDD  [HL],H             ; 2CC0 74 2B
03755   2CC2 75 2B               ldd  [hl],l             ; 2CC2 75 2B
03756   2CC4 75 2B               LDD  [HL],L             ; 2CC4 75 2B
03757   2CC6                     ldd  [ix+-128],-128     ; 2CC6 DD 36 80 80 DD 2B
03757   2CC6 DD368080DD2B
03758   2CCC                     LDD  [IX+-128],-128     ; 2CCC DD 36 80 80 DD 2B
03758   2CCC DD368080DD2B
03759   2CD2                     ldd  [ix+-128],-1       ; 2CD2 DD 36 80 FF DD 2B
03759   2CD2 DD3680FFDD2B
03760   2CD8                     LDD  [IX+-128],-1       ; 2CD8 DD 36 80 FF DD 2B
03760   2CD8 DD3680FFDD2B
03761   2CDE                     ldd  [ix+-128],0        ; 2CDE DD 36 80 00 DD 2B
03761   2CDE DD368000DD2B
03762   2CE4                     LDD  [IX+-128],0        ; 2CE4 DD 36 80 00 DD 2B
03762   2CE4 DD368000DD2B
03763   2CEA                     ldd  [ix+-128],127      ; 2CEA DD 36 80 7F DD 2B
03763   2CEA DD36807FDD2B
03764   2CF0                     LDD  [IX+-128],127      ; 2CF0 DD 36 80 7F DD 2B
03764   2CF0 DD36807FDD2B
03765   2CF6                     ldd  [ix+-128],255      ; 2CF6 DD 36 80 FF DD 2B
03765   2CF6 DD3680FFDD2B
03766   2CFC                     LDD  [IX+-128],255      ; 2CFC DD 36 80 FF DD 2B
03766   2CFC DD3680FFDD2B
03767   2D02                     ldd  [ix+-1],-128       ; 2D02 DD 36 FF 80 DD 2B
03767   2D02 DD36FF80DD2B
03768   2D08                     LDD  [IX+-1],-128       ; 2D08 DD 36 FF 80 DD 2B
03768   2D08 DD36FF80DD2B
03769   2D0E                     ldd  [ix+-1],-1         ; 2D0E DD 36 FF FF DD 2B
03769   2D0E DD36FFFFDD2B
03770   2D14                     LDD  [IX+-1],-1         ; 2D14 DD 36 FF FF DD 2B
03770   2D14 DD36FFFFDD2B
03771   2D1A                     ldd  [ix+-1],0          ; 2D1A DD 36 FF 00 DD 2B
03771   2D1A DD36FF00DD2B
03772   2D20                     LDD  [IX+-1],0          ; 2D20 DD 36 FF 00 DD 2B
03772   2D20 DD36FF00DD2B
03773   2D26                     ldd  [ix+-1],127        ; 2D26 DD 36 FF 7F DD 2B
03773   2D26 DD36FF7FDD2B
03774   2D2C                     LDD  [IX+-1],127        ; 2D2C DD 36 FF 7F DD 2B
03774   2D2C DD36FF7FDD2B
03775   2D32                     ldd  [ix+-1],255        ; 2D32 DD 36 FF FF DD 2B
03775   2D32 DD36FFFFDD2B
03776   2D38                     LDD  [IX+-1],255        ; 2D38 DD 36 FF FF DD 2B
03776   2D38 DD36FFFFDD2B
03777   2D3E                     ldd  [ix+0],-128        ; 2D3E DD 36 00 80 DD 2B
03777   2D3E DD360080DD2B
03778   2D44                     LDD  [IX+0],-128        ; 2D44 DD 36 00 80 DD 2B
03778   2D44 DD360080DD2B
03779   2D4A                     ldd  [ix+0],-1          ; 2D4A DD 36 00 FF DD 2B
03779   2D4A DD3600FFDD2B
03780   2D50                     LDD  [IX+0],-1          ; 2D50 DD 36 00 FF DD 2B
03780   2D50 DD3600FFDD2B
03781   2D56                     ldd  [ix+0],0           ; 2D56 DD 36 00 00 DD 2B
03781   2D56 DD360000DD2B
03782   2D5C                     LDD  [IX+0],0           ; 2D5C DD 36 00 00 DD 2B
03782   2D5C DD360000DD2B
03783   2D62                     ldd  [ix+0],127         ; 2D62 DD 36 00 7F DD 2B
03783   2D62 DD36007FDD2B
03784   2D68                     LDD  [IX+0],127         ; 2D68 DD 36 00 7F DD 2B
03784   2D68 DD36007FDD2B
03785   2D6E                     ldd  [ix+0],255         ; 2D6E DD 36 00 FF DD 2B
03785   2D6E DD3600FFDD2B
03786   2D74                     LDD  [IX+0],255         ; 2D74 DD 36 00 FF DD 2B
03786   2D74 DD3600FFDD2B
03787   2D7A                     ldd  [ix+127],-128      ; 2D7A DD 36 7F 80 DD 2B
03787   2D7A DD367F80DD2B
03788   2D80                     LDD  [IX+127],-128      ; 2D80 DD 36 7F 80 DD 2B
03788   2D80 DD367F80DD2B
03789   2D86                     ldd  [ix+127],-1        ; 2D86 DD 36 7F FF DD 2B
03789   2D86 DD367FFFDD2B
03790   2D8C                     LDD  [IX+127],-1        ; 2D8C DD 36 7F FF DD 2B
03790   2D8C DD367FFFDD2B
03791   2D92                     ldd  [ix+127],0         ; 2D92 DD 36 7F 00 DD 2B
03791   2D92 DD367F00DD2B
03792   2D98                     LDD  [IX+127],0         ; 2D98 DD 36 7F 00 DD 2B
03792   2D98 DD367F00DD2B
03793   2D9E                     ldd  [ix+127],127       ; 2D9E DD 36 7F 7F DD 2B
03793   2D9E DD367F7FDD2B
03794   2DA4                     LDD  [IX+127],127       ; 2DA4 DD 36 7F 7F DD 2B
03794   2DA4 DD367F7FDD2B
03795   2DAA                     ldd  [ix+127],255       ; 2DAA DD 36 7F FF DD 2B
03795   2DAA DD367FFFDD2B
03796   2DB0                     LDD  [IX+127],255       ; 2DB0 DD 36 7F FF DD 2B
03796   2DB0 DD367FFFDD2B
03797   2DB6 DD7780DD2B          ldd  [ix+-128],a        ; 2DB6 DD 77 80 DD 2B
03798   2DBB DD7780DD2B          LDD  [IX+-128],A        ; 2DBB DD 77 80 DD 2B
03799   2DC0 DD77FFDD2B          ldd  [ix+-1],a          ; 2DC0 DD 77 FF DD 2B
03800   2DC5 DD77FFDD2B          LDD  [IX+-1],A          ; 2DC5 DD 77 FF DD 2B
03801   2DCA DD7700DD2B          ldd  [ix+0],a           ; 2DCA DD 77 00 DD 2B
03802   2DCF DD7700DD2B          LDD  [IX+0],A           ; 2DCF DD 77 00 DD 2B
03803   2DD4 DD777FDD2B          ldd  [ix+127],a         ; 2DD4 DD 77 7F DD 2B
03804   2DD9 DD777FDD2B          LDD  [IX+127],A         ; 2DD9 DD 77 7F DD 2B
03805   2DDE DD7080DD2B          ldd  [ix+-128],b        ; 2DDE DD 70 80 DD 2B
03806   2DE3 DD7080DD2B          LDD  [IX+-128],B        ; 2DE3 DD 70 80 DD 2B
03807   2DE8 DD70FFDD2B          ldd  [ix+-1],b          ; 2DE8 DD 70 FF DD 2B
03808   2DED DD70FFDD2B          LDD  [IX+-1],B          ; 2DED DD 70 FF DD 2B
03809   2DF2 DD7000DD2B          ldd  [ix+0],b           ; 2DF2 DD 70 00 DD 2B
03810   2DF7 DD7000DD2B          LDD  [IX+0],B           ; 2DF7 DD 70 00 DD 2B
03811   2DFC DD707FDD2B          ldd  [ix+127],b         ; 2DFC DD 70 7F DD 2B
03812   2E01 DD707FDD2B          LDD  [IX+127],B         ; 2E01 DD 70 7F DD 2B
03813   2E06 DD7180DD2B          ldd  [ix+-128],c        ; 2E06 DD 71 80 DD 2B
03814   2E0B DD7180DD2B          LDD  [IX+-128],C        ; 2E0B DD 71 80 DD 2B
03815   2E10 DD71FFDD2B          ldd  [ix+-1],c          ; 2E10 DD 71 FF DD 2B
03816   2E15 DD71FFDD2B          LDD  [IX+-1],C          ; 2E15 DD 71 FF DD 2B
03817   2E1A DD7100DD2B          ldd  [ix+0],c           ; 2E1A DD 71 00 DD 2B
03818   2E1F DD7100DD2B          LDD  [IX+0],C           ; 2E1F DD 71 00 DD 2B
03819   2E24 DD717FDD2B          ldd  [ix+127],c         ; 2E24 DD 71 7F DD 2B
03820   2E29 DD717FDD2B          LDD  [IX+127],C         ; 2E29 DD 71 7F DD 2B
03821   2E2E DD7280DD2B          ldd  [ix+-128],d        ; 2E2E DD 72 80 DD 2B
03822   2E33 DD7280DD2B          LDD  [IX+-128],D        ; 2E33 DD 72 80 DD 2B
03823   2E38 DD72FFDD2B          ldd  [ix+-1],d          ; 2E38 DD 72 FF DD 2B
03824   2E3D DD72FFDD2B          LDD  [IX+-1],D          ; 2E3D DD 72 FF DD 2B
03825   2E42 DD7200DD2B          ldd  [ix+0],d           ; 2E42 DD 72 00 DD 2B
03826   2E47 DD7200DD2B          LDD  [IX+0],D           ; 2E47 DD 72 00 DD 2B
03827   2E4C DD727FDD2B          ldd  [ix+127],d         ; 2E4C DD 72 7F DD 2B
03828   2E51 DD727FDD2B          LDD  [IX+127],D         ; 2E51 DD 72 7F DD 2B
03829   2E56 DD7380DD2B          ldd  [ix+-128],e        ; 2E56 DD 73 80 DD 2B
03830   2E5B DD7380DD2B          LDD  [IX+-128],E        ; 2E5B DD 73 80 DD 2B
03831   2E60 DD73FFDD2B          ldd  [ix+-1],e          ; 2E60 DD 73 FF DD 2B
03832   2E65 DD73FFDD2B          LDD  [IX+-1],E          ; 2E65 DD 73 FF DD 2B
03833   2E6A DD7300DD2B          ldd  [ix+0],e           ; 2E6A DD 73 00 DD 2B
03834   2E6F DD7300DD2B          LDD  [IX+0],E           ; 2E6F DD 73 00 DD 2B
03835   2E74 DD737FDD2B          ldd  [ix+127],e         ; 2E74 DD 73 7F DD 2B
03836   2E79 DD737FDD2B          LDD  [IX+127],E         ; 2E79 DD 73 7F DD 2B
03837   2E7E DD7480DD2B          ldd  [ix+-128],h        ; 2E7E DD 74 80 DD 2B
03838   2E83 DD7480DD2B          LDD  [IX+-128],H        ; 2E83 DD 74 80 DD 2B
03839   2E88 DD74FFDD2B          ldd  [ix+-1],h          ; 2E88 DD 74 FF DD 2B
03840   2E8D DD74FFDD2B          LDD  [IX+-1],H          ; 2E8D DD 74 FF DD 2B
03841   2E92 DD7400DD2B          ldd  [ix+0],h           ; 2E92 DD 74 00 DD 2B
03842   2E97 DD7400DD2B          LDD  [IX+0],H           ; 2E97 DD 74 00 DD 2B
03843   2E9C DD747FDD2B          ldd  [ix+127],h         ; 2E9C DD 74 7F DD 2B
03844   2EA1 DD747FDD2B          LDD  [IX+127],H         ; 2EA1 DD 74 7F DD 2B
03845   2EA6 DD7580DD2B          ldd  [ix+-128],l        ; 2EA6 DD 75 80 DD 2B
03846   2EAB DD7580DD2B          LDD  [IX+-128],L        ; 2EAB DD 75 80 DD 2B
03847   2EB0 DD75FFDD2B          ldd  [ix+-1],l          ; 2EB0 DD 75 FF DD 2B
03848   2EB5 DD75FFDD2B          LDD  [IX+-1],L          ; 2EB5 DD 75 FF DD 2B
03849   2EBA DD7500DD2B          ldd  [ix+0],l           ; 2EBA DD 75 00 DD 2B
03850   2EBF DD7500DD2B          LDD  [IX+0],L           ; 2EBF DD 75 00 DD 2B
03851   2EC4 DD757FDD2B          ldd  [ix+127],l         ; 2EC4 DD 75 7F DD 2B
03852   2EC9 DD757FDD2B          LDD  [IX+127],L         ; 2EC9 DD 75 7F DD 2B
03853   2ECE                     ldd  [iy+-128],-128     ; 2ECE FD 36 80 80 FD 2B
03853   2ECE FD368080FD2B
03854   2ED4                     LDD  [IY+-128],-128     ; 2ED4 FD 36 80 80 FD 2B
03854   2ED4 FD368080FD2B
03855   2EDA                     ldd  [iy+-128],-1       ; 2EDA FD 36 80 FF FD 2B
03855   2EDA FD3680FFFD2B
03856   2EE0                     LDD  [IY+-128],-1       ; 2EE0 FD 36 80 FF FD 2B
03856   2EE0 FD3680FFFD2B
03857   2EE6                     ldd  [iy+-128],0        ; 2EE6 FD 36 80 00 FD 2B
03857   2EE6 FD368000FD2B
03858   2EEC                     LDD  [IY+-128],0        ; 2EEC FD 36 80 00 FD 2B
03858   2EEC FD368000FD2B
03859   2EF2                     ldd  [iy+-128],127      ; 2EF2 FD 36 80 7F FD 2B
03859   2EF2 FD36807FFD2B
03860   2EF8                     LDD  [IY+-128],127      ; 2EF8 FD 36 80 7F FD 2B
03860   2EF8 FD36807FFD2B
03861   2EFE                     ldd  [iy+-128],255      ; 2EFE FD 36 80 FF FD 2B
03861   2EFE FD3680FFFD2B
03862   2F04                     LDD  [IY+-128],255      ; 2F04 FD 36 80 FF FD 2B
03862   2F04 FD3680FFFD2B
03863   2F0A                     ldd  [iy+-1],-128       ; 2F0A FD 36 FF 80 FD 2B
03863   2F0A FD36FF80FD2B
03864   2F10                     LDD  [IY+-1],-128       ; 2F10 FD 36 FF 80 FD 2B
03864   2F10 FD36FF80FD2B
03865   2F16                     ldd  [iy+-1],-1         ; 2F16 FD 36 FF FF FD 2B
03865   2F16 FD36FFFFFD2B
03866   2F1C                     LDD  [IY+-1],-1         ; 2F1C FD 36 FF FF FD 2B
03866   2F1C FD36FFFFFD2B
03867   2F22                     ldd  [iy+-1],0          ; 2F22 FD 36 FF 00 FD 2B
03867   2F22 FD36FF00FD2B
03868   2F28                     LDD  [IY+-1],0          ; 2F28 FD 36 FF 00 FD 2B
03868   2F28 FD36FF00FD2B
03869   2F2E                     ldd  [iy+-1],127        ; 2F2E FD 36 FF 7F FD 2B
03869   2F2E FD36FF7FFD2B
03870   2F34                     LDD  [IY+-1],127        ; 2F34 FD 36 FF 7F FD 2B
03870   2F34 FD36FF7FFD2B
03871   2F3A                     ldd  [iy+-1],255        ; 2F3A FD 36 FF FF FD 2B
03871   2F3A FD36FFFFFD2B
03872   2F40                     LDD  [IY+-1],255        ; 2F40 FD 36 FF FF FD 2B
03872   2F40 FD36FFFFFD2B
03873   2F46                     ldd  [iy+0],-128        ; 2F46 FD 36 00 80 FD 2B
03873   2F46 FD360080FD2B
03874   2F4C                     LDD  [IY+0],-128        ; 2F4C FD 36 00 80 FD 2B
03874   2F4C FD360080FD2B
03875   2F52                     ldd  [iy+0],-1          ; 2F52 FD 36 00 FF FD 2B
03875   2F52 FD3600FFFD2B
03876   2F58                     LDD  [IY+0],-1          ; 2F58 FD 36 00 FF FD 2B
03876   2F58 FD3600FFFD2B
03877   2F5E                     ldd  [iy+0],0           ; 2F5E FD 36 00 00 FD 2B
03877   2F5E FD360000FD2B
03878   2F64                     LDD  [IY+0],0           ; 2F64 FD 36 00 00 FD 2B
03878   2F64 FD360000FD2B
03879   2F6A                     ldd  [iy+0],127         ; 2F6A FD 36 00 7F FD 2B
03879   2F6A FD36007FFD2B
03880   2F70                     LDD  [IY+0],127         ; 2F70 FD 36 00 7F FD 2B
03880   2F70 FD36007FFD2B
03881   2F76                     ldd  [iy+0],255         ; 2F76 FD 36 00 FF FD 2B
03881   2F76 FD3600FFFD2B
03882   2F7C                     LDD  [IY+0],255         ; 2F7C FD 36 00 FF FD 2B
03882   2F7C FD3600FFFD2B
03883   2F82                     ldd  [iy+127],-128      ; 2F82 FD 36 7F 80 FD 2B
03883   2F82 FD367F80FD2B
03884   2F88                     LDD  [IY+127],-128      ; 2F88 FD 36 7F 80 FD 2B
03884   2F88 FD367F80FD2B
03885   2F8E                     ldd  [iy+127],-1        ; 2F8E FD 36 7F FF FD 2B
03885   2F8E FD367FFFFD2B
03886   2F94                     LDD  [IY+127],-1        ; 2F94 FD 36 7F FF FD 2B
03886   2F94 FD367FFFFD2B
03887   2F9A                     ldd  [iy+127],0         ; 2F9A FD 36 7F 00 FD 2B
03887   2F9A FD367F00FD2B
03888   2FA0                     LDD  [IY+127],0         ; 2FA0 FD 36 7F 00 FD 2B
03888   2FA0 FD367F00FD2B
03889   2FA6                     ldd  [iy+127],127       ; 2FA6 FD 36 7F 7F FD 2B
03889   2FA6 FD367F7FFD2B
03890   2FAC                     LDD  [IY+127],127       ; 2FAC FD 36 7F 7F FD 2B
03890   2FAC FD367F7FFD2B
03891   2FB2                     ldd  [iy+127],255       ; 2FB2 FD 36 7F FF FD 2B
03891   2FB2 FD367FFFFD2B
03892   2FB8                     LDD  [IY+127],255       ; 2FB8 FD 36 7F FF FD 2B
03892   2FB8 FD367FFFFD2B
03893   2FBE FD7780FD2B          ldd  [iy+-128],a        ; 2FBE FD 77 80 FD 2B
03894   2FC3 FD7780FD2B          LDD  [IY+-128],A        ; 2FC3 FD 77 80 FD 2B
03895   2FC8 FD77FFFD2B          ldd  [iy+-1],a          ; 2FC8 FD 77 FF FD 2B
03896   2FCD FD77FFFD2B          LDD  [IY+-1],A          ; 2FCD FD 77 FF FD 2B
03897   2FD2 FD7700FD2B          ldd  [iy+0],a           ; 2FD2 FD 77 00 FD 2B
03898   2FD7 FD7700FD2B          LDD  [IY+0],A           ; 2FD7 FD 77 00 FD 2B
03899   2FDC FD777FFD2B          ldd  [iy+127],a         ; 2FDC FD 77 7F FD 2B
03900   2FE1 FD777FFD2B          LDD  [IY+127],A         ; 2FE1 FD 77 7F FD 2B
03901   2FE6 FD7080FD2B          ldd  [iy+-128],b        ; 2FE6 FD 70 80 FD 2B
03902   2FEB FD7080FD2B          LDD  [IY+-128],B        ; 2FEB FD 70 80 FD 2B
03903   2FF0 FD70FFFD2B          ldd  [iy+-1],b          ; 2FF0 FD 70 FF FD 2B
03904   2FF5 FD70FFFD2B          LDD  [IY+-1],B          ; 2FF5 FD 70 FF FD 2B
03905   2FFA FD7000FD2B          ldd  [iy+0],b           ; 2FFA FD 70 00 FD 2B
03906   2FFF FD7000FD2B          LDD  [IY+0],B           ; 2FFF FD 70 00 FD 2B
03907   3004 FD707FFD2B          ldd  [iy+127],b         ; 3004 FD 70 7F FD 2B
03908   3009 FD707FFD2B          LDD  [IY+127],B         ; 3009 FD 70 7F FD 2B
03909   300E FD7180FD2B          ldd  [iy+-128],c        ; 300E FD 71 80 FD 2B
03910   3013 FD7180FD2B          LDD  [IY+-128],C        ; 3013 FD 71 80 FD 2B
03911   3018 FD71FFFD2B          ldd  [iy+-1],c          ; 3018 FD 71 FF FD 2B
03912   301D FD71FFFD2B          LDD  [IY+-1],C          ; 301D FD 71 FF FD 2B
03913   3022 FD7100FD2B          ldd  [iy+0],c           ; 3022 FD 71 00 FD 2B
03914   3027 FD7100FD2B          LDD  [IY+0],C           ; 3027 FD 71 00 FD 2B
03915   302C FD717FFD2B          ldd  [iy+127],c         ; 302C FD 71 7F FD 2B
03916   3031 FD717FFD2B          LDD  [IY+127],C         ; 3031 FD 71 7F FD 2B
03917   3036 FD7280FD2B          ldd  [iy+-128],d        ; 3036 FD 72 80 FD 2B
03918   303B FD7280FD2B          LDD  [IY+-128],D        ; 303B FD 72 80 FD 2B
03919   3040 FD72FFFD2B          ldd  [iy+-1],d          ; 3040 FD 72 FF FD 2B
03920   3045 FD72FFFD2B          LDD  [IY+-1],D          ; 3045 FD 72 FF FD 2B
03921   304A FD7200FD2B          ldd  [iy+0],d           ; 304A FD 72 00 FD 2B
03922   304F FD7200FD2B          LDD  [IY+0],D           ; 304F FD 72 00 FD 2B
03923   3054 FD727FFD2B          ldd  [iy+127],d         ; 3054 FD 72 7F FD 2B
03924   3059 FD727FFD2B          LDD  [IY+127],D         ; 3059 FD 72 7F FD 2B
03925   305E FD7380FD2B          ldd  [iy+-128],e        ; 305E FD 73 80 FD 2B
03926   3063 FD7380FD2B          LDD  [IY+-128],E        ; 3063 FD 73 80 FD 2B
03927   3068 FD73FFFD2B          ldd  [iy+-1],e          ; 3068 FD 73 FF FD 2B
03928   306D FD73FFFD2B          LDD  [IY+-1],E          ; 306D FD 73 FF FD 2B
03929   3072 FD7300FD2B          ldd  [iy+0],e           ; 3072 FD 73 00 FD 2B
03930   3077 FD7300FD2B          LDD  [IY+0],E           ; 3077 FD 73 00 FD 2B
03931   307C FD737FFD2B          ldd  [iy+127],e         ; 307C FD 73 7F FD 2B
03932   3081 FD737FFD2B          LDD  [IY+127],E         ; 3081 FD 73 7F FD 2B
03933   3086 FD7480FD2B          ldd  [iy+-128],h        ; 3086 FD 74 80 FD 2B
03934   308B FD7480FD2B          LDD  [IY+-128],H        ; 308B FD 74 80 FD 2B
03935   3090 FD74FFFD2B          ldd  [iy+-1],h          ; 3090 FD 74 FF FD 2B
03936   3095 FD74FFFD2B          LDD  [IY+-1],H          ; 3095 FD 74 FF FD 2B
03937   309A FD7400FD2B          ldd  [iy+0],h           ; 309A FD 74 00 FD 2B
03938   309F FD7400FD2B          LDD  [IY+0],H           ; 309F FD 74 00 FD 2B
03939   30A4 FD747FFD2B          ldd  [iy+127],h         ; 30A4 FD 74 7F FD 2B
03940   30A9 FD747FFD2B          LDD  [IY+127],H         ; 30A9 FD 74 7F FD 2B
03941   30AE FD7580FD2B          ldd  [iy+-128],l        ; 30AE FD 75 80 FD 2B
03942   30B3 FD7580FD2B          LDD  [IY+-128],L        ; 30B3 FD 75 80 FD 2B
03943   30B8 FD75FFFD2B          ldd  [iy+-1],l          ; 30B8 FD 75 FF FD 2B
03944   30BD FD75FFFD2B          LDD  [IY+-1],L          ; 30BD FD 75 FF FD 2B
03945   30C2 FD7500FD2B          ldd  [iy+0],l           ; 30C2 FD 75 00 FD 2B
03946   30C7 FD7500FD2B          LDD  [IY+0],L           ; 30C7 FD 75 00 FD 2B
03947   30CC FD757FFD2B          ldd  [iy+127],l         ; 30CC FD 75 7F FD 2B
03948   30D1 FD757FFD2B          LDD  [IY+127],L         ; 30D1 FD 75 7F FD 2B
03949   30D6 0A 0B               ldd  a,(bc)             ; 30D6 0A 0B
03950   30D8 0A 0B               LDD  A,(BC)             ; 30D8 0A 0B
03951   30DA 1A 1B               ldd  a,(de)             ; 30DA 1A 1B
03952   30DC 1A 1B               LDD  A,(DE)             ; 30DC 1A 1B
03953   30DE 7E 2B               ldd  a,(hl)             ; 30DE 7E 2B
03954   30E0 7E 2B               LDD  A,(HL)             ; 30E0 7E 2B
03955   30E2 DD7E80DD2B          ldd  a,(ix+-128)        ; 30E2 DD 7E 80 DD 2B
03956   30E7 DD7E80DD2B          LDD  A,(IX+-128)        ; 30E7 DD 7E 80 DD 2B
03957   30EC DD7EFFDD2B          ldd  a,(ix+-1)          ; 30EC DD 7E FF DD 2B
03958   30F1 DD7EFFDD2B          LDD  A,(IX+-1)          ; 30F1 DD 7E FF DD 2B
03959   30F6 DD7E00DD2B          ldd  a,(ix+0)           ; 30F6 DD 7E 00 DD 2B
03960   30FB DD7E00DD2B          LDD  A,(IX+0)           ; 30FB DD 7E 00 DD 2B
03961   3100 DD7E7FDD2B          ldd  a,(ix+127)         ; 3100 DD 7E 7F DD 2B
03962   3105 DD7E7FDD2B          LDD  A,(IX+127)         ; 3105 DD 7E 7F DD 2B
03963   310A FD7E80FD2B          ldd  a,(iy+-128)        ; 310A FD 7E 80 FD 2B
03964   310F FD7E80FD2B          LDD  A,(IY+-128)        ; 310F FD 7E 80 FD 2B
03965   3114 FD7EFFFD2B          ldd  a,(iy+-1)          ; 3114 FD 7E FF FD 2B
03966   3119 FD7EFFFD2B          LDD  A,(IY+-1)          ; 3119 FD 7E FF FD 2B
03967   311E FD7E00FD2B          ldd  a,(iy+0)           ; 311E FD 7E 00 FD 2B
03968   3123 FD7E00FD2B          LDD  A,(IY+0)           ; 3123 FD 7E 00 FD 2B
03969   3128 FD7E7FFD2B          ldd  a,(iy+127)         ; 3128 FD 7E 7F FD 2B
03970   312D FD7E7FFD2B          LDD  A,(IY+127)         ; 312D FD 7E 7F FD 2B
03971   3132 0A 0B               ldd  a,[bc]             ; 3132 0A 0B
03972   3134 0A 0B               LDD  A,[BC]             ; 3134 0A 0B
03973   3136 1A 1B               ldd  a,[de]             ; 3136 1A 1B
03974   3138 1A 1B               LDD  A,[DE]             ; 3138 1A 1B
03975   313A 7E 2B               ldd  a,[hl]             ; 313A 7E 2B
03976   313C 7E 2B               LDD  A,[HL]             ; 313C 7E 2B
03977   313E DD7E80DD2B          ldd  a,[ix+-128]        ; 313E DD 7E 80 DD 2B
03978   3143 DD7E80DD2B          LDD  A,[IX+-128]        ; 3143 DD 7E 80 DD 2B
03979   3148 DD7EFFDD2B          ldd  a,[ix+-1]          ; 3148 DD 7E FF DD 2B
03980   314D DD7EFFDD2B          LDD  A,[IX+-1]          ; 314D DD 7E FF DD 2B
03981   3152 DD7E00DD2B          ldd  a,[ix+0]           ; 3152 DD 7E 00 DD 2B
03982   3157 DD7E00DD2B          LDD  A,[IX+0]           ; 3157 DD 7E 00 DD 2B
03983   315C DD7E7FDD2B          ldd  a,[ix+127]         ; 315C DD 7E 7F DD 2B
03984   3161 DD7E7FDD2B          LDD  A,[IX+127]         ; 3161 DD 7E 7F DD 2B
03985   3166 FD7E80FD2B          ldd  a,[iy+-128]        ; 3166 FD 7E 80 FD 2B
03986   316B FD7E80FD2B          LDD  A,[IY+-128]        ; 316B FD 7E 80 FD 2B
03987   3170 FD7EFFFD2B          ldd  a,[iy+-1]          ; 3170 FD 7E FF FD 2B
03988   3175 FD7EFFFD2B          LDD  A,[IY+-1]          ; 3175 FD 7E FF FD 2B
03989   317A FD7E00FD2B          ldd  a,[iy+0]           ; 317A FD 7E 00 FD 2B
03990   317F FD7E00FD2B          LDD  A,[IY+0]           ; 317F FD 7E 00 FD 2B
03991   3184 FD7E7FFD2B          ldd  a,[iy+127]         ; 3184 FD 7E 7F FD 2B
03992   3189 FD7E7FFD2B          LDD  A,[IY+127]         ; 3189 FD 7E 7F FD 2B
03993   318E 46 2B               ldd  b,(hl)             ; 318E 46 2B
03994   3190 46 2B               LDD  B,(HL)             ; 3190 46 2B
03995   3192 DD4680DD2B          ldd  b,(ix+-128)        ; 3192 DD 46 80 DD 2B
03996   3197 DD4680DD2B          LDD  B,(IX+-128)        ; 3197 DD 46 80 DD 2B
03997   319C DD46FFDD2B          ldd  b,(ix+-1)          ; 319C DD 46 FF DD 2B
03998   31A1 DD46FFDD2B          LDD  B,(IX+-1)          ; 31A1 DD 46 FF DD 2B
03999   31A6 DD4600DD2B          ldd  b,(ix+0)           ; 31A6 DD 46 00 DD 2B
04000   31AB DD4600DD2B          LDD  B,(IX+0)           ; 31AB DD 46 00 DD 2B
04001   31B0 DD467FDD2B          ldd  b,(ix+127)         ; 31B0 DD 46 7F DD 2B
04002   31B5 DD467FDD2B          LDD  B,(IX+127)         ; 31B5 DD 46 7F DD 2B
04003   31BA FD4680FD2B          ldd  b,(iy+-128)        ; 31BA FD 46 80 FD 2B
04004   31BF FD4680FD2B          LDD  B,(IY+-128)        ; 31BF FD 46 80 FD 2B
04005   31C4 FD46FFFD2B          ldd  b,(iy+-1)          ; 31C4 FD 46 FF FD 2B
04006   31C9 FD46FFFD2B          LDD  B,(IY+-1)          ; 31C9 FD 46 FF FD 2B
04007   31CE FD4600FD2B          ldd  b,(iy+0)           ; 31CE FD 46 00 FD 2B
04008   31D3 FD4600FD2B          LDD  B,(IY+0)           ; 31D3 FD 46 00 FD 2B
04009   31D8 FD467FFD2B          ldd  b,(iy+127)         ; 31D8 FD 46 7F FD 2B
04010   31DD FD467FFD2B          LDD  B,(IY+127)         ; 31DD FD 46 7F FD 2B
04011   31E2 46 2B               ldd  b,[hl]             ; 31E2 46 2B
04012   31E4 46 2B               LDD  B,[HL]             ; 31E4 46 2B
04013   31E6 DD4680DD2B          ldd  b,[ix+-128]        ; 31E6 DD 46 80 DD 2B
04014   31EB DD4680DD2B          LDD  B,[IX+-128]        ; 31EB DD 46 80 DD 2B
04015   31F0 DD46FFDD2B          ldd  b,[ix+-1]          ; 31F0 DD 46 FF DD 2B
04016   31F5 DD46FFDD2B          LDD  B,[IX+-1]          ; 31F5 DD 46 FF DD 2B
04017   31FA DD4600DD2B          ldd  b,[ix+0]           ; 31FA DD 46 00 DD 2B
04018   31FF DD4600DD2B          LDD  B,[IX+0]           ; 31FF DD 46 00 DD 2B
04019   3204 DD467FDD2B          ldd  b,[ix+127]         ; 3204 DD 46 7F DD 2B
04020   3209 DD467FDD2B          LDD  B,[IX+127]         ; 3209 DD 46 7F DD 2B
04021   320E FD4680FD2B          ldd  b,[iy+-128]        ; 320E FD 46 80 FD 2B
04022   3213 FD4680FD2B          LDD  B,[IY+-128]        ; 3213 FD 46 80 FD 2B
04023   3218 FD46FFFD2B          ldd  b,[iy+-1]          ; 3218 FD 46 FF FD 2B
04024   321D FD46FFFD2B          LDD  B,[IY+-1]          ; 321D FD 46 FF FD 2B
04025   3222 FD4600FD2B          ldd  b,[iy+0]           ; 3222 FD 46 00 FD 2B
04026   3227 FD4600FD2B          LDD  B,[IY+0]           ; 3227 FD 46 00 FD 2B
04027   322C FD467FFD2B          ldd  b,[iy+127]         ; 322C FD 46 7F FD 2B
04028   3231 FD467FFD2B          LDD  B,[IY+127]         ; 3231 FD 46 7F FD 2B
04029   3236 4E 2B               ldd  c,(hl)             ; 3236 4E 2B
04030   3238 4E 2B               LDD  C,(HL)             ; 3238 4E 2B
04031   323A DD4E80DD2B          ldd  c,(ix+-128)        ; 323A DD 4E 80 DD 2B
04032   323F DD4E80DD2B          LDD  C,(IX+-128)        ; 323F DD 4E 80 DD 2B
04033   3244 DD4EFFDD2B          ldd  c,(ix+-1)          ; 3244 DD 4E FF DD 2B
04034   3249 DD4EFFDD2B          LDD  C,(IX+-1)          ; 3249 DD 4E FF DD 2B
04035   324E DD4E00DD2B          ldd  c,(ix+0)           ; 324E DD 4E 00 DD 2B
04036   3253 DD4E00DD2B          LDD  C,(IX+0)           ; 3253 DD 4E 00 DD 2B
04037   3258 DD4E7FDD2B          ldd  c,(ix+127)         ; 3258 DD 4E 7F DD 2B
04038   325D DD4E7FDD2B          LDD  C,(IX+127)         ; 325D DD 4E 7F DD 2B
04039   3262 FD4E80FD2B          ldd  c,(iy+-128)        ; 3262 FD 4E 80 FD 2B
04040   3267 FD4E80FD2B          LDD  C,(IY+-128)        ; 3267 FD 4E 80 FD 2B
04041   326C FD4EFFFD2B          ldd  c,(iy+-1)          ; 326C FD 4E FF FD 2B
04042   3271 FD4EFFFD2B          LDD  C,(IY+-1)          ; 3271 FD 4E FF FD 2B
04043   3276 FD4E00FD2B          ldd  c,(iy+0)           ; 3276 FD 4E 00 FD 2B
04044   327B FD4E00FD2B          LDD  C,(IY+0)           ; 327B FD 4E 00 FD 2B
04045   3280 FD4E7FFD2B          ldd  c,(iy+127)         ; 3280 FD 4E 7F FD 2B
04046   3285 FD4E7FFD2B          LDD  C,(IY+127)         ; 3285 FD 4E 7F FD 2B
04047   328A 4E 2B               ldd  c,[hl]             ; 328A 4E 2B
04048   328C 4E 2B               LDD  C,[HL]             ; 328C 4E 2B
04049   328E DD4E80DD2B          ldd  c,[ix+-128]        ; 328E DD 4E 80 DD 2B
04050   3293 DD4E80DD2B          LDD  C,[IX+-128]        ; 3293 DD 4E 80 DD 2B
04051   3298 DD4EFFDD2B          ldd  c,[ix+-1]          ; 3298 DD 4E FF DD 2B
04052   329D DD4EFFDD2B          LDD  C,[IX+-1]          ; 329D DD 4E FF DD 2B
04053   32A2 DD4E00DD2B          ldd  c,[ix+0]           ; 32A2 DD 4E 00 DD 2B
04054   32A7 DD4E00DD2B          LDD  C,[IX+0]           ; 32A7 DD 4E 00 DD 2B
04055   32AC DD4E7FDD2B          ldd  c,[ix+127]         ; 32AC DD 4E 7F DD 2B
04056   32B1 DD4E7FDD2B          LDD  C,[IX+127]         ; 32B1 DD 4E 7F DD 2B
04057   32B6 FD4E80FD2B          ldd  c,[iy+-128]        ; 32B6 FD 4E 80 FD 2B
04058   32BB FD4E80FD2B          LDD  C,[IY+-128]        ; 32BB FD 4E 80 FD 2B
04059   32C0 FD4EFFFD2B          ldd  c,[iy+-1]          ; 32C0 FD 4E FF FD 2B
04060   32C5 FD4EFFFD2B          LDD  C,[IY+-1]          ; 32C5 FD 4E FF FD 2B
04061   32CA FD4E00FD2B          ldd  c,[iy+0]           ; 32CA FD 4E 00 FD 2B
04062   32CF FD4E00FD2B          LDD  C,[IY+0]           ; 32CF FD 4E 00 FD 2B
04063   32D4 FD4E7FFD2B          ldd  c,[iy+127]         ; 32D4 FD 4E 7F FD 2B
04064   32D9 FD4E7FFD2B          LDD  C,[IY+127]         ; 32D9 FD 4E 7F FD 2B
04065   32DE 56 2B               ldd  d,(hl)             ; 32DE 56 2B
04066   32E0 56 2B               LDD  D,(HL)             ; 32E0 56 2B
04067   32E2 DD5680DD2B          ldd  d,(ix+-128)        ; 32E2 DD 56 80 DD 2B
04068   32E7 DD5680DD2B          LDD  D,(IX+-128)        ; 32E7 DD 56 80 DD 2B
04069   32EC DD56FFDD2B          ldd  d,(ix+-1)          ; 32EC DD 56 FF DD 2B
04070   32F1 DD56FFDD2B          LDD  D,(IX+-1)          ; 32F1 DD 56 FF DD 2B
04071   32F6 DD5600DD2B          ldd  d,(ix+0)           ; 32F6 DD 56 00 DD 2B
04072   32FB DD5600DD2B          LDD  D,(IX+0)           ; 32FB DD 56 00 DD 2B
04073   3300 DD567FDD2B          ldd  d,(ix+127)         ; 3300 DD 56 7F DD 2B
04074   3305 DD567FDD2B          LDD  D,(IX+127)         ; 3305 DD 56 7F DD 2B
04075   330A FD5680FD2B          ldd  d,(iy+-128)        ; 330A FD 56 80 FD 2B
04076   330F FD5680FD2B          LDD  D,(IY+-128)        ; 330F FD 56 80 FD 2B
04077   3314 FD56FFFD2B          ldd  d,(iy+-1)          ; 3314 FD 56 FF FD 2B
04078   3319 FD56FFFD2B          LDD  D,(IY+-1)          ; 3319 FD 56 FF FD 2B
04079   331E FD5600FD2B          ldd  d,(iy+0)           ; 331E FD 56 00 FD 2B
04080   3323 FD5600FD2B          LDD  D,(IY+0)           ; 3323 FD 56 00 FD 2B
04081   3328 FD567FFD2B          ldd  d,(iy+127)         ; 3328 FD 56 7F FD 2B
04082   332D FD567FFD2B          LDD  D,(IY+127)         ; 332D FD 56 7F FD 2B
04083   3332 56 2B               ldd  d,[hl]             ; 3332 56 2B
04084   3334 56 2B               LDD  D,[HL]             ; 3334 56 2B
04085   3336 DD5680DD2B          ldd  d,[ix+-128]        ; 3336 DD 56 80 DD 2B
04086   333B DD5680DD2B          LDD  D,[IX+-128]        ; 333B DD 56 80 DD 2B
04087   3340 DD56FFDD2B          ldd  d,[ix+-1]          ; 3340 DD 56 FF DD 2B
04088   3345 DD56FFDD2B          LDD  D,[IX+-1]          ; 3345 DD 56 FF DD 2B
04089   334A DD5600DD2B          ldd  d,[ix+0]           ; 334A DD 56 00 DD 2B
04090   334F DD5600DD2B          LDD  D,[IX+0]           ; 334F DD 56 00 DD 2B
04091   3354 DD567FDD2B          ldd  d,[ix+127]         ; 3354 DD 56 7F DD 2B
04092   3359 DD567FDD2B          LDD  D,[IX+127]         ; 3359 DD 56 7F DD 2B
04093   335E FD5680FD2B          ldd  d,[iy+-128]        ; 335E FD 56 80 FD 2B
04094   3363 FD5680FD2B          LDD  D,[IY+-128]        ; 3363 FD 56 80 FD 2B
04095   3368 FD56FFFD2B          ldd  d,[iy+-1]          ; 3368 FD 56 FF FD 2B
04096   336D FD56FFFD2B          LDD  D,[IY+-1]          ; 336D FD 56 FF FD 2B
04097   3372 FD5600FD2B          ldd  d,[iy+0]           ; 3372 FD 56 00 FD 2B
04098   3377 FD5600FD2B          LDD  D,[IY+0]           ; 3377 FD 56 00 FD 2B
04099   337C FD567FFD2B          ldd  d,[iy+127]         ; 337C FD 56 7F FD 2B
04100   3381 FD567FFD2B          LDD  D,[IY+127]         ; 3381 FD 56 7F FD 2B
04101   3386 5E 2B               ldd  e,(hl)             ; 3386 5E 2B
04102   3388 5E 2B               LDD  E,(HL)             ; 3388 5E 2B
04103   338A DD5E80DD2B          ldd  e,(ix+-128)        ; 338A DD 5E 80 DD 2B
04104   338F DD5E80DD2B          LDD  E,(IX+-128)        ; 338F DD 5E 80 DD 2B
04105   3394 DD5EFFDD2B          ldd  e,(ix+-1)          ; 3394 DD 5E FF DD 2B
04106   3399 DD5EFFDD2B          LDD  E,(IX+-1)          ; 3399 DD 5E FF DD 2B
04107   339E DD5E00DD2B          ldd  e,(ix+0)           ; 339E DD 5E 00 DD 2B
04108   33A3 DD5E00DD2B          LDD  E,(IX+0)           ; 33A3 DD 5E 00 DD 2B
04109   33A8 DD5E7FDD2B          ldd  e,(ix+127)         ; 33A8 DD 5E 7F DD 2B
04110   33AD DD5E7FDD2B          LDD  E,(IX+127)         ; 33AD DD 5E 7F DD 2B
04111   33B2 FD5E80FD2B          ldd  e,(iy+-128)        ; 33B2 FD 5E 80 FD 2B
04112   33B7 FD5E80FD2B          LDD  E,(IY+-128)        ; 33B7 FD 5E 80 FD 2B
04113   33BC FD5EFFFD2B          ldd  e,(iy+-1)          ; 33BC FD 5E FF FD 2B
04114   33C1 FD5EFFFD2B          LDD  E,(IY+-1)          ; 33C1 FD 5E FF FD 2B
04115   33C6 FD5E00FD2B          ldd  e,(iy+0)           ; 33C6 FD 5E 00 FD 2B
04116   33CB FD5E00FD2B          LDD  E,(IY+0)           ; 33CB FD 5E 00 FD 2B
04117   33D0 FD5E7FFD2B          ldd  e,(iy+127)         ; 33D0 FD 5E 7F FD 2B
04118   33D5 FD5E7FFD2B          LDD  E,(IY+127)         ; 33D5 FD 5E 7F FD 2B
04119   33DA 5E 2B               ldd  e,[hl]             ; 33DA 5E 2B
04120   33DC 5E 2B               LDD  E,[HL]             ; 33DC 5E 2B
04121   33DE DD5E80DD2B          ldd  e,[ix+-128]        ; 33DE DD 5E 80 DD 2B
04122   33E3 DD5E80DD2B          LDD  E,[IX+-128]        ; 33E3 DD 5E 80 DD 2B
04123   33E8 DD5EFFDD2B          ldd  e,[ix+-1]          ; 33E8 DD 5E FF DD 2B
04124   33ED DD5EFFDD2B          LDD  E,[IX+-1]          ; 33ED DD 5E FF DD 2B
04125   33F2 DD5E00DD2B          ldd  e,[ix+0]           ; 33F2 DD 5E 00 DD 2B
04126   33F7 DD5E00DD2B          LDD  E,[IX+0]           ; 33F7 DD 5E 00 DD 2B
04127   33FC DD5E7FDD2B          ldd  e,[ix+127]         ; 33FC DD 5E 7F DD 2B
04128   3401 DD5E7FDD2B          LDD  E,[IX+127]         ; 3401 DD 5E 7F DD 2B
04129   3406 FD5E80FD2B          ldd  e,[iy+-128]        ; 3406 FD 5E 80 FD 2B
04130   340B FD5E80FD2B          LDD  E,[IY+-128]        ; 340B FD 5E 80 FD 2B
04131   3410 FD5EFFFD2B          ldd  e,[iy+-1]          ; 3410 FD 5E FF FD 2B
04132   3415 FD5EFFFD2B          LDD  E,[IY+-1]          ; 3415 FD 5E FF FD 2B
04133   341A FD5E00FD2B          ldd  e,[iy+0]           ; 341A FD 5E 00 FD 2B
04134   341F FD5E00FD2B          LDD  E,[IY+0]           ; 341F FD 5E 00 FD 2B
04135   3424 FD5E7FFD2B          ldd  e,[iy+127]         ; 3424 FD 5E 7F FD 2B
04136   3429 FD5E7FFD2B          LDD  E,[IY+127]         ; 3429 FD 5E 7F FD 2B
04137   342E 66 2B               ldd  h,(hl)             ; 342E 66 2B
04138   3430 66 2B               LDD  H,(HL)             ; 3430 66 2B
04139   3432 DD6680DD2B          ldd  h,(ix+-128)        ; 3432 DD 66 80 DD 2B
04140   3437 DD6680DD2B          LDD  H,(IX+-128)        ; 3437 DD 66 80 DD 2B
04141   343C DD66FFDD2B          ldd  h,(ix+-1)          ; 343C DD 66 FF DD 2B
04142   3441 DD66FFDD2B          LDD  H,(IX+-1)          ; 3441 DD 66 FF DD 2B
04143   3446 DD6600DD2B          ldd  h,(ix+0)           ; 3446 DD 66 00 DD 2B
04144   344B DD6600DD2B          LDD  H,(IX+0)           ; 344B DD 66 00 DD 2B
04145   3450 DD667FDD2B          ldd  h,(ix+127)         ; 3450 DD 66 7F DD 2B
04146   3455 DD667FDD2B          LDD  H,(IX+127)         ; 3455 DD 66 7F DD 2B
04147   345A FD6680FD2B          ldd  h,(iy+-128)        ; 345A FD 66 80 FD 2B
04148   345F FD6680FD2B          LDD  H,(IY+-128)        ; 345F FD 66 80 FD 2B
04149   3464 FD66FFFD2B          ldd  h,(iy+-1)          ; 3464 FD 66 FF FD 2B
04150   3469 FD66FFFD2B          LDD  H,(IY+-1)          ; 3469 FD 66 FF FD 2B
04151   346E FD6600FD2B          ldd  h,(iy+0)           ; 346E FD 66 00 FD 2B
04152   3473 FD6600FD2B          LDD  H,(IY+0)           ; 3473 FD 66 00 FD 2B
04153   3478 FD667FFD2B          ldd  h,(iy+127)         ; 3478 FD 66 7F FD 2B
04154   347D FD667FFD2B          LDD  H,(IY+127)         ; 347D FD 66 7F FD 2B
04155   3482 66 2B               ldd  h,[hl]             ; 3482 66 2B
04156   3484 66 2B               LDD  H,[HL]             ; 3484 66 2B
04157   3486 DD6680DD2B          ldd  h,[ix+-128]        ; 3486 DD 66 80 DD 2B
04158   348B DD6680DD2B          LDD  H,[IX+-128]        ; 348B DD 66 80 DD 2B
04159   3490 DD66FFDD2B          ldd  h,[ix+-1]          ; 3490 DD 66 FF DD 2B
04160   3495 DD66FFDD2B          LDD  H,[IX+-1]          ; 3495 DD 66 FF DD 2B
04161   349A DD6600DD2B          ldd  h,[ix+0]           ; 349A DD 66 00 DD 2B
04162   349F DD6600DD2B          LDD  H,[IX+0]           ; 349F DD 66 00 DD 2B
04163   34A4 DD667FDD2B          ldd  h,[ix+127]         ; 34A4 DD 66 7F DD 2B
04164   34A9 DD667FDD2B          LDD  H,[IX+127]         ; 34A9 DD 66 7F DD 2B
04165   34AE FD6680FD2B          ldd  h,[iy+-128]        ; 34AE FD 66 80 FD 2B
04166   34B3 FD6680FD2B          LDD  H,[IY+-128]        ; 34B3 FD 66 80 FD 2B
04167   34B8 FD66FFFD2B          ldd  h,[iy+-1]          ; 34B8 FD 66 FF FD 2B
04168   34BD FD66FFFD2B          LDD  H,[IY+-1]          ; 34BD FD 66 FF FD 2B
04169   34C2 FD6600FD2B          ldd  h,[iy+0]           ; 34C2 FD 66 00 FD 2B
04170   34C7 FD6600FD2B          LDD  H,[IY+0]           ; 34C7 FD 66 00 FD 2B
04171   34CC FD667FFD2B          ldd  h,[iy+127]         ; 34CC FD 66 7F FD 2B
04172   34D1 FD667FFD2B          LDD  H,[IY+127]         ; 34D1 FD 66 7F FD 2B
04173   34D6 6E 2B               ldd  l,(hl)             ; 34D6 6E 2B
04174   34D8 6E 2B               LDD  L,(HL)             ; 34D8 6E 2B
04175   34DA DD6E80DD2B          ldd  l,(ix+-128)        ; 34DA DD 6E 80 DD 2B
04176   34DF DD6E80DD2B          LDD  L,(IX+-128)        ; 34DF DD 6E 80 DD 2B
04177   34E4 DD6EFFDD2B          ldd  l,(ix+-1)          ; 34E4 DD 6E FF DD 2B
04178   34E9 DD6EFFDD2B          LDD  L,(IX+-1)          ; 34E9 DD 6E FF DD 2B
04179   34EE DD6E00DD2B          ldd  l,(ix+0)           ; 34EE DD 6E 00 DD 2B
04180   34F3 DD6E00DD2B          LDD  L,(IX+0)           ; 34F3 DD 6E 00 DD 2B
04181   34F8 DD6E7FDD2B          ldd  l,(ix+127)         ; 34F8 DD 6E 7F DD 2B
04182   34FD DD6E7FDD2B          LDD  L,(IX+127)         ; 34FD DD 6E 7F DD 2B
04183   3502 FD6E80FD2B          ldd  l,(iy+-128)        ; 3502 FD 6E 80 FD 2B
04184   3507 FD6E80FD2B          LDD  L,(IY+-128)        ; 3507 FD 6E 80 FD 2B
04185   350C FD6EFFFD2B          ldd  l,(iy+-1)          ; 350C FD 6E FF FD 2B
04186   3511 FD6EFFFD2B          LDD  L,(IY+-1)          ; 3511 FD 6E FF FD 2B
04187   3516 FD6E00FD2B          ldd  l,(iy+0)           ; 3516 FD 6E 00 FD 2B
04188   351B FD6E00FD2B          LDD  L,(IY+0)           ; 351B FD 6E 00 FD 2B
04189   3520 FD6E7FFD2B          ldd  l,(iy+127)         ; 3520 FD 6E 7F FD 2B
04190   3525 FD6E7FFD2B          LDD  L,(IY+127)         ; 3525 FD 6E 7F FD 2B
04191   352A 6E 2B               ldd  l,[hl]             ; 352A 6E 2B
04192   352C 6E 2B               LDD  L,[HL]             ; 352C 6E 2B
04193   352E DD6E80DD2B          ldd  l,[ix+-128]        ; 352E DD 6E 80 DD 2B
04194   3533 DD6E80DD2B          LDD  L,[IX+-128]        ; 3533 DD 6E 80 DD 2B
04195   3538 DD6EFFDD2B          ldd  l,[ix+-1]          ; 3538 DD 6E FF DD 2B
04196   353D DD6EFFDD2B          LDD  L,[IX+-1]          ; 353D DD 6E FF DD 2B
04197   3542 DD6E00DD2B          ldd  l,[ix+0]           ; 3542 DD 6E 00 DD 2B
04198   3547 DD6E00DD2B          LDD  L,[IX+0]           ; 3547 DD 6E 00 DD 2B
04199   354C DD6E7FDD2B          ldd  l,[ix+127]         ; 354C DD 6E 7F DD 2B
04200   3551 DD6E7FDD2B          LDD  L,[IX+127]         ; 3551 DD 6E 7F DD 2B
04201   3556 FD6E80FD2B          ldd  l,[iy+-128]        ; 3556 FD 6E 80 FD 2B
04202   355B FD6E80FD2B          LDD  L,[IY+-128]        ; 355B FD 6E 80 FD 2B
04203   3560 FD6EFFFD2B          ldd  l,[iy+-1]          ; 3560 FD 6E FF FD 2B
04204   3565 FD6EFFFD2B          LDD  L,[IY+-1]          ; 3565 FD 6E FF FD 2B
04205   356A FD6E00FD2B          ldd  l,[iy+0]           ; 356A FD 6E 00 FD 2B
04206   356F FD6E00FD2B          LDD  L,[IY+0]           ; 356F FD 6E 00 FD 2B
04207   3574 FD6E7FFD2B          ldd  l,[iy+127]         ; 3574 FD 6E 7F FD 2B
04208   3579 FD6E7FFD2B          LDD  L,[IY+127]         ; 3579 FD 6E 7F FD 2B
04209   357E ED B8               lddr                    ; 357E ED B8
04210   3580 ED B8               LDDR                    ; 3580 ED B8
04211   3582 ED A0               ldi                     ; 3582 ED A0
04212   3584 ED A0               LDI                     ; 3584 ED A0
04213   3586 02 03               ldi  (bc),a             ; 3586 02 03
04214   3588 02 03               LDI  (BC),A             ; 3588 02 03
04215   358A 12 13               ldi  (de),a             ; 358A 12 13
04216   358C 12 13               LDI  (DE),A             ; 358C 12 13
04217   358E 36 80 23            ldi  (hl),-128          ; 358E 36 80 23
04218   3591 36 80 23            LDI  (HL),-128          ; 3591 36 80 23
04219   3594 36 FF 23            ldi  (hl),-1            ; 3594 36 FF 23
04220   3597 36 FF 23            LDI  (HL),-1            ; 3597 36 FF 23
04221   359A 36 00 23            ldi  (hl),0             ; 359A 36 00 23
04222   359D 36 00 23            LDI  (HL),0             ; 359D 36 00 23
04223   35A0 36 7F 23            ldi  (hl),127           ; 35A0 36 7F 23
04224   35A3 36 7F 23            LDI  (HL),127           ; 35A3 36 7F 23
04225   35A6 36 FF 23            ldi  (hl),255           ; 35A6 36 FF 23
04226   35A9 36 FF 23            LDI  (HL),255           ; 35A9 36 FF 23
04227   35AC 77 23               ldi  (hl),a             ; 35AC 77 23
04228   35AE 77 23               LDI  (HL),A             ; 35AE 77 23
04229   35B0 70 23               ldi  (hl),b             ; 35B0 70 23
04230   35B2 70 23               LDI  (HL),B             ; 35B2 70 23
04231   35B4 71 23 70 23         ldi  (hl),bc            ; 35B4 71 23 70 23
04232   35B8 71 23 70 23         LDI  (HL),BC            ; 35B8 71 23 70 23
04233   35BC 71 23               ldi  (hl),c             ; 35BC 71 23
04234   35BE 71 23               LDI  (HL),C             ; 35BE 71 23
04235   35C0 72 23               ldi  (hl),d             ; 35C0 72 23
04236   35C2 72 23               LDI  (HL),D             ; 35C2 72 23
04237   35C4 73 23 72 23         ldi  (hl),de            ; 35C4 73 23 72 23
04238   35C8 73 23 72 23         LDI  (HL),DE            ; 35C8 73 23 72 23
04239   35CC 73 23               ldi  (hl),e             ; 35CC 73 23
04240   35CE 73 23               LDI  (HL),E             ; 35CE 73 23
04241   35D0 74 23               ldi  (hl),h             ; 35D0 74 23
04242   35D2 74 23               LDI  (HL),H             ; 35D2 74 23
04243   35D4 75 23               ldi  (hl),l             ; 35D4 75 23
04244   35D6 75 23               LDI  (HL),L             ; 35D6 75 23
04245   35D8                     ldi  (ix+-128),-128     ; 35D8 DD 36 80 80 DD 23
04245   35D8 DD368080DD23
04246   35DE                     LDI  (IX+-128),-128     ; 35DE DD 36 80 80 DD 23
04246   35DE DD368080DD23
04247   35E4                     ldi  (ix+-128),-1       ; 35E4 DD 36 80 FF DD 23
04247   35E4 DD3680FFDD23
04248   35EA                     LDI  (IX+-128),-1       ; 35EA DD 36 80 FF DD 23
04248   35EA DD3680FFDD23
04249   35F0                     ldi  (ix+-128),0        ; 35F0 DD 36 80 00 DD 23
04249   35F0 DD368000DD23
04250   35F6                     LDI  (IX+-128),0        ; 35F6 DD 36 80 00 DD 23
04250   35F6 DD368000DD23
04251   35FC                     ldi  (ix+-128),127      ; 35FC DD 36 80 7F DD 23
04251   35FC DD36807FDD23
04252   3602                     LDI  (IX+-128),127      ; 3602 DD 36 80 7F DD 23
04252   3602 DD36807FDD23
04253   3608                     ldi  (ix+-128),255      ; 3608 DD 36 80 FF DD 23
04253   3608 DD3680FFDD23
04254   360E                     LDI  (IX+-128),255      ; 360E DD 36 80 FF DD 23
04254   360E DD3680FFDD23
04255   3614                     ldi  (ix+-1),-128       ; 3614 DD 36 FF 80 DD 23
04255   3614 DD36FF80DD23
04256   361A                     LDI  (IX+-1),-128       ; 361A DD 36 FF 80 DD 23
04256   361A DD36FF80DD23
04257   3620                     ldi  (ix+-1),-1         ; 3620 DD 36 FF FF DD 23
04257   3620 DD36FFFFDD23
04258   3626                     LDI  (IX+-1),-1         ; 3626 DD 36 FF FF DD 23
04258   3626 DD36FFFFDD23
04259   362C                     ldi  (ix+-1),0          ; 362C DD 36 FF 00 DD 23
04259   362C DD36FF00DD23
04260   3632                     LDI  (IX+-1),0          ; 3632 DD 36 FF 00 DD 23
04260   3632 DD36FF00DD23
04261   3638                     ldi  (ix+-1),127        ; 3638 DD 36 FF 7F DD 23
04261   3638 DD36FF7FDD23
04262   363E                     LDI  (IX+-1),127        ; 363E DD 36 FF 7F DD 23
04262   363E DD36FF7FDD23
04263   3644                     ldi  (ix+-1),255        ; 3644 DD 36 FF FF DD 23
04263   3644 DD36FFFFDD23
04264   364A                     LDI  (IX+-1),255        ; 364A DD 36 FF FF DD 23
04264   364A DD36FFFFDD23
04265   3650                     ldi  (ix+0),-128        ; 3650 DD 36 00 80 DD 23
04265   3650 DD360080DD23
04266   3656                     LDI  (IX+0),-128        ; 3656 DD 36 00 80 DD 23
04266   3656 DD360080DD23
04267   365C                     ldi  (ix+0),-1          ; 365C DD 36 00 FF DD 23
04267   365C DD3600FFDD23
04268   3662                     LDI  (IX+0),-1          ; 3662 DD 36 00 FF DD 23
04268   3662 DD3600FFDD23
04269   3668                     ldi  (ix+0),0           ; 3668 DD 36 00 00 DD 23
04269   3668 DD360000DD23
04270   366E                     LDI  (IX+0),0           ; 366E DD 36 00 00 DD 23
04270   366E DD360000DD23
04271   3674                     ldi  (ix+0),127         ; 3674 DD 36 00 7F DD 23
04271   3674 DD36007FDD23
04272   367A                     LDI  (IX+0),127         ; 367A DD 36 00 7F DD 23
04272   367A DD36007FDD23
04273   3680                     ldi  (ix+0),255         ; 3680 DD 36 00 FF DD 23
04273   3680 DD3600FFDD23
04274   3686                     LDI  (IX+0),255         ; 3686 DD 36 00 FF DD 23
04274   3686 DD3600FFDD23
04275   368C                     ldi  (ix+127),-128      ; 368C DD 36 7F 80 DD 23
04275   368C DD367F80DD23
04276   3692                     LDI  (IX+127),-128      ; 3692 DD 36 7F 80 DD 23
04276   3692 DD367F80DD23
04277   3698                     ldi  (ix+127),-1        ; 3698 DD 36 7F FF DD 23
04277   3698 DD367FFFDD23
04278   369E                     LDI  (IX+127),-1        ; 369E DD 36 7F FF DD 23
04278   369E DD367FFFDD23
04279   36A4                     ldi  (ix+127),0         ; 36A4 DD 36 7F 00 DD 23
04279   36A4 DD367F00DD23
04280   36AA                     LDI  (IX+127),0         ; 36AA DD 36 7F 00 DD 23
04280   36AA DD367F00DD23
04281   36B0                     ldi  (ix+127),127       ; 36B0 DD 36 7F 7F DD 23
04281   36B0 DD367F7FDD23
04282   36B6                     LDI  (IX+127),127       ; 36B6 DD 36 7F 7F DD 23
04282   36B6 DD367F7FDD23
04283   36BC                     ldi  (ix+127),255       ; 36BC DD 36 7F FF DD 23
04283   36BC DD367FFFDD23
04284   36C2                     LDI  (IX+127),255       ; 36C2 DD 36 7F FF DD 23
04284   36C2 DD367FFFDD23
04285   36C8 DD7780DD23          ldi  (ix+-128),a        ; 36C8 DD 77 80 DD 23
04286   36CD DD7780DD23          LDI  (IX+-128),A        ; 36CD DD 77 80 DD 23
04287   36D2 DD77FFDD23          ldi  (ix+-1),a          ; 36D2 DD 77 FF DD 23
04288   36D7 DD77FFDD23          LDI  (IX+-1),A          ; 36D7 DD 77 FF DD 23
04289   36DC DD7700DD23          ldi  (ix+0),a           ; 36DC DD 77 00 DD 23
04290   36E1 DD7700DD23          LDI  (IX+0),A           ; 36E1 DD 77 00 DD 23
04291   36E6 DD777FDD23          ldi  (ix+127),a         ; 36E6 DD 77 7F DD 23
04292   36EB DD777FDD23          LDI  (IX+127),A         ; 36EB DD 77 7F DD 23
04293   36F0 DD7080DD23          ldi  (ix+-128),b        ; 36F0 DD 70 80 DD 23
04294   36F5 DD7080DD23          LDI  (IX+-128),B        ; 36F5 DD 70 80 DD 23
04295   36FA DD70FFDD23          ldi  (ix+-1),b          ; 36FA DD 70 FF DD 23
04296   36FF DD70FFDD23          LDI  (IX+-1),B          ; 36FF DD 70 FF DD 23
04297   3704 DD7000DD23          ldi  (ix+0),b           ; 3704 DD 70 00 DD 23
04298   3709 DD7000DD23          LDI  (IX+0),B           ; 3709 DD 70 00 DD 23
04299   370E DD707FDD23          ldi  (ix+127),b         ; 370E DD 70 7F DD 23
04300   3713 DD707FDD23          LDI  (IX+127),B         ; 3713 DD 70 7F DD 23
04301   3718                     ldi  (ix+-128),bc       ; 3718 DD 71 80 DD 23 DD 70 80 DD 23
04301   3718 DD7180DD23DD7080DD23
04302   3722                     LDI  (IX+-128),BC       ; 3722 DD 71 80 DD 23 DD 70 80 DD 23
04302   3722 DD7180DD23DD7080DD23
04303   372C                     ldi  (ix+-1),bc         ; 372C DD 71 FF DD 23 DD 70 FF DD 23
04303   372C DD71FFDD23DD70FFDD23
04304   3736                     LDI  (IX+-1),BC         ; 3736 DD 71 FF DD 23 DD 70 FF DD 23
04304   3736 DD71FFDD23DD70FFDD23
04305   3740                     ldi  (ix+0),bc          ; 3740 DD 71 00 DD 23 DD 70 00 DD 23
04305   3740 DD7100DD23DD7000DD23
04306   374A                     LDI  (IX+0),BC          ; 374A DD 71 00 DD 23 DD 70 00 DD 23
04306   374A DD7100DD23DD7000DD23
04307   3754                     ldi  (ix+126),bc        ; 3754 DD 71 7E DD 23 DD 70 7E DD 23
04307   3754 DD717EDD23DD707EDD23
04308   375E                     LDI  (IX+126),BC        ; 375E DD 71 7E DD 23 DD 70 7E DD 23
04308   375E DD717EDD23DD707EDD23
04309   3768 DD7180DD23          ldi  (ix+-128),c        ; 3768 DD 71 80 DD 23
04310   376D DD7180DD23          LDI  (IX+-128),C        ; 376D DD 71 80 DD 23
04311   3772 DD71FFDD23          ldi  (ix+-1),c          ; 3772 DD 71 FF DD 23
04312   3777 DD71FFDD23          LDI  (IX+-1),C          ; 3777 DD 71 FF DD 23
04313   377C DD7100DD23          ldi  (ix+0),c           ; 377C DD 71 00 DD 23
04314   3781 DD7100DD23          LDI  (IX+0),C           ; 3781 DD 71 00 DD 23
04315   3786 DD717FDD23          ldi  (ix+127),c         ; 3786 DD 71 7F DD 23
04316   378B DD717FDD23          LDI  (IX+127),C         ; 378B DD 71 7F DD 23
04317   3790 DD7280DD23          ldi  (ix+-128),d        ; 3790 DD 72 80 DD 23
04318   3795 DD7280DD23          LDI  (IX+-128),D        ; 3795 DD 72 80 DD 23
04319   379A DD72FFDD23          ldi  (ix+-1),d          ; 379A DD 72 FF DD 23
04320   379F DD72FFDD23          LDI  (IX+-1),D          ; 379F DD 72 FF DD 23
04321   37A4 DD7200DD23          ldi  (ix+0),d           ; 37A4 DD 72 00 DD 23
04322   37A9 DD7200DD23          LDI  (IX+0),D           ; 37A9 DD 72 00 DD 23
04323   37AE DD727FDD23          ldi  (ix+127),d         ; 37AE DD 72 7F DD 23
04324   37B3 DD727FDD23          LDI  (IX+127),D         ; 37B3 DD 72 7F DD 23
04325   37B8                     ldi  (ix+-128),de       ; 37B8 DD 73 80 DD 23 DD 72 80 DD 23
04325   37B8 DD7380DD23DD7280DD23
04326   37C2                     LDI  (IX+-128),DE       ; 37C2 DD 73 80 DD 23 DD 72 80 DD 23
04326   37C2 DD7380DD23DD7280DD23
04327   37CC                     ldi  (ix+-1),de         ; 37CC DD 73 FF DD 23 DD 72 FF DD 23
04327   37CC DD73FFDD23DD72FFDD23
04328   37D6                     LDI  (IX+-1),DE         ; 37D6 DD 73 FF DD 23 DD 72 FF DD 23
04328   37D6 DD73FFDD23DD72FFDD23
04329   37E0                     ldi  (ix+0),de          ; 37E0 DD 73 00 DD 23 DD 72 00 DD 23
04329   37E0 DD7300DD23DD7200DD23
04330   37EA                     LDI  (IX+0),DE          ; 37EA DD 73 00 DD 23 DD 72 00 DD 23
04330   37EA DD7300DD23DD7200DD23
04331   37F4                     ldi  (ix+126),de        ; 37F4 DD 73 7E DD 23 DD 72 7E DD 23
04331   37F4 DD737EDD23DD727EDD23
04332   37FE                     LDI  (IX+126),DE        ; 37FE DD 73 7E DD 23 DD 72 7E DD 23
04332   37FE DD737EDD23DD727EDD23
04333   3808 DD7380DD23          ldi  (ix+-128),e        ; 3808 DD 73 80 DD 23
04334   380D DD7380DD23          LDI  (IX+-128),E        ; 380D DD 73 80 DD 23
04335   3812 DD73FFDD23          ldi  (ix+-1),e          ; 3812 DD 73 FF DD 23
04336   3817 DD73FFDD23          LDI  (IX+-1),E          ; 3817 DD 73 FF DD 23
04337   381C DD7300DD23          ldi  (ix+0),e           ; 381C DD 73 00 DD 23
04338   3821 DD7300DD23          LDI  (IX+0),E           ; 3821 DD 73 00 DD 23
04339   3826 DD737FDD23          ldi  (ix+127),e         ; 3826 DD 73 7F DD 23
04340   382B DD737FDD23          LDI  (IX+127),E         ; 382B DD 73 7F DD 23
04341   3830 DD7480DD23          ldi  (ix+-128),h        ; 3830 DD 74 80 DD 23
04342   3835 DD7480DD23          LDI  (IX+-128),H        ; 3835 DD 74 80 DD 23
04343   383A DD74FFDD23          ldi  (ix+-1),h          ; 383A DD 74 FF DD 23
04344   383F DD74FFDD23          LDI  (IX+-1),H          ; 383F DD 74 FF DD 23
04345   3844 DD7400DD23          ldi  (ix+0),h           ; 3844 DD 74 00 DD 23
04346   3849 DD7400DD23          LDI  (IX+0),H           ; 3849 DD 74 00 DD 23
04347   384E DD747FDD23          ldi  (ix+127),h         ; 384E DD 74 7F DD 23
04348   3853 DD747FDD23          LDI  (IX+127),H         ; 3853 DD 74 7F DD 23
04349   3858                     ldi  (ix+-128),hl       ; 3858 DD 75 80 DD 23 DD 74 80 DD 23
04349   3858 DD7580DD23DD7480DD23
04350   3862                     LDI  (IX+-128),HL       ; 3862 DD 75 80 DD 23 DD 74 80 DD 23
04350   3862 DD7580DD23DD7480DD23
04351   386C                     ldi  (ix+-1),hl         ; 386C DD 75 FF DD 23 DD 74 FF DD 23
04351   386C DD75FFDD23DD74FFDD23
04352   3876                     LDI  (IX+-1),HL         ; 3876 DD 75 FF DD 23 DD 74 FF DD 23
04352   3876 DD75FFDD23DD74FFDD23
04353   3880                     ldi  (ix+0),hl          ; 3880 DD 75 00 DD 23 DD 74 00 DD 23
04353   3880 DD7500DD23DD7400DD23
04354   388A                     LDI  (IX+0),HL          ; 388A DD 75 00 DD 23 DD 74 00 DD 23
04354   388A DD7500DD23DD7400DD23
04355   3894                     ldi  (ix+126),hl        ; 3894 DD 75 7E DD 23 DD 74 7E DD 23
04355   3894 DD757EDD23DD747EDD23
04356   389E                     LDI  (IX+126),HL        ; 389E DD 75 7E DD 23 DD 74 7E DD 23
04356   389E DD757EDD23DD747EDD23
04357   38A8 DD7580DD23          ldi  (ix+-128),l        ; 38A8 DD 75 80 DD 23
04358   38AD DD7580DD23          LDI  (IX+-128),L        ; 38AD DD 75 80 DD 23
04359   38B2 DD75FFDD23          ldi  (ix+-1),l          ; 38B2 DD 75 FF DD 23
04360   38B7 DD75FFDD23          LDI  (IX+-1),L          ; 38B7 DD 75 FF DD 23
04361   38BC DD7500DD23          ldi  (ix+0),l           ; 38BC DD 75 00 DD 23
04362   38C1 DD7500DD23          LDI  (IX+0),L           ; 38C1 DD 75 00 DD 23
04363   38C6 DD757FDD23          ldi  (ix+127),l         ; 38C6 DD 75 7F DD 23
04364   38CB DD757FDD23          LDI  (IX+127),L         ; 38CB DD 75 7F DD 23
04365   38D0                     ldi  (iy+-128),-128     ; 38D0 FD 36 80 80 FD 23
04365   38D0 FD368080FD23
04366   38D6                     LDI  (IY+-128),-128     ; 38D6 FD 36 80 80 FD 23
04366   38D6 FD368080FD23
04367   38DC                     ldi  (iy+-128),-1       ; 38DC FD 36 80 FF FD 23
04367   38DC FD3680FFFD23
04368   38E2                     LDI  (IY+-128),-1       ; 38E2 FD 36 80 FF FD 23
04368   38E2 FD3680FFFD23
04369   38E8                     ldi  (iy+-128),0        ; 38E8 FD 36 80 00 FD 23
04369   38E8 FD368000FD23
04370   38EE                     LDI  (IY+-128),0        ; 38EE FD 36 80 00 FD 23
04370   38EE FD368000FD23
04371   38F4                     ldi  (iy+-128),127      ; 38F4 FD 36 80 7F FD 23
04371   38F4 FD36807FFD23
04372   38FA                     LDI  (IY+-128),127      ; 38FA FD 36 80 7F FD 23
04372   38FA FD36807FFD23
04373   3900                     ldi  (iy+-128),255      ; 3900 FD 36 80 FF FD 23
04373   3900 FD3680FFFD23
04374   3906                     LDI  (IY+-128),255      ; 3906 FD 36 80 FF FD 23
04374   3906 FD3680FFFD23
04375   390C                     ldi  (iy+-1),-128       ; 390C FD 36 FF 80 FD 23
04375   390C FD36FF80FD23
04376   3912                     LDI  (IY+-1),-128       ; 3912 FD 36 FF 80 FD 23
04376   3912 FD36FF80FD23
04377   3918                     ldi  (iy+-1),-1         ; 3918 FD 36 FF FF FD 23
04377   3918 FD36FFFFFD23
04378   391E                     LDI  (IY+-1),-1         ; 391E FD 36 FF FF FD 23
04378   391E FD36FFFFFD23
04379   3924                     ldi  (iy+-1),0          ; 3924 FD 36 FF 00 FD 23
04379   3924 FD36FF00FD23
04380   392A                     LDI  (IY+-1),0          ; 392A FD 36 FF 00 FD 23
04380   392A FD36FF00FD23
04381   3930                     ldi  (iy+-1),127        ; 3930 FD 36 FF 7F FD 23
04381   3930 FD36FF7FFD23
04382   3936                     LDI  (IY+-1),127        ; 3936 FD 36 FF 7F FD 23
04382   3936 FD36FF7FFD23
04383   393C                     ldi  (iy+-1),255        ; 393C FD 36 FF FF FD 23
04383   393C FD36FFFFFD23
04384   3942                     LDI  (IY+-1),255        ; 3942 FD 36 FF FF FD 23
04384   3942 FD36FFFFFD23
04385   3948                     ldi  (iy+0),-128        ; 3948 FD 36 00 80 FD 23
04385   3948 FD360080FD23
04386   394E                     LDI  (IY+0),-128        ; 394E FD 36 00 80 FD 23
04386   394E FD360080FD23
04387   3954                     ldi  (iy+0),-1          ; 3954 FD 36 00 FF FD 23
04387   3954 FD3600FFFD23
04388   395A                     LDI  (IY+0),-1          ; 395A FD 36 00 FF FD 23
04388   395A FD3600FFFD23
04389   3960                     ldi  (iy+0),0           ; 3960 FD 36 00 00 FD 23
04389   3960 FD360000FD23
04390   3966                     LDI  (IY+0),0           ; 3966 FD 36 00 00 FD 23
04390   3966 FD360000FD23
04391   396C                     ldi  (iy+0),127         ; 396C FD 36 00 7F FD 23
04391   396C FD36007FFD23
04392   3972                     LDI  (IY+0),127         ; 3972 FD 36 00 7F FD 23
04392   3972 FD36007FFD23
04393   3978                     ldi  (iy+0),255         ; 3978 FD 36 00 FF FD 23
04393   3978 FD3600FFFD23
04394   397E                     LDI  (IY+0),255         ; 397E FD 36 00 FF FD 23
04394   397E FD3600FFFD23
04395   3984                     ldi  (iy+127),-128      ; 3984 FD 36 7F 80 FD 23
04395   3984 FD367F80FD23
04396   398A                     LDI  (IY+127),-128      ; 398A FD 36 7F 80 FD 23
04396   398A FD367F80FD23
04397   3990                     ldi  (iy+127),-1        ; 3990 FD 36 7F FF FD 23
04397   3990 FD367FFFFD23
04398   3996                     LDI  (IY+127),-1        ; 3996 FD 36 7F FF FD 23
04398   3996 FD367FFFFD23
04399   399C                     ldi  (iy+127),0         ; 399C FD 36 7F 00 FD 23
04399   399C FD367F00FD23
04400   39A2                     LDI  (IY+127),0         ; 39A2 FD 36 7F 00 FD 23
04400   39A2 FD367F00FD23
04401   39A8                     ldi  (iy+127),127       ; 39A8 FD 36 7F 7F FD 23
04401   39A8 FD367F7FFD23
04402   39AE                     LDI  (IY+127),127       ; 39AE FD 36 7F 7F FD 23
04402   39AE FD367F7FFD23
04403   39B4                     ldi  (iy+127),255       ; 39B4 FD 36 7F FF FD 23
04403   39B4 FD367FFFFD23
04404   39BA                     LDI  (IY+127),255       ; 39BA FD 36 7F FF FD 23
04404   39BA FD367FFFFD23
04405   39C0 FD7780FD23          ldi  (iy+-128),a        ; 39C0 FD 77 80 FD 23
04406   39C5 FD7780FD23          LDI  (IY+-128),A        ; 39C5 FD 77 80 FD 23
04407   39CA FD77FFFD23          ldi  (iy+-1),a          ; 39CA FD 77 FF FD 23
04408   39CF FD77FFFD23          LDI  (IY+-1),A          ; 39CF FD 77 FF FD 23
04409   39D4 FD7700FD23          ldi  (iy+0),a           ; 39D4 FD 77 00 FD 23
04410   39D9 FD7700FD23          LDI  (IY+0),A           ; 39D9 FD 77 00 FD 23
04411   39DE FD777FFD23          ldi  (iy+127),a         ; 39DE FD 77 7F FD 23
04412   39E3 FD777FFD23          LDI  (IY+127),A         ; 39E3 FD 77 7F FD 23
04413   39E8 FD7080FD23          ldi  (iy+-128),b        ; 39E8 FD 70 80 FD 23
04414   39ED FD7080FD23          LDI  (IY+-128),B        ; 39ED FD 70 80 FD 23
04415   39F2 FD70FFFD23          ldi  (iy+-1),b          ; 39F2 FD 70 FF FD 23
04416   39F7 FD70FFFD23          LDI  (IY+-1),B          ; 39F7 FD 70 FF FD 23
04417   39FC FD7000FD23          ldi  (iy+0),b           ; 39FC FD 70 00 FD 23
04418   3A01 FD7000FD23          LDI  (IY+0),B           ; 3A01 FD 70 00 FD 23
04419   3A06 FD707FFD23          ldi  (iy+127),b         ; 3A06 FD 70 7F FD 23
04420   3A0B FD707FFD23          LDI  (IY+127),B         ; 3A0B FD 70 7F FD 23
04421   3A10                     ldi  (iy+-128),bc       ; 3A10 FD 71 80 FD 23 FD 70 80 FD 23
04421   3A10 FD7180FD23FD7080FD23
04422   3A1A                     LDI  (IY+-128),BC       ; 3A1A FD 71 80 FD 23 FD 70 80 FD 23
04422   3A1A FD7180FD23FD7080FD23
04423   3A24                     ldi  (iy+-1),bc         ; 3A24 FD 71 FF FD 23 FD 70 FF FD 23
04423   3A24 FD71FFFD23FD70FFFD23
04424   3A2E                     LDI  (IY+-1),BC         ; 3A2E FD 71 FF FD 23 FD 70 FF FD 23
04424   3A2E FD71FFFD23FD70FFFD23
04425   3A38                     ldi  (iy+0),bc          ; 3A38 FD 71 00 FD 23 FD 70 00 FD 23
04425   3A38 FD7100FD23FD7000FD23
04426   3A42                     LDI  (IY+0),BC          ; 3A42 FD 71 00 FD 23 FD 70 00 FD 23
04426   3A42 FD7100FD23FD7000FD23
04427   3A4C                     ldi  (iy+126),bc        ; 3A4C FD 71 7E FD 23 FD 70 7E FD 23
04427   3A4C FD717EFD23FD707EFD23
04428   3A56                     LDI  (IY+126),BC        ; 3A56 FD 71 7E FD 23 FD 70 7E FD 23
04428   3A56 FD717EFD23FD707EFD23
04429   3A60 FD7180FD23          ldi  (iy+-128),c        ; 3A60 FD 71 80 FD 23
04430   3A65 FD7180FD23          LDI  (IY+-128),C        ; 3A65 FD 71 80 FD 23
04431   3A6A FD71FFFD23          ldi  (iy+-1),c          ; 3A6A FD 71 FF FD 23
04432   3A6F FD71FFFD23          LDI  (IY+-1),C          ; 3A6F FD 71 FF FD 23
04433   3A74 FD7100FD23          ldi  (iy+0),c           ; 3A74 FD 71 00 FD 23
04434   3A79 FD7100FD23          LDI  (IY+0),C           ; 3A79 FD 71 00 FD 23
04435   3A7E FD717FFD23          ldi  (iy+127),c         ; 3A7E FD 71 7F FD 23
04436   3A83 FD717FFD23          LDI  (IY+127),C         ; 3A83 FD 71 7F FD 23
04437   3A88 FD7280FD23          ldi  (iy+-128),d        ; 3A88 FD 72 80 FD 23
04438   3A8D FD7280FD23          LDI  (IY+-128),D        ; 3A8D FD 72 80 FD 23
04439   3A92 FD72FFFD23          ldi  (iy+-1),d          ; 3A92 FD 72 FF FD 23
04440   3A97 FD72FFFD23          LDI  (IY+-1),D          ; 3A97 FD 72 FF FD 23
04441   3A9C FD7200FD23          ldi  (iy+0),d           ; 3A9C FD 72 00 FD 23
04442   3AA1 FD7200FD23          LDI  (IY+0),D           ; 3AA1 FD 72 00 FD 23
04443   3AA6 FD727FFD23          ldi  (iy+127),d         ; 3AA6 FD 72 7F FD 23
04444   3AAB FD727FFD23          LDI  (IY+127),D         ; 3AAB FD 72 7F FD 23
04445   3AB0                     ldi  (iy+-128),de       ; 3AB0 FD 73 80 FD 23 FD 72 80 FD 23
04445   3AB0 FD7380FD23FD7280FD23
04446   3ABA                     LDI  (IY+-128),DE       ; 3ABA FD 73 80 FD 23 FD 72 80 FD 23
04446   3ABA FD7380FD23FD7280FD23
04447   3AC4                     ldi  (iy+-1),de         ; 3AC4 FD 73 FF FD 23 FD 72 FF FD 23
04447   3AC4 FD73FFFD23FD72FFFD23
04448   3ACE                     LDI  (IY+-1),DE         ; 3ACE FD 73 FF FD 23 FD 72 FF FD 23
04448   3ACE FD73FFFD23FD72FFFD23
04449   3AD8                     ldi  (iy+0),de          ; 3AD8 FD 73 00 FD 23 FD 72 00 FD 23
04449   3AD8 FD7300FD23FD7200FD23
04450   3AE2                     LDI  (IY+0),DE          ; 3AE2 FD 73 00 FD 23 FD 72 00 FD 23
04450   3AE2 FD7300FD23FD7200FD23
04451   3AEC                     ldi  (iy+126),de        ; 3AEC FD 73 7E FD 23 FD 72 7E FD 23
04451   3AEC FD737EFD23FD727EFD23
04452   3AF6                     LDI  (IY+126),DE        ; 3AF6 FD 73 7E FD 23 FD 72 7E FD 23
04452   3AF6 FD737EFD23FD727EFD23
04453   3B00 FD7380FD23          ldi  (iy+-128),e        ; 3B00 FD 73 80 FD 23
04454   3B05 FD7380FD23          LDI  (IY+-128),E        ; 3B05 FD 73 80 FD 23
04455   3B0A FD73FFFD23          ldi  (iy+-1),e          ; 3B0A FD 73 FF FD 23
04456   3B0F FD73FFFD23          LDI  (IY+-1),E          ; 3B0F FD 73 FF FD 23
04457   3B14 FD7300FD23          ldi  (iy+0),e           ; 3B14 FD 73 00 FD 23
04458   3B19 FD7300FD23          LDI  (IY+0),E           ; 3B19 FD 73 00 FD 23
04459   3B1E FD737FFD23          ldi  (iy+127),e         ; 3B1E FD 73 7F FD 23
04460   3B23 FD737FFD23          LDI  (IY+127),E         ; 3B23 FD 73 7F FD 23
04461   3B28 FD7480FD23          ldi  (iy+-128),h        ; 3B28 FD 74 80 FD 23
04462   3B2D FD7480FD23          LDI  (IY+-128),H        ; 3B2D FD 74 80 FD 23
04463   3B32 FD74FFFD23          ldi  (iy+-1),h          ; 3B32 FD 74 FF FD 23
04464   3B37 FD74FFFD23          LDI  (IY+-1),H          ; 3B37 FD 74 FF FD 23
04465   3B3C FD7400FD23          ldi  (iy+0),h           ; 3B3C FD 74 00 FD 23
04466   3B41 FD7400FD23          LDI  (IY+0),H           ; 3B41 FD 74 00 FD 23
04467   3B46 FD747FFD23          ldi  (iy+127),h         ; 3B46 FD 74 7F FD 23
04468   3B4B FD747FFD23          LDI  (IY+127),H         ; 3B4B FD 74 7F FD 23
04469   3B50                     ldi  (iy+-128),hl       ; 3B50 FD 75 80 FD 23 FD 74 80 FD 23
04469   3B50 FD7580FD23FD7480FD23
04470   3B5A                     LDI  (IY+-128),HL       ; 3B5A FD 75 80 FD 23 FD 74 80 FD 23
04470   3B5A FD7580FD23FD7480FD23
04471   3B64                     ldi  (iy+-1),hl         ; 3B64 FD 75 FF FD 23 FD 74 FF FD 23
04471   3B64 FD75FFFD23FD74FFFD23
04472   3B6E                     LDI  (IY+-1),HL         ; 3B6E FD 75 FF FD 23 FD 74 FF FD 23
04472   3B6E FD75FFFD23FD74FFFD23
04473   3B78                     ldi  (iy+0),hl          ; 3B78 FD 75 00 FD 23 FD 74 00 FD 23
04473   3B78 FD7500FD23FD7400FD23
04474   3B82                     LDI  (IY+0),HL          ; 3B82 FD 75 00 FD 23 FD 74 00 FD 23
04474   3B82 FD7500FD23FD7400FD23
04475   3B8C                     ldi  (iy+126),hl        ; 3B8C FD 75 7E FD 23 FD 74 7E FD 23
04475   3B8C FD757EFD23FD747EFD23
04476   3B96                     LDI  (IY+126),HL        ; 3B96 FD 75 7E FD 23 FD 74 7E FD 23
04476   3B96 FD757EFD23FD747EFD23
04477   3BA0 FD7580FD23          ldi  (iy+-128),l        ; 3BA0 FD 75 80 FD 23
04478   3BA5 FD7580FD23          LDI  (IY+-128),L        ; 3BA5 FD 75 80 FD 23
04479   3BAA FD75FFFD23          ldi  (iy+-1),l          ; 3BAA FD 75 FF FD 23
04480   3BAF FD75FFFD23          LDI  (IY+-1),L          ; 3BAF FD 75 FF FD 23
04481   3BB4 FD7500FD23          ldi  (iy+0),l           ; 3BB4 FD 75 00 FD 23
04482   3BB9 FD7500FD23          LDI  (IY+0),L           ; 3BB9 FD 75 00 FD 23
04483   3BBE FD757FFD23          ldi  (iy+127),l         ; 3BBE FD 75 7F FD 23
04484   3BC3 FD757FFD23          LDI  (IY+127),L         ; 3BC3 FD 75 7F FD 23
04485   3BC8 02 03               ldi  [bc],a             ; 3BC8 02 03
04486   3BCA 02 03               LDI  [BC],A             ; 3BCA 02 03
04487   3BCC 12 13               ldi  [de],a             ; 3BCC 12 13
04488   3BCE 12 13               LDI  [DE],A             ; 3BCE 12 13
04489   3BD0 36 80 23            ldi  [hl],-128          ; 3BD0 36 80 23
04490   3BD3 36 80 23            LDI  [HL],-128          ; 3BD3 36 80 23
04491   3BD6 36 FF 23            ldi  [hl],-1            ; 3BD6 36 FF 23
04492   3BD9 36 FF 23            LDI  [HL],-1            ; 3BD9 36 FF 23
04493   3BDC 36 00 23            ldi  [hl],0             ; 3BDC 36 00 23
04494   3BDF 36 00 23            LDI  [HL],0             ; 3BDF 36 00 23
04495   3BE2 36 7F 23            ldi  [hl],127           ; 3BE2 36 7F 23
04496   3BE5 36 7F 23            LDI  [HL],127           ; 3BE5 36 7F 23
04497   3BE8 36 FF 23            ldi  [hl],255           ; 3BE8 36 FF 23
04498   3BEB 36 FF 23            LDI  [HL],255           ; 3BEB 36 FF 23
04499   3BEE 77 23               ldi  [hl],a             ; 3BEE 77 23
04500   3BF0 77 23               LDI  [HL],A             ; 3BF0 77 23
04501   3BF2 70 23               ldi  [hl],b             ; 3BF2 70 23
04502   3BF4 70 23               LDI  [HL],B             ; 3BF4 70 23
04503   3BF6 71 23 70 23         ldi  [hl],bc            ; 3BF6 71 23 70 23
04504   3BFA 71 23 70 23         LDI  [HL],BC            ; 3BFA 71 23 70 23
04505   3BFE 71 23               ldi  [hl],c             ; 3BFE 71 23
04506   3C00 71 23               LDI  [HL],C             ; 3C00 71 23
04507   3C02 72 23               ldi  [hl],d             ; 3C02 72 23
04508   3C04 72 23               LDI  [HL],D             ; 3C04 72 23
04509   3C06 73 23 72 23         ldi  [hl],de            ; 3C06 73 23 72 23
04510   3C0A 73 23 72 23         LDI  [HL],DE            ; 3C0A 73 23 72 23
04511   3C0E 73 23               ldi  [hl],e             ; 3C0E 73 23
04512   3C10 73 23               LDI  [HL],E             ; 3C10 73 23
04513   3C12 74 23               ldi  [hl],h             ; 3C12 74 23
04514   3C14 74 23               LDI  [HL],H             ; 3C14 74 23
04515   3C16 75 23               ldi  [hl],l             ; 3C16 75 23
04516   3C18 75 23               LDI  [HL],L             ; 3C18 75 23
04517   3C1A                     ldi  [ix+-128],-128     ; 3C1A DD 36 80 80 DD 23
04517   3C1A DD368080DD23
04518   3C20                     LDI  [IX+-128],-128     ; 3C20 DD 36 80 80 DD 23
04518   3C20 DD368080DD23
04519   3C26                     ldi  [ix+-128],-1       ; 3C26 DD 36 80 FF DD 23
04519   3C26 DD3680FFDD23
04520   3C2C                     LDI  [IX+-128],-1       ; 3C2C DD 36 80 FF DD 23
04520   3C2C DD3680FFDD23
04521   3C32                     ldi  [ix+-128],0        ; 3C32 DD 36 80 00 DD 23
04521   3C32 DD368000DD23
04522   3C38                     LDI  [IX+-128],0        ; 3C38 DD 36 80 00 DD 23
04522   3C38 DD368000DD23
04523   3C3E                     ldi  [ix+-128],127      ; 3C3E DD 36 80 7F DD 23
04523   3C3E DD36807FDD23
04524   3C44                     LDI  [IX+-128],127      ; 3C44 DD 36 80 7F DD 23
04524   3C44 DD36807FDD23
04525   3C4A                     ldi  [ix+-128],255      ; 3C4A DD 36 80 FF DD 23
04525   3C4A DD3680FFDD23
04526   3C50                     LDI  [IX+-128],255      ; 3C50 DD 36 80 FF DD 23
04526   3C50 DD3680FFDD23
04527   3C56                     ldi  [ix+-1],-128       ; 3C56 DD 36 FF 80 DD 23
04527   3C56 DD36FF80DD23
04528   3C5C                     LDI  [IX+-1],-128       ; 3C5C DD 36 FF 80 DD 23
04528   3C5C DD36FF80DD23
04529   3C62                     ldi  [ix+-1],-1         ; 3C62 DD 36 FF FF DD 23
04529   3C62 DD36FFFFDD23
04530   3C68                     LDI  [IX+-1],-1         ; 3C68 DD 36 FF FF DD 23
04530   3C68 DD36FFFFDD23
04531   3C6E                     ldi  [ix+-1],0          ; 3C6E DD 36 FF 00 DD 23
04531   3C6E DD36FF00DD23
04532   3C74                     LDI  [IX+-1],0          ; 3C74 DD 36 FF 00 DD 23
04532   3C74 DD36FF00DD23
04533   3C7A                     ldi  [ix+-1],127        ; 3C7A DD 36 FF 7F DD 23
04533   3C7A DD36FF7FDD23
04534   3C80                     LDI  [IX+-1],127        ; 3C80 DD 36 FF 7F DD 23
04534   3C80 DD36FF7FDD23
04535   3C86                     ldi  [ix+-1],255        ; 3C86 DD 36 FF FF DD 23
04535   3C86 DD36FFFFDD23
04536   3C8C                     LDI  [IX+-1],255        ; 3C8C DD 36 FF FF DD 23
04536   3C8C DD36FFFFDD23
04537   3C92                     ldi  [ix+0],-128        ; 3C92 DD 36 00 80 DD 23
04537   3C92 DD360080DD23
04538   3C98                     LDI  [IX+0],-128        ; 3C98 DD 36 00 80 DD 23
04538   3C98 DD360080DD23
04539   3C9E                     ldi  [ix+0],-1          ; 3C9E DD 36 00 FF DD 23
04539   3C9E DD3600FFDD23
04540   3CA4                     LDI  [IX+0],-1          ; 3CA4 DD 36 00 FF DD 23
04540   3CA4 DD3600FFDD23
04541   3CAA                     ldi  [ix+0],0           ; 3CAA DD 36 00 00 DD 23
04541   3CAA DD360000DD23
04542   3CB0                     LDI  [IX+0],0           ; 3CB0 DD 36 00 00 DD 23
04542   3CB0 DD360000DD23
04543   3CB6                     ldi  [ix+0],127         ; 3CB6 DD 36 00 7F DD 23
04543   3CB6 DD36007FDD23
04544   3CBC                     LDI  [IX+0],127         ; 3CBC DD 36 00 7F DD 23
04544   3CBC DD36007FDD23
04545   3CC2                     ldi  [ix+0],255         ; 3CC2 DD 36 00 FF DD 23
04545   3CC2 DD3600FFDD23
04546   3CC8                     LDI  [IX+0],255         ; 3CC8 DD 36 00 FF DD 23
04546   3CC8 DD3600FFDD23
04547   3CCE                     ldi  [ix+127],-128      ; 3CCE DD 36 7F 80 DD 23
04547   3CCE DD367F80DD23
04548   3CD4                     LDI  [IX+127],-128      ; 3CD4 DD 36 7F 80 DD 23
04548   3CD4 DD367F80DD23
04549   3CDA                     ldi  [ix+127],-1        ; 3CDA DD 36 7F FF DD 23
04549   3CDA DD367FFFDD23
04550   3CE0                     LDI  [IX+127],-1        ; 3CE0 DD 36 7F FF DD 23
04550   3CE0 DD367FFFDD23
04551   3CE6                     ldi  [ix+127],0         ; 3CE6 DD 36 7F 00 DD 23
04551   3CE6 DD367F00DD23
04552   3CEC                     LDI  [IX+127],0         ; 3CEC DD 36 7F 00 DD 23
04552   3CEC DD367F00DD23
04553   3CF2                     ldi  [ix+127],127       ; 3CF2 DD 36 7F 7F DD 23
04553   3CF2 DD367F7FDD23
04554   3CF8                     LDI  [IX+127],127       ; 3CF8 DD 36 7F 7F DD 23
04554   3CF8 DD367F7FDD23
04555   3CFE                     ldi  [ix+127],255       ; 3CFE DD 36 7F FF DD 23
04555   3CFE DD367FFFDD23
04556   3D04                     LDI  [IX+127],255       ; 3D04 DD 36 7F FF DD 23
04556   3D04 DD367FFFDD23
04557   3D0A DD7780DD23          ldi  [ix+-128],a        ; 3D0A DD 77 80 DD 23
04558   3D0F DD7780DD23          LDI  [IX+-128],A        ; 3D0F DD 77 80 DD 23
04559   3D14 DD77FFDD23          ldi  [ix+-1],a          ; 3D14 DD 77 FF DD 23
04560   3D19 DD77FFDD23          LDI  [IX+-1],A          ; 3D19 DD 77 FF DD 23
04561   3D1E DD7700DD23          ldi  [ix+0],a           ; 3D1E DD 77 00 DD 23
04562   3D23 DD7700DD23          LDI  [IX+0],A           ; 3D23 DD 77 00 DD 23
04563   3D28 DD777FDD23          ldi  [ix+127],a         ; 3D28 DD 77 7F DD 23
04564   3D2D DD777FDD23          LDI  [IX+127],A         ; 3D2D DD 77 7F DD 23
04565   3D32 DD7080DD23          ldi  [ix+-128],b        ; 3D32 DD 70 80 DD 23
04566   3D37 DD7080DD23          LDI  [IX+-128],B        ; 3D37 DD 70 80 DD 23
04567   3D3C DD70FFDD23          ldi  [ix+-1],b          ; 3D3C DD 70 FF DD 23
04568   3D41 DD70FFDD23          LDI  [IX+-1],B          ; 3D41 DD 70 FF DD 23
04569   3D46 DD7000DD23          ldi  [ix+0],b           ; 3D46 DD 70 00 DD 23
04570   3D4B DD7000DD23          LDI  [IX+0],B           ; 3D4B DD 70 00 DD 23
04571   3D50 DD707FDD23          ldi  [ix+127],b         ; 3D50 DD 70 7F DD 23
04572   3D55 DD707FDD23          LDI  [IX+127],B         ; 3D55 DD 70 7F DD 23
04573   3D5A                     ldi  [ix+-128],bc       ; 3D5A DD 71 80 DD 23 DD 70 80 DD 23
04573   3D5A DD7180DD23DD7080DD23
04574   3D64                     LDI  [IX+-128],BC       ; 3D64 DD 71 80 DD 23 DD 70 80 DD 23
04574   3D64 DD7180DD23DD7080DD23
04575   3D6E                     ldi  [ix+-1],bc         ; 3D6E DD 71 FF DD 23 DD 70 FF DD 23
04575   3D6E DD71FFDD23DD70FFDD23
04576   3D78                     LDI  [IX+-1],BC         ; 3D78 DD 71 FF DD 23 DD 70 FF DD 23
04576   3D78 DD71FFDD23DD70FFDD23
04577   3D82                     ldi  [ix+0],bc          ; 3D82 DD 71 00 DD 23 DD 70 00 DD 23
04577   3D82 DD7100DD23DD7000DD23
04578   3D8C                     LDI  [IX+0],BC          ; 3D8C DD 71 00 DD 23 DD 70 00 DD 23
04578   3D8C DD7100DD23DD7000DD23
04579   3D96                     ldi  [ix+126],bc        ; 3D96 DD 71 7E DD 23 DD 70 7E DD 23
04579   3D96 DD717EDD23DD707EDD23
04580   3DA0                     LDI  [IX+126],BC        ; 3DA0 DD 71 7E DD 23 DD 70 7E DD 23
04580   3DA0 DD717EDD23DD707EDD23
04581   3DAA DD7180DD23          ldi  [ix+-128],c        ; 3DAA DD 71 80 DD 23
04582   3DAF DD7180DD23          LDI  [IX+-128],C        ; 3DAF DD 71 80 DD 23
04583   3DB4 DD71FFDD23          ldi  [ix+-1],c          ; 3DB4 DD 71 FF DD 23
04584   3DB9 DD71FFDD23          LDI  [IX+-1],C          ; 3DB9 DD 71 FF DD 23
04585   3DBE DD7100DD23          ldi  [ix+0],c           ; 3DBE DD 71 00 DD 23
04586   3DC3 DD7100DD23          LDI  [IX+0],C           ; 3DC3 DD 71 00 DD 23
04587   3DC8 DD717FDD23          ldi  [ix+127],c         ; 3DC8 DD 71 7F DD 23
04588   3DCD DD717FDD23          LDI  [IX+127],C         ; 3DCD DD 71 7F DD 23
04589   3DD2 DD7280DD23          ldi  [ix+-128],d        ; 3DD2 DD 72 80 DD 23
04590   3DD7 DD7280DD23          LDI  [IX+-128],D        ; 3DD7 DD 72 80 DD 23
04591   3DDC DD72FFDD23          ldi  [ix+-1],d          ; 3DDC DD 72 FF DD 23
04592   3DE1 DD72FFDD23          LDI  [IX+-1],D          ; 3DE1 DD 72 FF DD 23
04593   3DE6 DD7200DD23          ldi  [ix+0],d           ; 3DE6 DD 72 00 DD 23
04594   3DEB DD7200DD23          LDI  [IX+0],D           ; 3DEB DD 72 00 DD 23
04595   3DF0 DD727FDD23          ldi  [ix+127],d         ; 3DF0 DD 72 7F DD 23
04596   3DF5 DD727FDD23          LDI  [IX+127],D         ; 3DF5 DD 72 7F DD 23
04597   3DFA                     ldi  [ix+-128],de       ; 3DFA DD 73 80 DD 23 DD 72 80 DD 23
04597   3DFA DD7380DD23DD7280DD23
04598   3E04                     LDI  [IX+-128],DE       ; 3E04 DD 73 80 DD 23 DD 72 80 DD 23
04598   3E04 DD7380DD23DD7280DD23
04599   3E0E                     ldi  [ix+-1],de         ; 3E0E DD 73 FF DD 23 DD 72 FF DD 23
04599   3E0E DD73FFDD23DD72FFDD23
04600   3E18                     LDI  [IX+-1],DE         ; 3E18 DD 73 FF DD 23 DD 72 FF DD 23
04600   3E18 DD73FFDD23DD72FFDD23
04601   3E22                     ldi  [ix+0],de          ; 3E22 DD 73 00 DD 23 DD 72 00 DD 23
04601   3E22 DD7300DD23DD7200DD23
04602   3E2C                     LDI  [IX+0],DE          ; 3E2C DD 73 00 DD 23 DD 72 00 DD 23
04602   3E2C DD7300DD23DD7200DD23
04603   3E36                     ldi  [ix+126],de        ; 3E36 DD 73 7E DD 23 DD 72 7E DD 23
04603   3E36 DD737EDD23DD727EDD23
04604   3E40                     LDI  [IX+126],DE        ; 3E40 DD 73 7E DD 23 DD 72 7E DD 23
04604   3E40 DD737EDD23DD727EDD23
04605   3E4A DD7380DD23          ldi  [ix+-128],e        ; 3E4A DD 73 80 DD 23
04606   3E4F DD7380DD23          LDI  [IX+-128],E        ; 3E4F DD 73 80 DD 23
04607   3E54 DD73FFDD23          ldi  [ix+-1],e          ; 3E54 DD 73 FF DD 23
04608   3E59 DD73FFDD23          LDI  [IX+-1],E          ; 3E59 DD 73 FF DD 23
04609   3E5E DD7300DD23          ldi  [ix+0],e           ; 3E5E DD 73 00 DD 23
04610   3E63 DD7300DD23          LDI  [IX+0],E           ; 3E63 DD 73 00 DD 23
04611   3E68 DD737FDD23          ldi  [ix+127],e         ; 3E68 DD 73 7F DD 23
04612   3E6D DD737FDD23          LDI  [IX+127],E         ; 3E6D DD 73 7F DD 23
04613   3E72 DD7480DD23          ldi  [ix+-128],h        ; 3E72 DD 74 80 DD 23
04614   3E77 DD7480DD23          LDI  [IX+-128],H        ; 3E77 DD 74 80 DD 23
04615   3E7C DD74FFDD23          ldi  [ix+-1],h          ; 3E7C DD 74 FF DD 23
04616   3E81 DD74FFDD23          LDI  [IX+-1],H          ; 3E81 DD 74 FF DD 23
04617   3E86 DD7400DD23          ldi  [ix+0],h           ; 3E86 DD 74 00 DD 23
04618   3E8B DD7400DD23          LDI  [IX+0],H           ; 3E8B DD 74 00 DD 23
04619   3E90 DD747FDD23          ldi  [ix+127],h         ; 3E90 DD 74 7F DD 23
04620   3E95 DD747FDD23          LDI  [IX+127],H         ; 3E95 DD 74 7F DD 23
04621   3E9A                     ldi  [ix+-128],hl       ; 3E9A DD 75 80 DD 23 DD 74 80 DD 23
04621   3E9A DD7580DD23DD7480DD23
04622   3EA4                     LDI  [IX+-128],HL       ; 3EA4 DD 75 80 DD 23 DD 74 80 DD 23
04622   3EA4 DD7580DD23DD7480DD23
04623   3EAE                     ldi  [ix+-1],hl         ; 3EAE DD 75 FF DD 23 DD 74 FF DD 23
04623   3EAE DD75FFDD23DD74FFDD23
04624   3EB8                     LDI  [IX+-1],HL         ; 3EB8 DD 75 FF DD 23 DD 74 FF DD 23
04624   3EB8 DD75FFDD23DD74FFDD23
04625   3EC2                     ldi  [ix+0],hl          ; 3EC2 DD 75 00 DD 23 DD 74 00 DD 23
04625   3EC2 DD7500DD23DD7400DD23
04626   3ECC                     LDI  [IX+0],HL          ; 3ECC DD 75 00 DD 23 DD 74 00 DD 23
04626   3ECC DD7500DD23DD7400DD23
04627   3ED6                     ldi  [ix+126],hl        ; 3ED6 DD 75 7E DD 23 DD 74 7E DD 23
04627   3ED6 DD757EDD23DD747EDD23
04628   3EE0                     LDI  [IX+126],HL        ; 3EE0 DD 75 7E DD 23 DD 74 7E DD 23
04628   3EE0 DD757EDD23DD747EDD23
04629   3EEA DD7580DD23          ldi  [ix+-128],l        ; 3EEA DD 75 80 DD 23
04630   3EEF DD7580DD23          LDI  [IX+-128],L        ; 3EEF DD 75 80 DD 23
04631   3EF4 DD75FFDD23          ldi  [ix+-1],l          ; 3EF4 DD 75 FF DD 23
04632   3EF9 DD75FFDD23          LDI  [IX+-1],L          ; 3EF9 DD 75 FF DD 23
04633   3EFE DD7500DD23          ldi  [ix+0],l           ; 3EFE DD 75 00 DD 23
04634   3F03 DD7500DD23          LDI  [IX+0],L           ; 3F03 DD 75 00 DD 23
04635   3F08 DD757FDD23          ldi  [ix+127],l         ; 3F08 DD 75 7F DD 23
04636   3F0D DD757FDD23          LDI  [IX+127],L         ; 3F0D DD 75 7F DD 23
04637   3F12                     ldi  [iy+-128],-128     ; 3F12 FD 36 80 80 FD 23
04637   3F12 FD368080FD23
04638   3F18                     LDI  [IY+-128],-128     ; 3F18 FD 36 80 80 FD 23
04638   3F18 FD368080FD23
04639   3F1E                     ldi  [iy+-128],-1       ; 3F1E FD 36 80 FF FD 23
04639   3F1E FD3680FFFD23
04640   3F24                     LDI  [IY+-128],-1       ; 3F24 FD 36 80 FF FD 23
04640   3F24 FD3680FFFD23
04641   3F2A                     ldi  [iy+-128],0        ; 3F2A FD 36 80 00 FD 23
04641   3F2A FD368000FD23
04642   3F30                     LDI  [IY+-128],0        ; 3F30 FD 36 80 00 FD 23
04642   3F30 FD368000FD23
04643   3F36                     ldi  [iy+-128],127      ; 3F36 FD 36 80 7F FD 23
04643   3F36 FD36807FFD23
04644   3F3C                     LDI  [IY+-128],127      ; 3F3C FD 36 80 7F FD 23
04644   3F3C FD36807FFD23
04645   3F42                     ldi  [iy+-128],255      ; 3F42 FD 36 80 FF FD 23
04645   3F42 FD3680FFFD23
04646   3F48                     LDI  [IY+-128],255      ; 3F48 FD 36 80 FF FD 23
04646   3F48 FD3680FFFD23
04647   3F4E                     ldi  [iy+-1],-128       ; 3F4E FD 36 FF 80 FD 23
04647   3F4E FD36FF80FD23
04648   3F54                     LDI  [IY+-1],-128       ; 3F54 FD 36 FF 80 FD 23
04648   3F54 FD36FF80FD23
04649   3F5A                     ldi  [iy+-1],-1         ; 3F5A FD 36 FF FF FD 23
04649   3F5A FD36FFFFFD23
04650   3F60                     LDI  [IY+-1],-1         ; 3F60 FD 36 FF FF FD 23
04650   3F60 FD36FFFFFD23
04651   3F66                     ldi  [iy+-1],0          ; 3F66 FD 36 FF 00 FD 23
04651   3F66 FD36FF00FD23
04652   3F6C                     LDI  [IY+-1],0          ; 3F6C FD 36 FF 00 FD 23
04652   3F6C FD36FF00FD23
04653   3F72                     ldi  [iy+-1],127        ; 3F72 FD 36 FF 7F FD 23
04653   3F72 FD36FF7FFD23
04654   3F78                     LDI  [IY+-1],127        ; 3F78 FD 36 FF 7F FD 23
04654   3F78 FD36FF7FFD23
04655   3F7E                     ldi  [iy+-1],255        ; 3F7E FD 36 FF FF FD 23
04655   3F7E FD36FFFFFD23
04656   3F84                     LDI  [IY+-1],255        ; 3F84 FD 36 FF FF FD 23
04656   3F84 FD36FFFFFD23
04657   3F8A                     ldi  [iy+0],-128        ; 3F8A FD 36 00 80 FD 23
04657   3F8A FD360080FD23
04658   3F90                     LDI  [IY+0],-128        ; 3F90 FD 36 00 80 FD 23
04658   3F90 FD360080FD23
04659   3F96                     ldi  [iy+0],-1          ; 3F96 FD 36 00 FF FD 23
04659   3F96 FD3600FFFD23
04660   3F9C                     LDI  [IY+0],-1          ; 3F9C FD 36 00 FF FD 23
04660   3F9C FD3600FFFD23
04661   3FA2                     ldi  [iy+0],0           ; 3FA2 FD 36 00 00 FD 23
04661   3FA2 FD360000FD23
04662   3FA8                     LDI  [IY+0],0           ; 3FA8 FD 36 00 00 FD 23
04662   3FA8 FD360000FD23
04663   3FAE                     ldi  [iy+0],127         ; 3FAE FD 36 00 7F FD 23
04663   3FAE FD36007FFD23
04664   3FB4                     LDI  [IY+0],127         ; 3FB4 FD 36 00 7F FD 23
04664   3FB4 FD36007FFD23
04665   3FBA                     ldi  [iy+0],255         ; 3FBA FD 36 00 FF FD 23
04665   3FBA FD3600FFFD23
04666   3FC0                     LDI  [IY+0],255         ; 3FC0 FD 36 00 FF FD 23
04666   3FC0 FD3600FFFD23
04667   3FC6                     ldi  [iy+127],-128      ; 3FC6 FD 36 7F 80 FD 23
04667   3FC6 FD367F80FD23
04668   3FCC                     LDI  [IY+127],-128      ; 3FCC FD 36 7F 80 FD 23
04668   3FCC FD367F80FD23
04669   3FD2                     ldi  [iy+127],-1        ; 3FD2 FD 36 7F FF FD 23
04669   3FD2 FD367FFFFD23
04670   3FD8                     LDI  [IY+127],-1        ; 3FD8 FD 36 7F FF FD 23
04670   3FD8 FD367FFFFD23
04671   3FDE                     ldi  [iy+127],0         ; 3FDE FD 36 7F 00 FD 23
04671   3FDE FD367F00FD23
04672   3FE4                     LDI  [IY+127],0         ; 3FE4 FD 36 7F 00 FD 23
04672   3FE4 FD367F00FD23
04673   3FEA                     ldi  [iy+127],127       ; 3FEA FD 36 7F 7F FD 23
04673   3FEA FD367F7FFD23
04674   3FF0                     LDI  [IY+127],127       ; 3FF0 FD 36 7F 7F FD 23
04674   3FF0 FD367F7FFD23
04675   3FF6                     ldi  [iy+127],255       ; 3FF6 FD 36 7F FF FD 23
04675   3FF6 FD367FFFFD23
04676   3FFC                     LDI  [IY+127],255       ; 3FFC FD 36 7F FF FD 23
04676   3FFC FD367FFFFD23
04677   4002 FD7780FD23          ldi  [iy+-128],a        ; 4002 FD 77 80 FD 23
04678   4007 FD7780FD23          LDI  [IY+-128],A        ; 4007 FD 77 80 FD 23
04679   400C FD77FFFD23          ldi  [iy+-1],a          ; 400C FD 77 FF FD 23
04680   4011 FD77FFFD23          LDI  [IY+-1],A          ; 4011 FD 77 FF FD 23
04681   4016 FD7700FD23          ldi  [iy+0],a           ; 4016 FD 77 00 FD 23
04682   401B FD7700FD23          LDI  [IY+0],A           ; 401B FD 77 00 FD 23
04683   4020 FD777FFD23          ldi  [iy+127],a         ; 4020 FD 77 7F FD 23
04684   4025 FD777FFD23          LDI  [IY+127],A         ; 4025 FD 77 7F FD 23
04685   402A FD7080FD23          ldi  [iy+-128],b        ; 402A FD 70 80 FD 23
04686   402F FD7080FD23          LDI  [IY+-128],B        ; 402F FD 70 80 FD 23
04687   4034 FD70FFFD23          ldi  [iy+-1],b          ; 4034 FD 70 FF FD 23
04688   4039 FD70FFFD23          LDI  [IY+-1],B          ; 4039 FD 70 FF FD 23
04689   403E FD7000FD23          ldi  [iy+0],b           ; 403E FD 70 00 FD 23
04690   4043 FD7000FD23          LDI  [IY+0],B           ; 4043 FD 70 00 FD 23
04691   4048 FD707FFD23          ldi  [iy+127],b         ; 4048 FD 70 7F FD 23
04692   404D FD707FFD23          LDI  [IY+127],B         ; 404D FD 70 7F FD 23
04693   4052                     ldi  [iy+-128],bc       ; 4052 FD 71 80 FD 23 FD 70 80 FD 23
04693   4052 FD7180FD23FD7080FD23
04694   405C                     LDI  [IY+-128],BC       ; 405C FD 71 80 FD 23 FD 70 80 FD 23
04694   405C FD7180FD23FD7080FD23
04695   4066                     ldi  [iy+-1],bc         ; 4066 FD 71 FF FD 23 FD 70 FF FD 23
04695   4066 FD71FFFD23FD70FFFD23
04696   4070                     LDI  [IY+-1],BC         ; 4070 FD 71 FF FD 23 FD 70 FF FD 23
04696   4070 FD71FFFD23FD70FFFD23
04697   407A                     ldi  [iy+0],bc          ; 407A FD 71 00 FD 23 FD 70 00 FD 23
04697   407A FD7100FD23FD7000FD23
04698   4084                     LDI  [IY+0],BC          ; 4084 FD 71 00 FD 23 FD 70 00 FD 23
04698   4084 FD7100FD23FD7000FD23
04699   408E                     ldi  [iy+126],bc        ; 408E FD 71 7E FD 23 FD 70 7E FD 23
04699   408E FD717EFD23FD707EFD23
04700   4098                     LDI  [IY+126],BC        ; 4098 FD 71 7E FD 23 FD 70 7E FD 23
04700   4098 FD717EFD23FD707EFD23
04701   40A2 FD7180FD23          ldi  [iy+-128],c        ; 40A2 FD 71 80 FD 23
04702   40A7 FD7180FD23          LDI  [IY+-128],C        ; 40A7 FD 71 80 FD 23
04703   40AC FD71FFFD23          ldi  [iy+-1],c          ; 40AC FD 71 FF FD 23
04704   40B1 FD71FFFD23          LDI  [IY+-1],C          ; 40B1 FD 71 FF FD 23
04705   40B6 FD7100FD23          ldi  [iy+0],c           ; 40B6 FD 71 00 FD 23
04706   40BB FD7100FD23          LDI  [IY+0],C           ; 40BB FD 71 00 FD 23
04707   40C0 FD717FFD23          ldi  [iy+127],c         ; 40C0 FD 71 7F FD 23
04708   40C5 FD717FFD23          LDI  [IY+127],C         ; 40C5 FD 71 7F FD 23
04709   40CA FD7280FD23          ldi  [iy+-128],d        ; 40CA FD 72 80 FD 23
04710   40CF FD7280FD23          LDI  [IY+-128],D        ; 40CF FD 72 80 FD 23
04711   40D4 FD72FFFD23          ldi  [iy+-1],d          ; 40D4 FD 72 FF FD 23
04712   40D9 FD72FFFD23          LDI  [IY+-1],D          ; 40D9 FD 72 FF FD 23
04713   40DE FD7200FD23          ldi  [iy+0],d           ; 40DE FD 72 00 FD 23
04714   40E3 FD7200FD23          LDI  [IY+0],D           ; 40E3 FD 72 00 FD 23
04715   40E8 FD727FFD23          ldi  [iy+127],d         ; 40E8 FD 72 7F FD 23
04716   40ED FD727FFD23          LDI  [IY+127],D         ; 40ED FD 72 7F FD 23
04717   40F2                     ldi  [iy+-128],de       ; 40F2 FD 73 80 FD 23 FD 72 80 FD 23
04717   40F2 FD7380FD23FD7280FD23
04718   40FC                     LDI  [IY+-128],DE       ; 40FC FD 73 80 FD 23 FD 72 80 FD 23
04718   40FC FD7380FD23FD7280FD23
04719   4106                     ldi  [iy+-1],de         ; 4106 FD 73 FF FD 23 FD 72 FF FD 23
04719   4106 FD73FFFD23FD72FFFD23
04720   4110                     LDI  [IY+-1],DE         ; 4110 FD 73 FF FD 23 FD 72 FF FD 23
04720   4110 FD73FFFD23FD72FFFD23
04721   411A                     ldi  [iy+0],de          ; 411A FD 73 00 FD 23 FD 72 00 FD 23
04721   411A FD7300FD23FD7200FD23
04722   4124                     LDI  [IY+0],DE          ; 4124 FD 73 00 FD 23 FD 72 00 FD 23
04722   4124 FD7300FD23FD7200FD23
04723   412E                     ldi  [iy+126],de        ; 412E FD 73 7E FD 23 FD 72 7E FD 23
04723   412E FD737EFD23FD727EFD23
04724   4138                     LDI  [IY+126],DE        ; 4138 FD 73 7E FD 23 FD 72 7E FD 23
04724   4138 FD737EFD23FD727EFD23
04725   4142 FD7380FD23          ldi  [iy+-128],e        ; 4142 FD 73 80 FD 23
04726   4147 FD7380FD23          LDI  [IY+-128],E        ; 4147 FD 73 80 FD 23
04727   414C FD73FFFD23          ldi  [iy+-1],e          ; 414C FD 73 FF FD 23
04728   4151 FD73FFFD23          LDI  [IY+-1],E          ; 4151 FD 73 FF FD 23
04729   4156 FD7300FD23          ldi  [iy+0],e           ; 4156 FD 73 00 FD 23
04730   415B FD7300FD23          LDI  [IY+0],E           ; 415B FD 73 00 FD 23
04731   4160 FD737FFD23          ldi  [iy+127],e         ; 4160 FD 73 7F FD 23
04732   4165 FD737FFD23          LDI  [IY+127],E         ; 4165 FD 73 7F FD 23
04733   416A FD7480FD23          ldi  [iy+-128],h        ; 416A FD 74 80 FD 23
04734   416F FD7480FD23          LDI  [IY+-128],H        ; 416F FD 74 80 FD 23
04735   4174 FD74FFFD23          ldi  [iy+-1],h          ; 4174 FD 74 FF FD 23
04736   4179 FD74FFFD23          LDI  [IY+-1],H          ; 4179 FD 74 FF FD 23
04737   417E FD7400FD23          ldi  [iy+0],h           ; 417E FD 74 00 FD 23
04738   4183 FD7400FD23          LDI  [IY+0],H           ; 4183 FD 74 00 FD 23
04739   4188 FD747FFD23          ldi  [iy+127],h         ; 4188 FD 74 7F FD 23
04740   418D FD747FFD23          LDI  [IY+127],H         ; 418D FD 74 7F FD 23
04741   4192                     ldi  [iy+-128],hl       ; 4192 FD 75 80 FD 23 FD 74 80 FD 23
04741   4192 FD7580FD23FD7480FD23
04742   419C                     LDI  [IY+-128],HL       ; 419C FD 75 80 FD 23 FD 74 80 FD 23
04742   419C FD7580FD23FD7480FD23
04743   41A6                     ldi  [iy+-1],hl         ; 41A6 FD 75 FF FD 23 FD 74 FF FD 23
04743   41A6 FD75FFFD23FD74FFFD23
04744   41B0                     LDI  [IY+-1],HL         ; 41B0 FD 75 FF FD 23 FD 74 FF FD 23
04744   41B0 FD75FFFD23FD74FFFD23
04745   41BA                     ldi  [iy+0],hl          ; 41BA FD 75 00 FD 23 FD 74 00 FD 23
04745   41BA FD7500FD23FD7400FD23
04746   41C4                     LDI  [IY+0],HL          ; 41C4 FD 75 00 FD 23 FD 74 00 FD 23
04746   41C4 FD7500FD23FD7400FD23
04747   41CE                     ldi  [iy+126],hl        ; 41CE FD 75 7E FD 23 FD 74 7E FD 23
04747   41CE FD757EFD23FD747EFD23
04748   41D8                     LDI  [IY+126],HL        ; 41D8 FD 75 7E FD 23 FD 74 7E FD 23
04748   41D8 FD757EFD23FD747EFD23
04749   41E2 FD7580FD23          ldi  [iy+-128],l        ; 41E2 FD 75 80 FD 23
04750   41E7 FD7580FD23          LDI  [IY+-128],L        ; 41E7 FD 75 80 FD 23
04751   41EC FD75FFFD23          ldi  [iy+-1],l          ; 41EC FD 75 FF FD 23
04752   41F1 FD75FFFD23          LDI  [IY+-1],L          ; 41F1 FD 75 FF FD 23
04753   41F6 FD7500FD23          ldi  [iy+0],l           ; 41F6 FD 75 00 FD 23
04754   41FB FD7500FD23          LDI  [IY+0],L           ; 41FB FD 75 00 FD 23
04755   4200 FD757FFD23          ldi  [iy+127],l         ; 4200 FD 75 7F FD 23
04756   4205 FD757FFD23          LDI  [IY+127],L         ; 4205 FD 75 7F FD 23
04757   420A 0A 03               ldi  a,(bc)             ; 420A 0A 03
04758   420C 0A 03               LDI  A,(BC)             ; 420C 0A 03
04759   420E 1A 13               ldi  a,(de)             ; 420E 1A 13
04760   4210 1A 13               LDI  A,(DE)             ; 4210 1A 13
04761   4212 7E 23               ldi  a,(hl)             ; 4212 7E 23
04762   4214 7E 23               LDI  A,(HL)             ; 4214 7E 23
04763   4216 DD7E80DD23          ldi  a,(ix+-128)        ; 4216 DD 7E 80 DD 23
04764   421B DD7E80DD23          LDI  A,(IX+-128)        ; 421B DD 7E 80 DD 23
04765   4220 DD7EFFDD23          ldi  a,(ix+-1)          ; 4220 DD 7E FF DD 23
04766   4225 DD7EFFDD23          LDI  A,(IX+-1)          ; 4225 DD 7E FF DD 23
04767   422A DD7E00DD23          ldi  a,(ix+0)           ; 422A DD 7E 00 DD 23
04768   422F DD7E00DD23          LDI  A,(IX+0)           ; 422F DD 7E 00 DD 23
04769   4234 DD7E7FDD23          ldi  a,(ix+127)         ; 4234 DD 7E 7F DD 23
04770   4239 DD7E7FDD23          LDI  A,(IX+127)         ; 4239 DD 7E 7F DD 23
04771   423E FD7E80FD23          ldi  a,(iy+-128)        ; 423E FD 7E 80 FD 23
04772   4243 FD7E80FD23          LDI  A,(IY+-128)        ; 4243 FD 7E 80 FD 23
04773   4248 FD7EFFFD23          ldi  a,(iy+-1)          ; 4248 FD 7E FF FD 23
04774   424D FD7EFFFD23          LDI  A,(IY+-1)          ; 424D FD 7E FF FD 23
04775   4252 FD7E00FD23          ldi  a,(iy+0)           ; 4252 FD 7E 00 FD 23
04776   4257 FD7E00FD23          LDI  A,(IY+0)           ; 4257 FD 7E 00 FD 23
04777   425C FD7E7FFD23          ldi  a,(iy+127)         ; 425C FD 7E 7F FD 23
04778   4261 FD7E7FFD23          LDI  A,(IY+127)         ; 4261 FD 7E 7F FD 23
04779   4266 0A 03               ldi  a,[bc]             ; 4266 0A 03
04780   4268 0A 03               LDI  A,[BC]             ; 4268 0A 03
04781   426A 1A 13               ldi  a,[de]             ; 426A 1A 13
04782   426C 1A 13               LDI  A,[DE]             ; 426C 1A 13
04783   426E 7E 23               ldi  a,[hl]             ; 426E 7E 23
04784   4270 7E 23               LDI  A,[HL]             ; 4270 7E 23
04785   4272 DD7E80DD23          ldi  a,[ix+-128]        ; 4272 DD 7E 80 DD 23
04786   4277 DD7E80DD23          LDI  A,[IX+-128]        ; 4277 DD 7E 80 DD 23
04787   427C DD7EFFDD23          ldi  a,[ix+-1]          ; 427C DD 7E FF DD 23
04788   4281 DD7EFFDD23          LDI  A,[IX+-1]          ; 4281 DD 7E FF DD 23
04789   4286 DD7E00DD23          ldi  a,[ix+0]           ; 4286 DD 7E 00 DD 23
04790   428B DD7E00DD23          LDI  A,[IX+0]           ; 428B DD 7E 00 DD 23
04791   4290 DD7E7FDD23          ldi  a,[ix+127]         ; 4290 DD 7E 7F DD 23
04792   4295 DD7E7FDD23          LDI  A,[IX+127]         ; 4295 DD 7E 7F DD 23
04793   429A FD7E80FD23          ldi  a,[iy+-128]        ; 429A FD 7E 80 FD 23
04794   429F FD7E80FD23          LDI  A,[IY+-128]        ; 429F FD 7E 80 FD 23
04795   42A4 FD7EFFFD23          ldi  a,[iy+-1]          ; 42A4 FD 7E FF FD 23
04796   42A9 FD7EFFFD23          LDI  A,[IY+-1]          ; 42A9 FD 7E FF FD 23
04797   42AE FD7E00FD23          ldi  a,[iy+0]           ; 42AE FD 7E 00 FD 23
04798   42B3 FD7E00FD23          LDI  A,[IY+0]           ; 42B3 FD 7E 00 FD 23
04799   42B8 FD7E7FFD23          ldi  a,[iy+127]         ; 42B8 FD 7E 7F FD 23
04800   42BD FD7E7FFD23          LDI  A,[IY+127]         ; 42BD FD 7E 7F FD 23
04801   42C2 46 23               ldi  b,(hl)             ; 42C2 46 23
04802   42C4 46 23               LDI  B,(HL)             ; 42C4 46 23
04803   42C6 DD4680DD23          ldi  b,(ix+-128)        ; 42C6 DD 46 80 DD 23
04804   42CB DD4680DD23          LDI  B,(IX+-128)        ; 42CB DD 46 80 DD 23
04805   42D0 DD46FFDD23          ldi  b,(ix+-1)          ; 42D0 DD 46 FF DD 23
04806   42D5 DD46FFDD23          LDI  B,(IX+-1)          ; 42D5 DD 46 FF DD 23
04807   42DA DD4600DD23          ldi  b,(ix+0)           ; 42DA DD 46 00 DD 23
04808   42DF DD4600DD23          LDI  B,(IX+0)           ; 42DF DD 46 00 DD 23
04809   42E4 DD467FDD23          ldi  b,(ix+127)         ; 42E4 DD 46 7F DD 23
04810   42E9 DD467FDD23          LDI  B,(IX+127)         ; 42E9 DD 46 7F DD 23
04811   42EE FD4680FD23          ldi  b,(iy+-128)        ; 42EE FD 46 80 FD 23
04812   42F3 FD4680FD23          LDI  B,(IY+-128)        ; 42F3 FD 46 80 FD 23
04813   42F8 FD46FFFD23          ldi  b,(iy+-1)          ; 42F8 FD 46 FF FD 23
04814   42FD FD46FFFD23          LDI  B,(IY+-1)          ; 42FD FD 46 FF FD 23
04815   4302 FD4600FD23          ldi  b,(iy+0)           ; 4302 FD 46 00 FD 23
04816   4307 FD4600FD23          LDI  B,(IY+0)           ; 4307 FD 46 00 FD 23
04817   430C FD467FFD23          ldi  b,(iy+127)         ; 430C FD 46 7F FD 23
04818   4311 FD467FFD23          LDI  B,(IY+127)         ; 4311 FD 46 7F FD 23
04819   4316 46 23               ldi  b,[hl]             ; 4316 46 23
04820   4318 46 23               LDI  B,[HL]             ; 4318 46 23
04821   431A DD4680DD23          ldi  b,[ix+-128]        ; 431A DD 46 80 DD 23
04822   431F DD4680DD23          LDI  B,[IX+-128]        ; 431F DD 46 80 DD 23
04823   4324 DD46FFDD23          ldi  b,[ix+-1]          ; 4324 DD 46 FF DD 23
04824   4329 DD46FFDD23          LDI  B,[IX+-1]          ; 4329 DD 46 FF DD 23
04825   432E DD4600DD23          ldi  b,[ix+0]           ; 432E DD 46 00 DD 23
04826   4333 DD4600DD23          LDI  B,[IX+0]           ; 4333 DD 46 00 DD 23
04827   4338 DD467FDD23          ldi  b,[ix+127]         ; 4338 DD 46 7F DD 23
04828   433D DD467FDD23          LDI  B,[IX+127]         ; 433D DD 46 7F DD 23
04829   4342 FD4680FD23          ldi  b,[iy+-128]        ; 4342 FD 46 80 FD 23
04830   4347 FD4680FD23          LDI  B,[IY+-128]        ; 4347 FD 46 80 FD 23
04831   434C FD46FFFD23          ldi  b,[iy+-1]          ; 434C FD 46 FF FD 23
04832   4351 FD46FFFD23          LDI  B,[IY+-1]          ; 4351 FD 46 FF FD 23
04833   4356 FD4600FD23          ldi  b,[iy+0]           ; 4356 FD 46 00 FD 23
04834   435B FD4600FD23          LDI  B,[IY+0]           ; 435B FD 46 00 FD 23
04835   4360 FD467FFD23          ldi  b,[iy+127]         ; 4360 FD 46 7F FD 23
04836   4365 FD467FFD23          LDI  B,[IY+127]         ; 4365 FD 46 7F FD 23
04837   436A 4E 23 46 23         ldi  bc,(hl)            ; 436A 4E 23 46 23
04838   436E 4E 23 46 23         LDI  BC,(HL)            ; 436E 4E 23 46 23
04839   4372                     ldi  bc,(ix+-128)       ; 4372 DD 4E 80 DD 23 DD 46 80 DD 23
04839   4372 DD4E80DD23DD4680DD23
04840   437C                     LDI  BC,(IX+-128)       ; 437C DD 4E 80 DD 23 DD 46 80 DD 23
04840   437C DD4E80DD23DD4680DD23
04841   4386                     ldi  bc,(ix+-1)         ; 4386 DD 4E FF DD 23 DD 46 FF DD 23
04841   4386 DD4EFFDD23DD46FFDD23
04842   4390                     LDI  BC,(IX+-1)         ; 4390 DD 4E FF DD 23 DD 46 FF DD 23
04842   4390 DD4EFFDD23DD46FFDD23
04843   439A                     ldi  bc,(ix+0)          ; 439A DD 4E 00 DD 23 DD 46 00 DD 23
04843   439A DD4E00DD23DD4600DD23
04844   43A4                     LDI  BC,(IX+0)          ; 43A4 DD 4E 00 DD 23 DD 46 00 DD 23
04844   43A4 DD4E00DD23DD4600DD23
04845   43AE                     ldi  bc,(ix+126)        ; 43AE DD 4E 7E DD 23 DD 46 7E DD 23
04845   43AE DD4E7EDD23DD467EDD23
04846   43B8                     LDI  BC,(IX+126)        ; 43B8 DD 4E 7E DD 23 DD 46 7E DD 23
04846   43B8 DD4E7EDD23DD467EDD23
04847   43C2                     ldi  bc,(iy+-128)       ; 43C2 FD 4E 80 FD 23 FD 46 80 FD 23
04847   43C2 FD4E80FD23FD4680FD23
04848   43CC                     LDI  BC,(IY+-128)       ; 43CC FD 4E 80 FD 23 FD 46 80 FD 23
04848   43CC FD4E80FD23FD4680FD23
04849   43D6                     ldi  bc,(iy+-1)         ; 43D6 FD 4E FF FD 23 FD 46 FF FD 23
04849   43D6 FD4EFFFD23FD46FFFD23
04850   43E0                     LDI  BC,(IY+-1)         ; 43E0 FD 4E FF FD 23 FD 46 FF FD 23
04850   43E0 FD4EFFFD23FD46FFFD23
04851   43EA                     ldi  bc,(iy+0)          ; 43EA FD 4E 00 FD 23 FD 46 00 FD 23
04851   43EA FD4E00FD23FD4600FD23
04852   43F4                     LDI  BC,(IY+0)          ; 43F4 FD 4E 00 FD 23 FD 46 00 FD 23
04852   43F4 FD4E00FD23FD4600FD23
04853   43FE                     ldi  bc,(iy+126)        ; 43FE FD 4E 7E FD 23 FD 46 7E FD 23
04853   43FE FD4E7EFD23FD467EFD23
04854   4408                     LDI  BC,(IY+126)        ; 4408 FD 4E 7E FD 23 FD 46 7E FD 23
04854   4408 FD4E7EFD23FD467EFD23
04855   4412 4E 23 46 23         ldi  bc,[hl]            ; 4412 4E 23 46 23
04856   4416 4E 23 46 23         LDI  BC,[HL]            ; 4416 4E 23 46 23
04857   441A                     ldi  bc,[ix+-128]       ; 441A DD 4E 80 DD 23 DD 46 80 DD 23
04857   441A DD4E80DD23DD4680DD23
04858   4424                     LDI  BC,[IX+-128]       ; 4424 DD 4E 80 DD 23 DD 46 80 DD 23
04858   4424 DD4E80DD23DD4680DD23
04859   442E                     ldi  bc,[ix+-1]         ; 442E DD 4E FF DD 23 DD 46 FF DD 23
04859   442E DD4EFFDD23DD46FFDD23
04860   4438                     LDI  BC,[IX+-1]         ; 4438 DD 4E FF DD 23 DD 46 FF DD 23
04860   4438 DD4EFFDD23DD46FFDD23
04861   4442                     ldi  bc,[ix+0]          ; 4442 DD 4E 00 DD 23 DD 46 00 DD 23
04861   4442 DD4E00DD23DD4600DD23
04862   444C                     LDI  BC,[IX+0]          ; 444C DD 4E 00 DD 23 DD 46 00 DD 23
04862   444C DD4E00DD23DD4600DD23
04863   4456                     ldi  bc,[ix+126]        ; 4456 DD 4E 7E DD 23 DD 46 7E DD 23
04863   4456 DD4E7EDD23DD467EDD23
04864   4460                     LDI  BC,[IX+126]        ; 4460 DD 4E 7E DD 23 DD 46 7E DD 23
04864   4460 DD4E7EDD23DD467EDD23
04865   446A                     ldi  bc,[iy+-128]       ; 446A FD 4E 80 FD 23 FD 46 80 FD 23
04865   446A FD4E80FD23FD4680FD23
04866   4474                     LDI  BC,[IY+-128]       ; 4474 FD 4E 80 FD 23 FD 46 80 FD 23
04866   4474 FD4E80FD23FD4680FD23
04867   447E                     ldi  bc,[iy+-1]         ; 447E FD 4E FF FD 23 FD 46 FF FD 23
04867   447E FD4EFFFD23FD46FFFD23
04868   4488                     LDI  BC,[IY+-1]         ; 4488 FD 4E FF FD 23 FD 46 FF FD 23
04868   4488 FD4EFFFD23FD46FFFD23
04869   4492                     ldi  bc,[iy+0]          ; 4492 FD 4E 00 FD 23 FD 46 00 FD 23
04869   4492 FD4E00FD23FD4600FD23
04870   449C                     LDI  BC,[IY+0]          ; 449C FD 4E 00 FD 23 FD 46 00 FD 23
04870   449C FD4E00FD23FD4600FD23
04871   44A6                     ldi  bc,[iy+126]        ; 44A6 FD 4E 7E FD 23 FD 46 7E FD 23
04871   44A6 FD4E7EFD23FD467EFD23
04872   44B0                     LDI  BC,[IY+126]        ; 44B0 FD 4E 7E FD 23 FD 46 7E FD 23
04872   44B0 FD4E7EFD23FD467EFD23
04873   44BA 4E 23               ldi  c,(hl)             ; 44BA 4E 23
04874   44BC 4E 23               LDI  C,(HL)             ; 44BC 4E 23
04875   44BE DD4E80DD23          ldi  c,(ix+-128)        ; 44BE DD 4E 80 DD 23
04876   44C3 DD4E80DD23          LDI  C,(IX+-128)        ; 44C3 DD 4E 80 DD 23
04877   44C8 DD4EFFDD23          ldi  c,(ix+-1)          ; 44C8 DD 4E FF DD 23
04878   44CD DD4EFFDD23          LDI  C,(IX+-1)          ; 44CD DD 4E FF DD 23
04879   44D2 DD4E00DD23          ldi  c,(ix+0)           ; 44D2 DD 4E 00 DD 23
04880   44D7 DD4E00DD23          LDI  C,(IX+0)           ; 44D7 DD 4E 00 DD 23
04881   44DC DD4E7FDD23          ldi  c,(ix+127)         ; 44DC DD 4E 7F DD 23
04882   44E1 DD4E7FDD23          LDI  C,(IX+127)         ; 44E1 DD 4E 7F DD 23
04883   44E6 FD4E80FD23          ldi  c,(iy+-128)        ; 44E6 FD 4E 80 FD 23
04884   44EB FD4E80FD23          LDI  C,(IY+-128)        ; 44EB FD 4E 80 FD 23
04885   44F0 FD4EFFFD23          ldi  c,(iy+-1)          ; 44F0 FD 4E FF FD 23
04886   44F5 FD4EFFFD23          LDI  C,(IY+-1)          ; 44F5 FD 4E FF FD 23
04887   44FA FD4E00FD23          ldi  c,(iy+0)           ; 44FA FD 4E 00 FD 23
04888   44FF FD4E00FD23          LDI  C,(IY+0)           ; 44FF FD 4E 00 FD 23
04889   4504 FD4E7FFD23          ldi  c,(iy+127)         ; 4504 FD 4E 7F FD 23
04890   4509 FD4E7FFD23          LDI  C,(IY+127)         ; 4509 FD 4E 7F FD 23
04891   450E 4E 23               ldi  c,[hl]             ; 450E 4E 23
04892   4510 4E 23               LDI  C,[HL]             ; 4510 4E 23
04893   4512 DD4E80DD23          ldi  c,[ix+-128]        ; 4512 DD 4E 80 DD 23
04894   4517 DD4E80DD23          LDI  C,[IX+-128]        ; 4517 DD 4E 80 DD 23
04895   451C DD4EFFDD23          ldi  c,[ix+-1]          ; 451C DD 4E FF DD 23
04896   4521 DD4EFFDD23          LDI  C,[IX+-1]          ; 4521 DD 4E FF DD 23
04897   4526 DD4E00DD23          ldi  c,[ix+0]           ; 4526 DD 4E 00 DD 23
04898   452B DD4E00DD23          LDI  C,[IX+0]           ; 452B DD 4E 00 DD 23
04899   4530 DD4E7FDD23          ldi  c,[ix+127]         ; 4530 DD 4E 7F DD 23
04900   4535 DD4E7FDD23          LDI  C,[IX+127]         ; 4535 DD 4E 7F DD 23
04901   453A FD4E80FD23          ldi  c,[iy+-128]        ; 453A FD 4E 80 FD 23
04902   453F FD4E80FD23          LDI  C,[IY+-128]        ; 453F FD 4E 80 FD 23
04903   4544 FD4EFFFD23          ldi  c,[iy+-1]          ; 4544 FD 4E FF FD 23
04904   4549 FD4EFFFD23          LDI  C,[IY+-1]          ; 4549 FD 4E FF FD 23
04905   454E FD4E00FD23          ldi  c,[iy+0]           ; 454E FD 4E 00 FD 23
04906   4553 FD4E00FD23          LDI  C,[IY+0]           ; 4553 FD 4E 00 FD 23
04907   4558 FD4E7FFD23          ldi  c,[iy+127]         ; 4558 FD 4E 7F FD 23
04908   455D FD4E7FFD23          LDI  C,[IY+127]         ; 455D FD 4E 7F FD 23
04909   4562 56 23               ldi  d,(hl)             ; 4562 56 23
04910   4564 56 23               LDI  D,(HL)             ; 4564 56 23
04911   4566 DD5680DD23          ldi  d,(ix+-128)        ; 4566 DD 56 80 DD 23
04912   456B DD5680DD23          LDI  D,(IX+-128)        ; 456B DD 56 80 DD 23
04913   4570 DD56FFDD23          ldi  d,(ix+-1)          ; 4570 DD 56 FF DD 23
04914   4575 DD56FFDD23          LDI  D,(IX+-1)          ; 4575 DD 56 FF DD 23
04915   457A DD5600DD23          ldi  d,(ix+0)           ; 457A DD 56 00 DD 23
04916   457F DD5600DD23          LDI  D,(IX+0)           ; 457F DD 56 00 DD 23
04917   4584 DD567FDD23          ldi  d,(ix+127)         ; 4584 DD 56 7F DD 23
04918   4589 DD567FDD23          LDI  D,(IX+127)         ; 4589 DD 56 7F DD 23
04919   458E FD5680FD23          ldi  d,(iy+-128)        ; 458E FD 56 80 FD 23
04920   4593 FD5680FD23          LDI  D,(IY+-128)        ; 4593 FD 56 80 FD 23
04921   4598 FD56FFFD23          ldi  d,(iy+-1)          ; 4598 FD 56 FF FD 23
04922   459D FD56FFFD23          LDI  D,(IY+-1)          ; 459D FD 56 FF FD 23
04923   45A2 FD5600FD23          ldi  d,(iy+0)           ; 45A2 FD 56 00 FD 23
04924   45A7 FD5600FD23          LDI  D,(IY+0)           ; 45A7 FD 56 00 FD 23
04925   45AC FD567FFD23          ldi  d,(iy+127)         ; 45AC FD 56 7F FD 23
04926   45B1 FD567FFD23          LDI  D,(IY+127)         ; 45B1 FD 56 7F FD 23
04927   45B6 56 23               ldi  d,[hl]             ; 45B6 56 23
04928   45B8 56 23               LDI  D,[HL]             ; 45B8 56 23
04929   45BA DD5680DD23          ldi  d,[ix+-128]        ; 45BA DD 56 80 DD 23
04930   45BF DD5680DD23          LDI  D,[IX+-128]        ; 45BF DD 56 80 DD 23
04931   45C4 DD56FFDD23          ldi  d,[ix+-1]          ; 45C4 DD 56 FF DD 23
04932   45C9 DD56FFDD23          LDI  D,[IX+-1]          ; 45C9 DD 56 FF DD 23
04933   45CE DD5600DD23          ldi  d,[ix+0]           ; 45CE DD 56 00 DD 23
04934   45D3 DD5600DD23          LDI  D,[IX+0]           ; 45D3 DD 56 00 DD 23
04935   45D8 DD567FDD23          ldi  d,[ix+127]         ; 45D8 DD 56 7F DD 23
04936   45DD DD567FDD23          LDI  D,[IX+127]         ; 45DD DD 56 7F DD 23
04937   45E2 FD5680FD23          ldi  d,[iy+-128]        ; 45E2 FD 56 80 FD 23
04938   45E7 FD5680FD23          LDI  D,[IY+-128]        ; 45E7 FD 56 80 FD 23
04939   45EC FD56FFFD23          ldi  d,[iy+-1]          ; 45EC FD 56 FF FD 23
04940   45F1 FD56FFFD23          LDI  D,[IY+-1]          ; 45F1 FD 56 FF FD 23
04941   45F6 FD5600FD23          ldi  d,[iy+0]           ; 45F6 FD 56 00 FD 23
04942   45FB FD5600FD23          LDI  D,[IY+0]           ; 45FB FD 56 00 FD 23
04943   4600 FD567FFD23          ldi  d,[iy+127]         ; 4600 FD 56 7F FD 23
04944   4605 FD567FFD23          LDI  D,[IY+127]         ; 4605 FD 56 7F FD 23
04945   460A 5E 23 56 23         ldi  de,(hl)            ; 460A 5E 23 56 23
04946   460E 5E 23 56 23         LDI  DE,(HL)            ; 460E 5E 23 56 23
04947   4612                     ldi  de,(ix+-128)       ; 4612 DD 5E 80 DD 23 DD 56 80 DD 23
04947   4612 DD5E80DD23DD5680DD23
04948   461C                     LDI  DE,(IX+-128)       ; 461C DD 5E 80 DD 23 DD 56 80 DD 23
04948   461C DD5E80DD23DD5680DD23
04949   4626                     ldi  de,(ix+-1)         ; 4626 DD 5E FF DD 23 DD 56 FF DD 23
04949   4626 DD5EFFDD23DD56FFDD23
04950   4630                     LDI  DE,(IX+-1)         ; 4630 DD 5E FF DD 23 DD 56 FF DD 23
04950   4630 DD5EFFDD23DD56FFDD23
04951   463A                     ldi  de,(ix+0)          ; 463A DD 5E 00 DD 23 DD 56 00 DD 23
04951   463A DD5E00DD23DD5600DD23
04952   4644                     LDI  DE,(IX+0)          ; 4644 DD 5E 00 DD 23 DD 56 00 DD 23
04952   4644 DD5E00DD23DD5600DD23
04953   464E                     ldi  de,(ix+126)        ; 464E DD 5E 7E DD 23 DD 56 7E DD 23
04953   464E DD5E7EDD23DD567EDD23
04954   4658                     LDI  DE,(IX+126)        ; 4658 DD 5E 7E DD 23 DD 56 7E DD 23
04954   4658 DD5E7EDD23DD567EDD23
04955   4662                     ldi  de,(iy+-128)       ; 4662 FD 5E 80 FD 23 FD 56 80 FD 23
04955   4662 FD5E80FD23FD5680FD23
04956   466C                     LDI  DE,(IY+-128)       ; 466C FD 5E 80 FD 23 FD 56 80 FD 23
04956   466C FD5E80FD23FD5680FD23
04957   4676                     ldi  de,(iy+-1)         ; 4676 FD 5E FF FD 23 FD 56 FF FD 23
04957   4676 FD5EFFFD23FD56FFFD23
04958   4680                     LDI  DE,(IY+-1)         ; 4680 FD 5E FF FD 23 FD 56 FF FD 23
04958   4680 FD5EFFFD23FD56FFFD23
04959   468A                     ldi  de,(iy+0)          ; 468A FD 5E 00 FD 23 FD 56 00 FD 23
04959   468A FD5E00FD23FD5600FD23
04960   4694                     LDI  DE,(IY+0)          ; 4694 FD 5E 00 FD 23 FD 56 00 FD 23
04960   4694 FD5E00FD23FD5600FD23
04961   469E                     ldi  de,(iy+126)        ; 469E FD 5E 7E FD 23 FD 56 7E FD 23
04961   469E FD5E7EFD23FD567EFD23
04962   46A8                     LDI  DE,(IY+126)        ; 46A8 FD 5E 7E FD 23 FD 56 7E FD 23
04962   46A8 FD5E7EFD23FD567EFD23
04963   46B2 5E 23 56 23         ldi  de,[hl]            ; 46B2 5E 23 56 23
04964   46B6 5E 23 56 23         LDI  DE,[HL]            ; 46B6 5E 23 56 23
04965   46BA                     ldi  de,[ix+-128]       ; 46BA DD 5E 80 DD 23 DD 56 80 DD 23
04965   46BA DD5E80DD23DD5680DD23
04966   46C4                     LDI  DE,[IX+-128]       ; 46C4 DD 5E 80 DD 23 DD 56 80 DD 23
04966   46C4 DD5E80DD23DD5680DD23
04967   46CE                     ldi  de,[ix+-1]         ; 46CE DD 5E FF DD 23 DD 56 FF DD 23
04967   46CE DD5EFFDD23DD56FFDD23
04968   46D8                     LDI  DE,[IX+-1]         ; 46D8 DD 5E FF DD 23 DD 56 FF DD 23
04968   46D8 DD5EFFDD23DD56FFDD23
04969   46E2                     ldi  de,[ix+0]          ; 46E2 DD 5E 00 DD 23 DD 56 00 DD 23
04969   46E2 DD5E00DD23DD5600DD23
04970   46EC                     LDI  DE,[IX+0]          ; 46EC DD 5E 00 DD 23 DD 56 00 DD 23
04970   46EC DD5E00DD23DD5600DD23
04971   46F6                     ldi  de,[ix+126]        ; 46F6 DD 5E 7E DD 23 DD 56 7E DD 23
04971   46F6 DD5E7EDD23DD567EDD23
04972   4700                     LDI  DE,[IX+126]        ; 4700 DD 5E 7E DD 23 DD 56 7E DD 23
04972   4700 DD5E7EDD23DD567EDD23
04973   470A                     ldi  de,[iy+-128]       ; 470A FD 5E 80 FD 23 FD 56 80 FD 23
04973   470A FD5E80FD23FD5680FD23
04974   4714                     LDI  DE,[IY+-128]       ; 4714 FD 5E 80 FD 23 FD 56 80 FD 23
04974   4714 FD5E80FD23FD5680FD23
04975   471E                     ldi  de,[iy+-1]         ; 471E FD 5E FF FD 23 FD 56 FF FD 23
04975   471E FD5EFFFD23FD56FFFD23
04976   4728                     LDI  DE,[IY+-1]         ; 4728 FD 5E FF FD 23 FD 56 FF FD 23
04976   4728 FD5EFFFD23FD56FFFD23
04977   4732                     ldi  de,[iy+0]          ; 4732 FD 5E 00 FD 23 FD 56 00 FD 23
04977   4732 FD5E00FD23FD5600FD23
04978   473C                     LDI  DE,[IY+0]          ; 473C FD 5E 00 FD 23 FD 56 00 FD 23
04978   473C FD5E00FD23FD5600FD23
04979   4746                     ldi  de,[iy+126]        ; 4746 FD 5E 7E FD 23 FD 56 7E FD 23
04979   4746 FD5E7EFD23FD567EFD23
04980   4750                     LDI  DE,[IY+126]        ; 4750 FD 5E 7E FD 23 FD 56 7E FD 23
04980   4750 FD5E7EFD23FD567EFD23
04981   475A 5E 23               ldi  e,(hl)             ; 475A 5E 23
04982   475C 5E 23               LDI  E,(HL)             ; 475C 5E 23
04983   475E DD5E80DD23          ldi  e,(ix+-128)        ; 475E DD 5E 80 DD 23
04984   4763 DD5E80DD23          LDI  E,(IX+-128)        ; 4763 DD 5E 80 DD 23
04985   4768 DD5EFFDD23          ldi  e,(ix+-1)          ; 4768 DD 5E FF DD 23
04986   476D DD5EFFDD23          LDI  E,(IX+-1)          ; 476D DD 5E FF DD 23
04987   4772 DD5E00DD23          ldi  e,(ix+0)           ; 4772 DD 5E 00 DD 23
04988   4777 DD5E00DD23          LDI  E,(IX+0)           ; 4777 DD 5E 00 DD 23
04989   477C DD5E7FDD23          ldi  e,(ix+127)         ; 477C DD 5E 7F DD 23
04990   4781 DD5E7FDD23          LDI  E,(IX+127)         ; 4781 DD 5E 7F DD 23
04991   4786 FD5E80FD23          ldi  e,(iy+-128)        ; 4786 FD 5E 80 FD 23
04992   478B FD5E80FD23          LDI  E,(IY+-128)        ; 478B FD 5E 80 FD 23
04993   4790 FD5EFFFD23          ldi  e,(iy+-1)          ; 4790 FD 5E FF FD 23
04994   4795 FD5EFFFD23          LDI  E,(IY+-1)          ; 4795 FD 5E FF FD 23
04995   479A FD5E00FD23          ldi  e,(iy+0)           ; 479A FD 5E 00 FD 23
04996   479F FD5E00FD23          LDI  E,(IY+0)           ; 479F FD 5E 00 FD 23
04997   47A4 FD5E7FFD23          ldi  e,(iy+127)         ; 47A4 FD 5E 7F FD 23
04998   47A9 FD5E7FFD23          LDI  E,(IY+127)         ; 47A9 FD 5E 7F FD 23
04999   47AE 5E 23               ldi  e,[hl]             ; 47AE 5E 23
05000   47B0 5E 23               LDI  E,[HL]             ; 47B0 5E 23
05001   47B2 DD5E80DD23          ldi  e,[ix+-128]        ; 47B2 DD 5E 80 DD 23
05002   47B7 DD5E80DD23          LDI  E,[IX+-128]        ; 47B7 DD 5E 80 DD 23
05003   47BC DD5EFFDD23          ldi  e,[ix+-1]          ; 47BC DD 5E FF DD 23
05004   47C1 DD5EFFDD23          LDI  E,[IX+-1]          ; 47C1 DD 5E FF DD 23
05005   47C6 DD5E00DD23          ldi  e,[ix+0]           ; 47C6 DD 5E 00 DD 23
05006   47CB DD5E00DD23          LDI  E,[IX+0]           ; 47CB DD 5E 00 DD 23
05007   47D0 DD5E7FDD23          ldi  e,[ix+127]         ; 47D0 DD 5E 7F DD 23
05008   47D5 DD5E7FDD23          LDI  E,[IX+127]         ; 47D5 DD 5E 7F DD 23
05009   47DA FD5E80FD23          ldi  e,[iy+-128]        ; 47DA FD 5E 80 FD 23
05010   47DF FD5E80FD23          LDI  E,[IY+-128]        ; 47DF FD 5E 80 FD 23
05011   47E4 FD5EFFFD23          ldi  e,[iy+-1]          ; 47E4 FD 5E FF FD 23
05012   47E9 FD5EFFFD23          LDI  E,[IY+-1]          ; 47E9 FD 5E FF FD 23
05013   47EE FD5E00FD23          ldi  e,[iy+0]           ; 47EE FD 5E 00 FD 23
05014   47F3 FD5E00FD23          LDI  E,[IY+0]           ; 47F3 FD 5E 00 FD 23
05015   47F8 FD5E7FFD23          ldi  e,[iy+127]         ; 47F8 FD 5E 7F FD 23
05016   47FD FD5E7FFD23          LDI  E,[IY+127]         ; 47FD FD 5E 7F FD 23
05017   4802 66 23               ldi  h,(hl)             ; 4802 66 23
05018   4804 66 23               LDI  H,(HL)             ; 4804 66 23
05019   4806 DD6680DD23          ldi  h,(ix+-128)        ; 4806 DD 66 80 DD 23
05020   480B DD6680DD23          LDI  H,(IX+-128)        ; 480B DD 66 80 DD 23
05021   4810 DD66FFDD23          ldi  h,(ix+-1)          ; 4810 DD 66 FF DD 23
05022   4815 DD66FFDD23          LDI  H,(IX+-1)          ; 4815 DD 66 FF DD 23
05023   481A DD6600DD23          ldi  h,(ix+0)           ; 481A DD 66 00 DD 23
05024   481F DD6600DD23          LDI  H,(IX+0)           ; 481F DD 66 00 DD 23
05025   4824 DD667FDD23          ldi  h,(ix+127)         ; 4824 DD 66 7F DD 23
05026   4829 DD667FDD23          LDI  H,(IX+127)         ; 4829 DD 66 7F DD 23
05027   482E FD6680FD23          ldi  h,(iy+-128)        ; 482E FD 66 80 FD 23
05028   4833 FD6680FD23          LDI  H,(IY+-128)        ; 4833 FD 66 80 FD 23
05029   4838 FD66FFFD23          ldi  h,(iy+-1)          ; 4838 FD 66 FF FD 23
05030   483D FD66FFFD23          LDI  H,(IY+-1)          ; 483D FD 66 FF FD 23
05031   4842 FD6600FD23          ldi  h,(iy+0)           ; 4842 FD 66 00 FD 23
05032   4847 FD6600FD23          LDI  H,(IY+0)           ; 4847 FD 66 00 FD 23
05033   484C FD667FFD23          ldi  h,(iy+127)         ; 484C FD 66 7F FD 23
05034   4851 FD667FFD23          LDI  H,(IY+127)         ; 4851 FD 66 7F FD 23
05035   4856 66 23               ldi  h,[hl]             ; 4856 66 23
05036   4858 66 23               LDI  H,[HL]             ; 4858 66 23
05037   485A DD6680DD23          ldi  h,[ix+-128]        ; 485A DD 66 80 DD 23
05038   485F DD6680DD23          LDI  H,[IX+-128]        ; 485F DD 66 80 DD 23
05039   4864 DD66FFDD23          ldi  h,[ix+-1]          ; 4864 DD 66 FF DD 23
05040   4869 DD66FFDD23          LDI  H,[IX+-1]          ; 4869 DD 66 FF DD 23
05041   486E DD6600DD23          ldi  h,[ix+0]           ; 486E DD 66 00 DD 23
05042   4873 DD6600DD23          LDI  H,[IX+0]           ; 4873 DD 66 00 DD 23
05043   4878 DD667FDD23          ldi  h,[ix+127]         ; 4878 DD 66 7F DD 23
05044   487D DD667FDD23          LDI  H,[IX+127]         ; 487D DD 66 7F DD 23
05045   4882 FD6680FD23          ldi  h,[iy+-128]        ; 4882 FD 66 80 FD 23
05046   4887 FD6680FD23          LDI  H,[IY+-128]        ; 4887 FD 66 80 FD 23
05047   488C FD66FFFD23          ldi  h,[iy+-1]          ; 488C FD 66 FF FD 23
05048   4891 FD66FFFD23          LDI  H,[IY+-1]          ; 4891 FD 66 FF FD 23
05049   4896 FD6600FD23          ldi  h,[iy+0]           ; 4896 FD 66 00 FD 23
05050   489B FD6600FD23          LDI  H,[IY+0]           ; 489B FD 66 00 FD 23
05051   48A0 FD667FFD23          ldi  h,[iy+127]         ; 48A0 FD 66 7F FD 23
05052   48A5 FD667FFD23          LDI  H,[IY+127]         ; 48A5 FD 66 7F FD 23
05053   48AA                     ldi  hl,(ix+-128)       ; 48AA DD 6E 80 DD 23 DD 66 80 DD 23
05053   48AA DD6E80DD23DD6680DD23
05054   48B4                     LDI  HL,(IX+-128)       ; 48B4 DD 6E 80 DD 23 DD 66 80 DD 23
05054   48B4 DD6E80DD23DD6680DD23
05055   48BE                     ldi  hl,(ix+-1)         ; 48BE DD 6E FF DD 23 DD 66 FF DD 23
05055   48BE DD6EFFDD23DD66FFDD23
05056   48C8                     LDI  HL,(IX+-1)         ; 48C8 DD 6E FF DD 23 DD 66 FF DD 23
05056   48C8 DD6EFFDD23DD66FFDD23
05057   48D2                     ldi  hl,(ix+0)          ; 48D2 DD 6E 00 DD 23 DD 66 00 DD 23
05057   48D2 DD6E00DD23DD6600DD23
05058   48DC                     LDI  HL,(IX+0)          ; 48DC DD 6E 00 DD 23 DD 66 00 DD 23
05058   48DC DD6E00DD23DD6600DD23
05059   48E6                     ldi  hl,(ix+126)        ; 48E6 DD 6E 7E DD 23 DD 66 7E DD 23
05059   48E6 DD6E7EDD23DD667EDD23
05060   48F0                     LDI  HL,(IX+126)        ; 48F0 DD 6E 7E DD 23 DD 66 7E DD 23
05060   48F0 DD6E7EDD23DD667EDD23
05061   48FA                     ldi  hl,(iy+-128)       ; 48FA FD 6E 80 FD 23 FD 66 80 FD 23
05061   48FA FD6E80FD23FD6680FD23
05062   4904                     LDI  HL,(IY+-128)       ; 4904 FD 6E 80 FD 23 FD 66 80 FD 23
05062   4904 FD6E80FD23FD6680FD23
05063   490E                     ldi  hl,(iy+-1)         ; 490E FD 6E FF FD 23 FD 66 FF FD 23
05063   490E FD6EFFFD23FD66FFFD23
05064   4918                     LDI  HL,(IY+-1)         ; 4918 FD 6E FF FD 23 FD 66 FF FD 23
05064   4918 FD6EFFFD23FD66FFFD23
05065   4922                     ldi  hl,(iy+0)          ; 4922 FD 6E 00 FD 23 FD 66 00 FD 23
05065   4922 FD6E00FD23FD6600FD23
05066   492C                     LDI  HL,(IY+0)          ; 492C FD 6E 00 FD 23 FD 66 00 FD 23
05066   492C FD6E00FD23FD6600FD23
05067   4936                     ldi  hl,(iy+126)        ; 4936 FD 6E 7E FD 23 FD 66 7E FD 23
05067   4936 FD6E7EFD23FD667EFD23
05068   4940                     LDI  HL,(IY+126)        ; 4940 FD 6E 7E FD 23 FD 66 7E FD 23
05068   4940 FD6E7EFD23FD667EFD23
05069   494A                     ldi  hl,[ix+-128]       ; 494A DD 6E 80 DD 23 DD 66 80 DD 23
05069   494A DD6E80DD23DD6680DD23
05070   4954                     LDI  HL,[IX+-128]       ; 4954 DD 6E 80 DD 23 DD 66 80 DD 23
05070   4954 DD6E80DD23DD6680DD23
05071   495E                     ldi  hl,[ix+-1]         ; 495E DD 6E FF DD 23 DD 66 FF DD 23
05071   495E DD6EFFDD23DD66FFDD23
05072   4968                     LDI  HL,[IX+-1]         ; 4968 DD 6E FF DD 23 DD 66 FF DD 23
05072   4968 DD6EFFDD23DD66FFDD23
05073   4972                     ldi  hl,[ix+0]          ; 4972 DD 6E 00 DD 23 DD 66 00 DD 23
05073   4972 DD6E00DD23DD6600DD23
05074   497C                     LDI  HL,[IX+0]          ; 497C DD 6E 00 DD 23 DD 66 00 DD 23
05074   497C DD6E00DD23DD6600DD23
05075   4986                     ldi  hl,[ix+126]        ; 4986 DD 6E 7E DD 23 DD 66 7E DD 23
05075   4986 DD6E7EDD23DD667EDD23
05076   4990                     LDI  HL,[IX+126]        ; 4990 DD 6E 7E DD 23 DD 66 7E DD 23
05076   4990 DD6E7EDD23DD667EDD23
05077   499A                     ldi  hl,[iy+-128]       ; 499A FD 6E 80 FD 23 FD 66 80 FD 23
05077   499A FD6E80FD23FD6680FD23
05078   49A4                     LDI  HL,[IY+-128]       ; 49A4 FD 6E 80 FD 23 FD 66 80 FD 23
05078   49A4 FD6E80FD23FD6680FD23
05079   49AE                     ldi  hl,[iy+-1]         ; 49AE FD 6E FF FD 23 FD 66 FF FD 23
05079   49AE FD6EFFFD23FD66FFFD23
05080   49B8                     LDI  HL,[IY+-1]         ; 49B8 FD 6E FF FD 23 FD 66 FF FD 23
05080   49B8 FD6EFFFD23FD66FFFD23
05081   49C2                     ldi  hl,[iy+0]          ; 49C2 FD 6E 00 FD 23 FD 66 00 FD 23
05081   49C2 FD6E00FD23FD6600FD23
05082   49CC                     LDI  HL,[IY+0]          ; 49CC FD 6E 00 FD 23 FD 66 00 FD 23
05082   49CC FD6E00FD23FD6600FD23
05083   49D6                     ldi  hl,[iy+126]        ; 49D6 FD 6E 7E FD 23 FD 66 7E FD 23
05083   49D6 FD6E7EFD23FD667EFD23
05084   49E0                     LDI  HL,[IY+126]        ; 49E0 FD 6E 7E FD 23 FD 66 7E FD 23
05084   49E0 FD6E7EFD23FD667EFD23
05085   49EA 6E 23               ldi  l,(hl)             ; 49EA 6E 23
05086   49EC 6E 23               LDI  L,(HL)             ; 49EC 6E 23
05087   49EE DD6E80DD23          ldi  l,(ix+-128)        ; 49EE DD 6E 80 DD 23
05088   49F3 DD6E80DD23          LDI  L,(IX+-128)        ; 49F3 DD 6E 80 DD 23
05089   49F8 DD6EFFDD23          ldi  l,(ix+-1)          ; 49F8 DD 6E FF DD 23
05090   49FD DD6EFFDD23          LDI  L,(IX+-1)          ; 49FD DD 6E FF DD 23
05091   4A02 DD6E00DD23          ldi  l,(ix+0)           ; 4A02 DD 6E 00 DD 23
05092   4A07 DD6E00DD23          LDI  L,(IX+0)           ; 4A07 DD 6E 00 DD 23
05093   4A0C DD6E7FDD23          ldi  l,(ix+127)         ; 4A0C DD 6E 7F DD 23
05094   4A11 DD6E7FDD23          LDI  L,(IX+127)         ; 4A11 DD 6E 7F DD 23
05095   4A16 FD6E80FD23          ldi  l,(iy+-128)        ; 4A16 FD 6E 80 FD 23
05096   4A1B FD6E80FD23          LDI  L,(IY+-128)        ; 4A1B FD 6E 80 FD 23
05097   4A20 FD6EFFFD23          ldi  l,(iy+-1)          ; 4A20 FD 6E FF FD 23
05098   4A25 FD6EFFFD23          LDI  L,(IY+-1)          ; 4A25 FD 6E FF FD 23
05099   4A2A FD6E00FD23          ldi  l,(iy+0)           ; 4A2A FD 6E 00 FD 23
05100   4A2F FD6E00FD23          LDI  L,(IY+0)           ; 4A2F FD 6E 00 FD 23
05101   4A34 FD6E7FFD23          ldi  l,(iy+127)         ; 4A34 FD 6E 7F FD 23
05102   4A39 FD6E7FFD23          LDI  L,(IY+127)         ; 4A39 FD 6E 7F FD 23
05103   4A3E 6E 23               ldi  l,[hl]             ; 4A3E 6E 23
05104   4A40 6E 23               LDI  L,[HL]             ; 4A40 6E 23
05105   4A42 DD6E80DD23          ldi  l,[ix+-128]        ; 4A42 DD 6E 80 DD 23
05106   4A47 DD6E80DD23          LDI  L,[IX+-128]        ; 4A47 DD 6E 80 DD 23
05107   4A4C DD6EFFDD23          ldi  l,[ix+-1]          ; 4A4C DD 6E FF DD 23
05108   4A51 DD6EFFDD23          LDI  L,[IX+-1]          ; 4A51 DD 6E FF DD 23
05109   4A56 DD6E00DD23          ldi  l,[ix+0]           ; 4A56 DD 6E 00 DD 23
05110   4A5B DD6E00DD23          LDI  L,[IX+0]           ; 4A5B DD 6E 00 DD 23
05111   4A60 DD6E7FDD23          ldi  l,[ix+127]         ; 4A60 DD 6E 7F DD 23
05112   4A65 DD6E7FDD23          LDI  L,[IX+127]         ; 4A65 DD 6E 7F DD 23
05113   4A6A FD6E80FD23          ldi  l,[iy+-128]        ; 4A6A FD 6E 80 FD 23
05114   4A6F FD6E80FD23          LDI  L,[IY+-128]        ; 4A6F FD 6E 80 FD 23
05115   4A74 FD6EFFFD23          ldi  l,[iy+-1]          ; 4A74 FD 6E FF FD 23
05116   4A79 FD6EFFFD23          LDI  L,[IY+-1]          ; 4A79 FD 6E FF FD 23
05117   4A7E FD6E00FD23          ldi  l,[iy+0]           ; 4A7E FD 6E 00 FD 23
05118   4A83 FD6E00FD23          LDI  L,[IY+0]           ; 4A83 FD 6E 00 FD 23
05119   4A88 FD6E7FFD23          ldi  l,[iy+127]         ; 4A88 FD 6E 7F FD 23
05120   4A8D FD6E7FFD23          LDI  L,[IY+127]         ; 4A8D FD 6E 7F FD 23
05121   4A92 ED B0               ldir                    ; 4A92 ED B0
05122   4A94 ED B0               LDIR                    ; 4A94 ED B0
05123   4A96 ED 44               neg                     ; 4A96 ED 44
05124   4A98 ED 44               NEG                     ; 4A98 ED 44
05125   4A9A 00                  nop                     ; 4A9A 00
05126   4A9B 00                  NOP                     ; 4A9B 00
05127   4A9C B6                  or   (hl)               ; 4A9C B6
05128   4A9D B6                  OR   (HL)               ; 4A9D B6
05129   4A9E DD B6 80            or   (ix+-128)          ; 4A9E DD B6 80
05130   4AA1 DD B6 80            OR   (IX+-128)          ; 4AA1 DD B6 80
05131   4AA4 DD B6 FF            or   (ix+-1)            ; 4AA4 DD B6 FF
05132   4AA7 DD B6 FF            OR   (IX+-1)            ; 4AA7 DD B6 FF
05133   4AAA DD B6 00            or   (ix+0)             ; 4AAA DD B6 00
05134   4AAD DD B6 00            OR   (IX+0)             ; 4AAD DD B6 00
05135   4AB0 DD B6 7F            or   (ix+127)           ; 4AB0 DD B6 7F
05136   4AB3 DD B6 7F            OR   (IX+127)           ; 4AB3 DD B6 7F
05137   4AB6 FD B6 80            or   (iy+-128)          ; 4AB6 FD B6 80
05138   4AB9 FD B6 80            OR   (IY+-128)          ; 4AB9 FD B6 80
05139   4ABC FD B6 FF            or   (iy+-1)            ; 4ABC FD B6 FF
05140   4ABF FD B6 FF            OR   (IY+-1)            ; 4ABF FD B6 FF
05141   4AC2 FD B6 00            or   (iy+0)             ; 4AC2 FD B6 00
05142   4AC5 FD B6 00            OR   (IY+0)             ; 4AC5 FD B6 00
05143   4AC8 FD B6 7F            or   (iy+127)           ; 4AC8 FD B6 7F
05144   4ACB FD B6 7F            OR   (IY+127)           ; 4ACB FD B6 7F
05145   4ACE F6 80               or   -128               ; 4ACE F6 80
05146   4AD0 F6 80               OR   -128               ; 4AD0 F6 80
05147   4AD2 F6 FF               or   -1                 ; 4AD2 F6 FF
05148   4AD4 F6 FF               OR   -1                 ; 4AD4 F6 FF
05149   4AD6 F6 00               or   0                  ; 4AD6 F6 00
05150   4AD8 F6 00               OR   0                  ; 4AD8 F6 00
05151   4ADA F6 7F               or   127                ; 4ADA F6 7F
05152   4ADC F6 7F               OR   127                ; 4ADC F6 7F
05153   4ADE F6 FF               or   255                ; 4ADE F6 FF
05154   4AE0 F6 FF               OR   255                ; 4AE0 F6 FF
05155   4AE2 B6                  or   [hl]               ; 4AE2 B6
05156   4AE3 B6                  OR   [HL]               ; 4AE3 B6
05157   4AE4 DD B6 80            or   [ix+-128]          ; 4AE4 DD B6 80
05158   4AE7 DD B6 80            OR   [IX+-128]          ; 4AE7 DD B6 80
05159   4AEA DD B6 FF            or   [ix+-1]            ; 4AEA DD B6 FF
05160   4AED DD B6 FF            OR   [IX+-1]            ; 4AED DD B6 FF
05161   4AF0 DD B6 00            or   [ix+0]             ; 4AF0 DD B6 00
05162   4AF3 DD B6 00            OR   [IX+0]             ; 4AF3 DD B6 00
05163   4AF6 DD B6 7F            or   [ix+127]           ; 4AF6 DD B6 7F
05164   4AF9 DD B6 7F            OR   [IX+127]           ; 4AF9 DD B6 7F
05165   4AFC FD B6 80            or   [iy+-128]          ; 4AFC FD B6 80
05166   4AFF FD B6 80            OR   [IY+-128]          ; 4AFF FD B6 80
05167   4B02 FD B6 FF            or   [iy+-1]            ; 4B02 FD B6 FF
05168   4B05 FD B6 FF            OR   [IY+-1]            ; 4B05 FD B6 FF
05169   4B08 FD B6 00            or   [iy+0]             ; 4B08 FD B6 00
05170   4B0B FD B6 00            OR   [IY+0]             ; 4B0B FD B6 00
05171   4B0E FD B6 7F            or   [iy+127]           ; 4B0E FD B6 7F
05172   4B11 FD B6 7F            OR   [IY+127]           ; 4B11 FD B6 7F
05173   4B14 B7                  or   a                  ; 4B14 B7
05174   4B15 B7                  OR   A                  ; 4B15 B7
05175   4B16 B0                  or   b                  ; 4B16 B0
05176   4B17 B0                  OR   B                  ; 4B17 B0
05177   4B18 B1                  or   c                  ; 4B18 B1
05178   4B19 B1                  OR   C                  ; 4B19 B1
05179   4B1A B2                  or   d                  ; 4B1A B2
05180   4B1B B2                  OR   D                  ; 4B1B B2
05181   4B1C B3                  or   e                  ; 4B1C B3
05182   4B1D B3                  OR   E                  ; 4B1D B3
05183   4B1E B4                  or   h                  ; 4B1E B4
05184   4B1F B4                  OR   H                  ; 4B1F B4
05185   4B20 DD B4               or   hx                 ; 4B20 DD B4
05186   4B22 DD B4               OR   HX                 ; 4B22 DD B4
05187   4B24 FD B4               or   hy                 ; 4B24 FD B4
05188   4B26 FD B4               OR   HY                 ; 4B26 FD B4
05189   4B28 DD B4               or   ixh                ; 4B28 DD B4
05190   4B2A DD B4               OR   IXH                ; 4B2A DD B4
05191   4B2C DD B5               or   ixl                ; 4B2C DD B5
05192   4B2E DD B5               OR   IXL                ; 4B2E DD B5
05193   4B30 FD B4               or   iyh                ; 4B30 FD B4
05194   4B32 FD B4               OR   IYH                ; 4B32 FD B4
05195   4B34 FD B5               or   iyl                ; 4B34 FD B5
05196   4B36 FD B5               OR   IYL                ; 4B36 FD B5
05197   4B38 B5                  or   l                  ; 4B38 B5
05198   4B39 B5                  OR   L                  ; 4B39 B5
05199   4B3A DD B5               or   lx                 ; 4B3A DD B5
05200   4B3C DD B5               OR   LX                 ; 4B3C DD B5
05201   4B3E FD B5               or   ly                 ; 4B3E FD B5
05202   4B40 FD B5               OR   LY                 ; 4B40 FD B5
05203   4B42 DD B4               or   xh                 ; 4B42 DD B4
05204   4B44 DD B4               OR   XH                 ; 4B44 DD B4
05205   4B46 DD B5               or   xl                 ; 4B46 DD B5
05206   4B48 DD B5               OR   XL                 ; 4B48 DD B5
05207   4B4A FD B4               or   yh                 ; 4B4A FD B4
05208   4B4C FD B4               OR   YH                 ; 4B4C FD B4
05209   4B4E FD B5               or   yl                 ; 4B4E FD B5
05210   4B50 FD B5               OR   YL                 ; 4B50 FD B5
05211   4B52 ED BB               otdr                    ; 4B52 ED BB
05212   4B54 ED BB               OTDR                    ; 4B54 ED BB
05213   4B56 ED B3               otir                    ; 4B56 ED B3
05214   4B58 ED B3               OTIR                    ; 4B58 ED B3
05215   4B5A D3 80               out  (-128),a           ; 4B5A D3 80
05216   4B5C D3 80               OUT  (-128),A           ; 4B5C D3 80
05217   4B5E D3 FF               out  (-1),a             ; 4B5E D3 FF
05218   4B60 D3 FF               OUT  (-1),A             ; 4B60 D3 FF
05219   4B62 D3 00               out  (0),a              ; 4B62 D3 00
05220   4B64 D3 00               OUT  (0),A              ; 4B64 D3 00
05221   4B66 D3 7F               out  (127),a            ; 4B66 D3 7F
05222   4B68 D3 7F               OUT  (127),A            ; 4B68 D3 7F
05223   4B6A D3 FF               out  (255),a            ; 4B6A D3 FF
05224   4B6C D3 FF               OUT  (255),A            ; 4B6C D3 FF
05225   4B6E ED 71               out  (c),0              ; 4B6E ED 71
05226   4B70 ED 71               OUT  (C),0              ; 4B70 ED 71
05227   4B72 ED 79               out  (c),a              ; 4B72 ED 79
05228   4B74 ED 79               OUT  (C),A              ; 4B74 ED 79
05229   4B76 ED 41               out  (c),b              ; 4B76 ED 41
05230   4B78 ED 41               OUT  (C),B              ; 4B78 ED 41
05231   4B7A ED 49               out  (c),c              ; 4B7A ED 49
05232   4B7C ED 49               OUT  (C),C              ; 4B7C ED 49
05233   4B7E ED 51               out  (c),d              ; 4B7E ED 51
05234   4B80 ED 51               OUT  (C),D              ; 4B80 ED 51
05235   4B82 ED 59               out  (c),e              ; 4B82 ED 59
05236   4B84 ED 59               OUT  (C),E              ; 4B84 ED 59
05237   4B86 ED 61               out  (c),h              ; 4B86 ED 61
05238   4B88 ED 61               OUT  (C),H              ; 4B88 ED 61
05239   4B8A ED 69               out  (c),l              ; 4B8A ED 69
05240   4B8C ED 69               OUT  (C),L              ; 4B8C ED 69
05241   4B8E D3 80               out  [-128],a           ; 4B8E D3 80
05242   4B90 D3 80               OUT  [-128],A           ; 4B90 D3 80
05243   4B92 D3 FF               out  [-1],a             ; 4B92 D3 FF
05244   4B94 D3 FF               OUT  [-1],A             ; 4B94 D3 FF
05245   4B96 D3 00               out  [0],a              ; 4B96 D3 00
05246   4B98 D3 00               OUT  [0],A              ; 4B98 D3 00
05247   4B9A D3 7F               out  [127],a            ; 4B9A D3 7F
05248   4B9C D3 7F               OUT  [127],A            ; 4B9C D3 7F
05249   4B9E D3 FF               out  [255],a            ; 4B9E D3 FF
05250   4BA0 D3 FF               OUT  [255],A            ; 4BA0 D3 FF
05251   4BA2 ED 71               out  [c],0              ; 4BA2 ED 71
05252   4BA4 ED 71               OUT  [C],0              ; 4BA4 ED 71
05253   4BA6 ED 79               out  [c],a              ; 4BA6 ED 79
05254   4BA8 ED 79               OUT  [C],A              ; 4BA8 ED 79
05255   4BAA ED 41               out  [c],b              ; 4BAA ED 41
05256   4BAC ED 41               OUT  [C],B              ; 4BAC ED 41
05257   4BAE ED 49               out  [c],c              ; 4BAE ED 49
05258   4BB0 ED 49               OUT  [C],C              ; 4BB0 ED 49
05259   4BB2 ED 51               out  [c],d              ; 4BB2 ED 51
05260   4BB4 ED 51               OUT  [C],D              ; 4BB4 ED 51
05261   4BB6 ED 59               out  [c],e              ; 4BB6 ED 59
05262   4BB8 ED 59               OUT  [C],E              ; 4BB8 ED 59
05263   4BBA ED 61               out  [c],h              ; 4BBA ED 61
05264   4BBC ED 61               OUT  [C],H              ; 4BBC ED 61
05265   4BBE ED 69               out  [c],l              ; 4BBE ED 69
05266   4BC0 ED 69               OUT  [C],L              ; 4BC0 ED 69
05267   4BC2 ED AB               outd                    ; 4BC2 ED AB
05268   4BC4 ED AB               OUTD                    ; 4BC4 ED AB
05269   4BC6 ED A3               outi                    ; 4BC6 ED A3
05270   4BC8 ED A3               OUTI                    ; 4BC8 ED A3
05271   4BCA F1                  pop  af                 ; 4BCA F1
05272   4BCB F1                  POP  AF                 ; 4BCB F1
05273   4BCC C1                  pop  bc                 ; 4BCC C1
05274   4BCD C1                  POP  BC                 ; 4BCD C1
05275   4BCE D1                  pop  de                 ; 4BCE D1
05276   4BCF D1                  POP  DE                 ; 4BCF D1
05277   4BD0 E1                  pop  hl                 ; 4BD0 E1
05278   4BD1 E1                  POP  HL                 ; 4BD1 E1
05279   4BD2 DD E1               pop  ix                 ; 4BD2 DD E1
05280   4BD4 DD E1               POP  IX                 ; 4BD4 DD E1
05281   4BD6 FD E1               pop  iy                 ; 4BD6 FD E1
05282   4BD8 FD E1               POP  IY                 ; 4BD8 FD E1
05283   4BDA F5                  push af                 ; 4BDA F5
05284   4BDB F5                  PUSH AF                 ; 4BDB F5
05285   4BDC C5                  push bc                 ; 4BDC C5
05286   4BDD C5                  PUSH BC                 ; 4BDD C5
05287   4BDE D5                  push de                 ; 4BDE D5
05288   4BDF D5                  PUSH DE                 ; 4BDF D5
05289   4BE0 E5                  push hl                 ; 4BE0 E5
05290   4BE1 E5                  PUSH HL                 ; 4BE1 E5
05291   4BE2 DD E5               push ix                 ; 4BE2 DD E5
05292   4BE4 DD E5               PUSH IX                 ; 4BE4 DD E5
05293   4BE6 FD E5               push iy                 ; 4BE6 FD E5
05294   4BE8 FD E5               PUSH IY                 ; 4BE8 FD E5
05295   4BEA CB 86               res  0,(hl)             ; 4BEA CB 86
05296   4BEC CB 86               RES  0,(HL)             ; 4BEC CB 86
05297   4BEE DD CB 80 86         res  0,(ix+-128)        ; 4BEE DD CB 80 86
05298   4BF2 DD CB 80 86         RES  0,(IX+-128)        ; 4BF2 DD CB 80 86
05299   4BF6 DD CB FF 86         res  0,(ix+-1)          ; 4BF6 DD CB FF 86
05300   4BFA DD CB FF 86         RES  0,(IX+-1)          ; 4BFA DD CB FF 86
05301   4BFE DD CB 00 86         res  0,(ix+0)           ; 4BFE DD CB 00 86
05302   4C02 DD CB 00 86         RES  0,(IX+0)           ; 4C02 DD CB 00 86
05303   4C06 DD CB 7F 86         res  0,(ix+127)         ; 4C06 DD CB 7F 86
05304   4C0A DD CB 7F 86         RES  0,(IX+127)         ; 4C0A DD CB 7F 86
05305   4C0E DD CB 80 87         res  0,(ix+-128),a      ; 4C0E DD CB 80 87
05306   4C12 DD CB 80 87         RES  0,(IX+-128),A      ; 4C12 DD CB 80 87
05307   4C16 DD CB FF 87         res  0,(ix+-1),a        ; 4C16 DD CB FF 87
05308   4C1A DD CB FF 87         RES  0,(IX+-1),A        ; 4C1A DD CB FF 87
05309   4C1E DD CB 00 87         res  0,(ix+0),a         ; 4C1E DD CB 00 87
05310   4C22 DD CB 00 87         RES  0,(IX+0),A         ; 4C22 DD CB 00 87
05311   4C26 DD CB 7F 87         res  0,(ix+127),a       ; 4C26 DD CB 7F 87
05312   4C2A DD CB 7F 87         RES  0,(IX+127),A       ; 4C2A DD CB 7F 87
05313   4C2E DD CB 80 80         res  0,(ix+-128),b      ; 4C2E DD CB 80 80
05314   4C32 DD CB 80 80         RES  0,(IX+-128),B      ; 4C32 DD CB 80 80
05315   4C36 DD CB FF 80         res  0,(ix+-1),b        ; 4C36 DD CB FF 80
05316   4C3A DD CB FF 80         RES  0,(IX+-1),B        ; 4C3A DD CB FF 80
05317   4C3E DD CB 00 80         res  0,(ix+0),b         ; 4C3E DD CB 00 80
05318   4C42 DD CB 00 80         RES  0,(IX+0),B         ; 4C42 DD CB 00 80
05319   4C46 DD CB 7F 80         res  0,(ix+127),b       ; 4C46 DD CB 7F 80
05320   4C4A DD CB 7F 80         RES  0,(IX+127),B       ; 4C4A DD CB 7F 80
05321   4C4E DD CB 80 81         res  0,(ix+-128),c      ; 4C4E DD CB 80 81
05322   4C52 DD CB 80 81         RES  0,(IX+-128),C      ; 4C52 DD CB 80 81
05323   4C56 DD CB FF 81         res  0,(ix+-1),c        ; 4C56 DD CB FF 81
05324   4C5A DD CB FF 81         RES  0,(IX+-1),C        ; 4C5A DD CB FF 81
05325   4C5E DD CB 00 81         res  0,(ix+0),c         ; 4C5E DD CB 00 81
05326   4C62 DD CB 00 81         RES  0,(IX+0),C         ; 4C62 DD CB 00 81
05327   4C66 DD CB 7F 81         res  0,(ix+127),c       ; 4C66 DD CB 7F 81
05328   4C6A DD CB 7F 81         RES  0,(IX+127),C       ; 4C6A DD CB 7F 81
05329   4C6E DD CB 80 82         res  0,(ix+-128),d      ; 4C6E DD CB 80 82
05330   4C72 DD CB 80 82         RES  0,(IX+-128),D      ; 4C72 DD CB 80 82
05331   4C76 DD CB FF 82         res  0,(ix+-1),d        ; 4C76 DD CB FF 82
05332   4C7A DD CB FF 82         RES  0,(IX+-1),D        ; 4C7A DD CB FF 82
05333   4C7E DD CB 00 82         res  0,(ix+0),d         ; 4C7E DD CB 00 82
05334   4C82 DD CB 00 82         RES  0,(IX+0),D         ; 4C82 DD CB 00 82
05335   4C86 DD CB 7F 82         res  0,(ix+127),d       ; 4C86 DD CB 7F 82
05336   4C8A DD CB 7F 82         RES  0,(IX+127),D       ; 4C8A DD CB 7F 82
05337   4C8E DD CB 80 83         res  0,(ix+-128),e      ; 4C8E DD CB 80 83
05338   4C92 DD CB 80 83         RES  0,(IX+-128),E      ; 4C92 DD CB 80 83
05339   4C96 DD CB FF 83         res  0,(ix+-1),e        ; 4C96 DD CB FF 83
05340   4C9A DD CB FF 83         RES  0,(IX+-1),E        ; 4C9A DD CB FF 83
05341   4C9E DD CB 00 83         res  0,(ix+0),e         ; 4C9E DD CB 00 83
05342   4CA2 DD CB 00 83         RES  0,(IX+0),E         ; 4CA2 DD CB 00 83
05343   4CA6 DD CB 7F 83         res  0,(ix+127),e       ; 4CA6 DD CB 7F 83
05344   4CAA DD CB 7F 83         RES  0,(IX+127),E       ; 4CAA DD CB 7F 83
05345   4CAE DD CB 80 84         res  0,(ix+-128),h      ; 4CAE DD CB 80 84
05346   4CB2 DD CB 80 84         RES  0,(IX+-128),H      ; 4CB2 DD CB 80 84
05347   4CB6 DD CB FF 84         res  0,(ix+-1),h        ; 4CB6 DD CB FF 84
05348   4CBA DD CB FF 84         RES  0,(IX+-1),H        ; 4CBA DD CB FF 84
05349   4CBE DD CB 00 84         res  0,(ix+0),h         ; 4CBE DD CB 00 84
05350   4CC2 DD CB 00 84         RES  0,(IX+0),H         ; 4CC2 DD CB 00 84
05351   4CC6 DD CB 7F 84         res  0,(ix+127),h       ; 4CC6 DD CB 7F 84
05352   4CCA DD CB 7F 84         RES  0,(IX+127),H       ; 4CCA DD CB 7F 84
05353   4CCE DD CB 80 85         res  0,(ix+-128),l      ; 4CCE DD CB 80 85
05354   4CD2 DD CB 80 85         RES  0,(IX+-128),L      ; 4CD2 DD CB 80 85
05355   4CD6 DD CB FF 85         res  0,(ix+-1),l        ; 4CD6 DD CB FF 85
05356   4CDA DD CB FF 85         RES  0,(IX+-1),L        ; 4CDA DD CB FF 85
05357   4CDE DD CB 00 85         res  0,(ix+0),l         ; 4CDE DD CB 00 85
05358   4CE2 DD CB 00 85         RES  0,(IX+0),L         ; 4CE2 DD CB 00 85
05359   4CE6 DD CB 7F 85         res  0,(ix+127),l       ; 4CE6 DD CB 7F 85
05360   4CEA DD CB 7F 85         RES  0,(IX+127),L       ; 4CEA DD CB 7F 85
05361   4CEE FD CB 80 86         res  0,(iy+-128)        ; 4CEE FD CB 80 86
05362   4CF2 FD CB 80 86         RES  0,(IY+-128)        ; 4CF2 FD CB 80 86
05363   4CF6 FD CB FF 86         res  0,(iy+-1)          ; 4CF6 FD CB FF 86
05364   4CFA FD CB FF 86         RES  0,(IY+-1)          ; 4CFA FD CB FF 86
05365   4CFE FD CB 00 86         res  0,(iy+0)           ; 4CFE FD CB 00 86
05366   4D02 FD CB 00 86         RES  0,(IY+0)           ; 4D02 FD CB 00 86
05367   4D06 FD CB 7F 86         res  0,(iy+127)         ; 4D06 FD CB 7F 86
05368   4D0A FD CB 7F 86         RES  0,(IY+127)         ; 4D0A FD CB 7F 86
05369   4D0E FD CB 80 87         res  0,(iy+-128),a      ; 4D0E FD CB 80 87
05370   4D12 FD CB 80 87         RES  0,(IY+-128),A      ; 4D12 FD CB 80 87
05371   4D16 FD CB FF 87         res  0,(iy+-1),a        ; 4D16 FD CB FF 87
05372   4D1A FD CB FF 87         RES  0,(IY+-1),A        ; 4D1A FD CB FF 87
05373   4D1E FD CB 00 87         res  0,(iy+0),a         ; 4D1E FD CB 00 87
05374   4D22 FD CB 00 87         RES  0,(IY+0),A         ; 4D22 FD CB 00 87
05375   4D26 FD CB 7F 87         res  0,(iy+127),a       ; 4D26 FD CB 7F 87
05376   4D2A FD CB 7F 87         RES  0,(IY+127),A       ; 4D2A FD CB 7F 87
05377   4D2E FD CB 80 80         res  0,(iy+-128),b      ; 4D2E FD CB 80 80
05378   4D32 FD CB 80 80         RES  0,(IY+-128),B      ; 4D32 FD CB 80 80
05379   4D36 FD CB FF 80         res  0,(iy+-1),b        ; 4D36 FD CB FF 80
05380   4D3A FD CB FF 80         RES  0,(IY+-1),B        ; 4D3A FD CB FF 80
05381   4D3E FD CB 00 80         res  0,(iy+0),b         ; 4D3E FD CB 00 80
05382   4D42 FD CB 00 80         RES  0,(IY+0),B         ; 4D42 FD CB 00 80
05383   4D46 FD CB 7F 80         res  0,(iy+127),b       ; 4D46 FD CB 7F 80
05384   4D4A FD CB 7F 80         RES  0,(IY+127),B       ; 4D4A FD CB 7F 80
05385   4D4E FD CB 80 81         res  0,(iy+-128),c      ; 4D4E FD CB 80 81
05386   4D52 FD CB 80 81         RES  0,(IY+-128),C      ; 4D52 FD CB 80 81
05387   4D56 FD CB FF 81         res  0,(iy+-1),c        ; 4D56 FD CB FF 81
05388   4D5A FD CB FF 81         RES  0,(IY+-1),C        ; 4D5A FD CB FF 81
05389   4D5E FD CB 00 81         res  0,(iy+0),c         ; 4D5E FD CB 00 81
05390   4D62 FD CB 00 81         RES  0,(IY+0),C         ; 4D62 FD CB 00 81
05391   4D66 FD CB 7F 81         res  0,(iy+127),c       ; 4D66 FD CB 7F 81
05392   4D6A FD CB 7F 81         RES  0,(IY+127),C       ; 4D6A FD CB 7F 81
05393   4D6E FD CB 80 82         res  0,(iy+-128),d      ; 4D6E FD CB 80 82
05394   4D72 FD CB 80 82         RES  0,(IY+-128),D      ; 4D72 FD CB 80 82
05395   4D76 FD CB FF 82         res  0,(iy+-1),d        ; 4D76 FD CB FF 82
05396   4D7A FD CB FF 82         RES  0,(IY+-1),D        ; 4D7A FD CB FF 82
05397   4D7E FD CB 00 82         res  0,(iy+0),d         ; 4D7E FD CB 00 82
05398   4D82 FD CB 00 82         RES  0,(IY+0),D         ; 4D82 FD CB 00 82
05399   4D86 FD CB 7F 82         res  0,(iy+127),d       ; 4D86 FD CB 7F 82
05400   4D8A FD CB 7F 82         RES  0,(IY+127),D       ; 4D8A FD CB 7F 82
05401   4D8E FD CB 80 83         res  0,(iy+-128),e      ; 4D8E FD CB 80 83
05402   4D92 FD CB 80 83         RES  0,(IY+-128),E      ; 4D92 FD CB 80 83
05403   4D96 FD CB FF 83         res  0,(iy+-1),e        ; 4D96 FD CB FF 83
05404   4D9A FD CB FF 83         RES  0,(IY+-1),E        ; 4D9A FD CB FF 83
05405   4D9E FD CB 00 83         res  0,(iy+0),e         ; 4D9E FD CB 00 83
05406   4DA2 FD CB 00 83         RES  0,(IY+0),E         ; 4DA2 FD CB 00 83
05407   4DA6 FD CB 7F 83         res  0,(iy+127),e       ; 4DA6 FD CB 7F 83
05408   4DAA FD CB 7F 83         RES  0,(IY+127),E       ; 4DAA FD CB 7F 83
05409   4DAE FD CB 80 84         res  0,(iy+-128),h      ; 4DAE FD CB 80 84
05410   4DB2 FD CB 80 84         RES  0,(IY+-128),H      ; 4DB2 FD CB 80 84
05411   4DB6 FD CB FF 84         res  0,(iy+-1),h        ; 4DB6 FD CB FF 84
05412   4DBA FD CB FF 84         RES  0,(IY+-1),H        ; 4DBA FD CB FF 84
05413   4DBE FD CB 00 84         res  0,(iy+0),h         ; 4DBE FD CB 00 84
05414   4DC2 FD CB 00 84         RES  0,(IY+0),H         ; 4DC2 FD CB 00 84
05415   4DC6 FD CB 7F 84         res  0,(iy+127),h       ; 4DC6 FD CB 7F 84
05416   4DCA FD CB 7F 84         RES  0,(IY+127),H       ; 4DCA FD CB 7F 84
05417   4DCE FD CB 80 85         res  0,(iy+-128),l      ; 4DCE FD CB 80 85
05418   4DD2 FD CB 80 85         RES  0,(IY+-128),L      ; 4DD2 FD CB 80 85
05419   4DD6 FD CB FF 85         res  0,(iy+-1),l        ; 4DD6 FD CB FF 85
05420   4DDA FD CB FF 85         RES  0,(IY+-1),L        ; 4DDA FD CB FF 85
05421   4DDE FD CB 00 85         res  0,(iy+0),l         ; 4DDE FD CB 00 85
05422   4DE2 FD CB 00 85         RES  0,(IY+0),L         ; 4DE2 FD CB 00 85
05423   4DE6 FD CB 7F 85         res  0,(iy+127),l       ; 4DE6 FD CB 7F 85
05424   4DEA FD CB 7F 85         RES  0,(IY+127),L       ; 4DEA FD CB 7F 85
05425   4DEE CB 86               res  0,[hl]             ; 4DEE CB 86
05426   4DF0 CB 86               RES  0,[HL]             ; 4DF0 CB 86
05427   4DF2 DD CB 80 86         res  0,[ix+-128]        ; 4DF2 DD CB 80 86
05428   4DF6 DD CB 80 86         RES  0,[IX+-128]        ; 4DF6 DD CB 80 86
05429   4DFA DD CB FF 86         res  0,[ix+-1]          ; 4DFA DD CB FF 86
05430   4DFE DD CB FF 86         RES  0,[IX+-1]          ; 4DFE DD CB FF 86
05431   4E02 DD CB 00 86         res  0,[ix+0]           ; 4E02 DD CB 00 86
05432   4E06 DD CB 00 86         RES  0,[IX+0]           ; 4E06 DD CB 00 86
05433   4E0A DD CB 7F 86         res  0,[ix+127]         ; 4E0A DD CB 7F 86
05434   4E0E DD CB 7F 86         RES  0,[IX+127]         ; 4E0E DD CB 7F 86
05435   4E12 DD CB 80 87         res  0,[ix+-128],a      ; 4E12 DD CB 80 87
05436   4E16 DD CB 80 87         RES  0,[IX+-128],A      ; 4E16 DD CB 80 87
05437   4E1A DD CB FF 87         res  0,[ix+-1],a        ; 4E1A DD CB FF 87
05438   4E1E DD CB FF 87         RES  0,[IX+-1],A        ; 4E1E DD CB FF 87
05439   4E22 DD CB 00 87         res  0,[ix+0],a         ; 4E22 DD CB 00 87
05440   4E26 DD CB 00 87         RES  0,[IX+0],A         ; 4E26 DD CB 00 87
05441   4E2A DD CB 7F 87         res  0,[ix+127],a       ; 4E2A DD CB 7F 87
05442   4E2E DD CB 7F 87         RES  0,[IX+127],A       ; 4E2E DD CB 7F 87
05443   4E32 DD CB 80 80         res  0,[ix+-128],b      ; 4E32 DD CB 80 80
05444   4E36 DD CB 80 80         RES  0,[IX+-128],B      ; 4E36 DD CB 80 80
05445   4E3A DD CB FF 80         res  0,[ix+-1],b        ; 4E3A DD CB FF 80
05446   4E3E DD CB FF 80         RES  0,[IX+-1],B        ; 4E3E DD CB FF 80
05447   4E42 DD CB 00 80         res  0,[ix+0],b         ; 4E42 DD CB 00 80
05448   4E46 DD CB 00 80         RES  0,[IX+0],B         ; 4E46 DD CB 00 80
05449   4E4A DD CB 7F 80         res  0,[ix+127],b       ; 4E4A DD CB 7F 80
05450   4E4E DD CB 7F 80         RES  0,[IX+127],B       ; 4E4E DD CB 7F 80
05451   4E52 DD CB 80 81         res  0,[ix+-128],c      ; 4E52 DD CB 80 81
05452   4E56 DD CB 80 81         RES  0,[IX+-128],C      ; 4E56 DD CB 80 81
05453   4E5A DD CB FF 81         res  0,[ix+-1],c        ; 4E5A DD CB FF 81
05454   4E5E DD CB FF 81         RES  0,[IX+-1],C        ; 4E5E DD CB FF 81
05455   4E62 DD CB 00 81         res  0,[ix+0],c         ; 4E62 DD CB 00 81
05456   4E66 DD CB 00 81         RES  0,[IX+0],C         ; 4E66 DD CB 00 81
05457   4E6A DD CB 7F 81         res  0,[ix+127],c       ; 4E6A DD CB 7F 81
05458   4E6E DD CB 7F 81         RES  0,[IX+127],C       ; 4E6E DD CB 7F 81
05459   4E72 DD CB 80 82         res  0,[ix+-128],d      ; 4E72 DD CB 80 82
05460   4E76 DD CB 80 82         RES  0,[IX+-128],D      ; 4E76 DD CB 80 82
05461   4E7A DD CB FF 82         res  0,[ix+-1],d        ; 4E7A DD CB FF 82
05462   4E7E DD CB FF 82         RES  0,[IX+-1],D        ; 4E7E DD CB FF 82
05463   4E82 DD CB 00 82         res  0,[ix+0],d         ; 4E82 DD CB 00 82
05464   4E86 DD CB 00 82         RES  0,[IX+0],D         ; 4E86 DD CB 00 82
05465   4E8A DD CB 7F 82         res  0,[ix+127],d       ; 4E8A DD CB 7F 82
05466   4E8E DD CB 7F 82         RES  0,[IX+127],D       ; 4E8E DD CB 7F 82
05467   4E92 DD CB 80 83         res  0,[ix+-128],e      ; 4E92 DD CB 80 83
05468   4E96 DD CB 80 83         RES  0,[IX+-128],E      ; 4E96 DD CB 80 83
05469   4E9A DD CB FF 83         res  0,[ix+-1],e        ; 4E9A DD CB FF 83
05470   4E9E DD CB FF 83         RES  0,[IX+-1],E        ; 4E9E DD CB FF 83
05471   4EA2 DD CB 00 83         res  0,[ix+0],e         ; 4EA2 DD CB 00 83
05472   4EA6 DD CB 00 83         RES  0,[IX+0],E         ; 4EA6 DD CB 00 83
05473   4EAA DD CB 7F 83         res  0,[ix+127],e       ; 4EAA DD CB 7F 83
05474   4EAE DD CB 7F 83         RES  0,[IX+127],E       ; 4EAE DD CB 7F 83
05475   4EB2 DD CB 80 84         res  0,[ix+-128],h      ; 4EB2 DD CB 80 84
05476   4EB6 DD CB 80 84         RES  0,[IX+-128],H      ; 4EB6 DD CB 80 84
05477   4EBA DD CB FF 84         res  0,[ix+-1],h        ; 4EBA DD CB FF 84
05478   4EBE DD CB FF 84         RES  0,[IX+-1],H        ; 4EBE DD CB FF 84
05479   4EC2 DD CB 00 84         res  0,[ix+0],h         ; 4EC2 DD CB 00 84
05480   4EC6 DD CB 00 84         RES  0,[IX+0],H         ; 4EC6 DD CB 00 84
05481   4ECA DD CB 7F 84         res  0,[ix+127],h       ; 4ECA DD CB 7F 84
05482   4ECE DD CB 7F 84         RES  0,[IX+127],H       ; 4ECE DD CB 7F 84
05483   4ED2 DD CB 80 85         res  0,[ix+-128],l      ; 4ED2 DD CB 80 85
05484   4ED6 DD CB 80 85         RES  0,[IX+-128],L      ; 4ED6 DD CB 80 85
05485   4EDA DD CB FF 85         res  0,[ix+-1],l        ; 4EDA DD CB FF 85
05486   4EDE DD CB FF 85         RES  0,[IX+-1],L        ; 4EDE DD CB FF 85
05487   4EE2 DD CB 00 85         res  0,[ix+0],l         ; 4EE2 DD CB 00 85
05488   4EE6 DD CB 00 85         RES  0,[IX+0],L         ; 4EE6 DD CB 00 85
05489   4EEA DD CB 7F 85         res  0,[ix+127],l       ; 4EEA DD CB 7F 85
05490   4EEE DD CB 7F 85         RES  0,[IX+127],L       ; 4EEE DD CB 7F 85
05491   4EF2 FD CB 80 86         res  0,[iy+-128]        ; 4EF2 FD CB 80 86
05492   4EF6 FD CB 80 86         RES  0,[IY+-128]        ; 4EF6 FD CB 80 86
05493   4EFA FD CB FF 86         res  0,[iy+-1]          ; 4EFA FD CB FF 86
05494   4EFE FD CB FF 86         RES  0,[IY+-1]          ; 4EFE FD CB FF 86
05495   4F02 FD CB 00 86         res  0,[iy+0]           ; 4F02 FD CB 00 86
05496   4F06 FD CB 00 86         RES  0,[IY+0]           ; 4F06 FD CB 00 86
05497   4F0A FD CB 7F 86         res  0,[iy+127]         ; 4F0A FD CB 7F 86
05498   4F0E FD CB 7F 86         RES  0,[IY+127]         ; 4F0E FD CB 7F 86
05499   4F12 FD CB 80 87         res  0,[iy+-128],a      ; 4F12 FD CB 80 87
05500   4F16 FD CB 80 87         RES  0,[IY+-128],A      ; 4F16 FD CB 80 87
05501   4F1A FD CB FF 87         res  0,[iy+-1],a        ; 4F1A FD CB FF 87
05502   4F1E FD CB FF 87         RES  0,[IY+-1],A        ; 4F1E FD CB FF 87
05503   4F22 FD CB 00 87         res  0,[iy+0],a         ; 4F22 FD CB 00 87
05504   4F26 FD CB 00 87         RES  0,[IY+0],A         ; 4F26 FD CB 00 87
05505   4F2A FD CB 7F 87         res  0,[iy+127],a       ; 4F2A FD CB 7F 87
05506   4F2E FD CB 7F 87         RES  0,[IY+127],A       ; 4F2E FD CB 7F 87
05507   4F32 FD CB 80 80         res  0,[iy+-128],b      ; 4F32 FD CB 80 80
05508   4F36 FD CB 80 80         RES  0,[IY+-128],B      ; 4F36 FD CB 80 80
05509   4F3A FD CB FF 80         res  0,[iy+-1],b        ; 4F3A FD CB FF 80
05510   4F3E FD CB FF 80         RES  0,[IY+-1],B        ; 4F3E FD CB FF 80
05511   4F42 FD CB 00 80         res  0,[iy+0],b         ; 4F42 FD CB 00 80
05512   4F46 FD CB 00 80         RES  0,[IY+0],B         ; 4F46 FD CB 00 80
05513   4F4A FD CB 7F 80         res  0,[iy+127],b       ; 4F4A FD CB 7F 80
05514   4F4E FD CB 7F 80         RES  0,[IY+127],B       ; 4F4E FD CB 7F 80
05515   4F52 FD CB 80 81         res  0,[iy+-128],c      ; 4F52 FD CB 80 81
05516   4F56 FD CB 80 81         RES  0,[IY+-128],C      ; 4F56 FD CB 80 81
05517   4F5A FD CB FF 81         res  0,[iy+-1],c        ; 4F5A FD CB FF 81
05518   4F5E FD CB FF 81         RES  0,[IY+-1],C        ; 4F5E FD CB FF 81
05519   4F62 FD CB 00 81         res  0,[iy+0],c         ; 4F62 FD CB 00 81
05520   4F66 FD CB 00 81         RES  0,[IY+0],C         ; 4F66 FD CB 00 81
05521   4F6A FD CB 7F 81         res  0,[iy+127],c       ; 4F6A FD CB 7F 81
05522   4F6E FD CB 7F 81         RES  0,[IY+127],C       ; 4F6E FD CB 7F 81
05523   4F72 FD CB 80 82         res  0,[iy+-128],d      ; 4F72 FD CB 80 82
05524   4F76 FD CB 80 82         RES  0,[IY+-128],D      ; 4F76 FD CB 80 82
05525   4F7A FD CB FF 82         res  0,[iy+-1],d        ; 4F7A FD CB FF 82
05526   4F7E FD CB FF 82         RES  0,[IY+-1],D        ; 4F7E FD CB FF 82
05527   4F82 FD CB 00 82         res  0,[iy+0],d         ; 4F82 FD CB 00 82
05528   4F86 FD CB 00 82         RES  0,[IY+0],D         ; 4F86 FD CB 00 82
05529   4F8A FD CB 7F 82         res  0,[iy+127],d       ; 4F8A FD CB 7F 82
05530   4F8E FD CB 7F 82         RES  0,[IY+127],D       ; 4F8E FD CB 7F 82
05531   4F92 FD CB 80 83         res  0,[iy+-128],e      ; 4F92 FD CB 80 83
05532   4F96 FD CB 80 83         RES  0,[IY+-128],E      ; 4F96 FD CB 80 83
05533   4F9A FD CB FF 83         res  0,[iy+-1],e        ; 4F9A FD CB FF 83
05534   4F9E FD CB FF 83         RES  0,[IY+-1],E        ; 4F9E FD CB FF 83
05535   4FA2 FD CB 00 83         res  0,[iy+0],e         ; 4FA2 FD CB 00 83
05536   4FA6 FD CB 00 83         RES  0,[IY+0],E         ; 4FA6 FD CB 00 83
05537   4FAA FD CB 7F 83         res  0,[iy+127],e       ; 4FAA FD CB 7F 83
05538   4FAE FD CB 7F 83         RES  0,[IY+127],E       ; 4FAE FD CB 7F 83
05539   4FB2 FD CB 80 84         res  0,[iy+-128],h      ; 4FB2 FD CB 80 84
05540   4FB6 FD CB 80 84         RES  0,[IY+-128],H      ; 4FB6 FD CB 80 84
05541   4FBA FD CB FF 84         res  0,[iy+-1],h        ; 4FBA FD CB FF 84
05542   4FBE FD CB FF 84         RES  0,[IY+-1],H        ; 4FBE FD CB FF 84
05543   4FC2 FD CB 00 84         res  0,[iy+0],h         ; 4FC2 FD CB 00 84
05544   4FC6 FD CB 00 84         RES  0,[IY+0],H         ; 4FC6 FD CB 00 84
05545   4FCA FD CB 7F 84         res  0,[iy+127],h       ; 4FCA FD CB 7F 84
05546   4FCE FD CB 7F 84         RES  0,[IY+127],H       ; 4FCE FD CB 7F 84
05547   4FD2 FD CB 80 85         res  0,[iy+-128],l      ; 4FD2 FD CB 80 85
05548   4FD6 FD CB 80 85         RES  0,[IY+-128],L      ; 4FD6 FD CB 80 85
05549   4FDA FD CB FF 85         res  0,[iy+-1],l        ; 4FDA FD CB FF 85
05550   4FDE FD CB FF 85         RES  0,[IY+-1],L        ; 4FDE FD CB FF 85
05551   4FE2 FD CB 00 85         res  0,[iy+0],l         ; 4FE2 FD CB 00 85
05552   4FE6 FD CB 00 85         RES  0,[IY+0],L         ; 4FE6 FD CB 00 85
05553   4FEA FD CB 7F 85         res  0,[iy+127],l       ; 4FEA FD CB 7F 85
05554   4FEE FD CB 7F 85         RES  0,[IY+127],L       ; 4FEE FD CB 7F 85
05555   4FF2 CB 87               res  0,a                ; 4FF2 CB 87
05556   4FF4 CB 87               RES  0,A                ; 4FF4 CB 87
05557   4FF6 CB 80               res  0,b                ; 4FF6 CB 80
05558   4FF8 CB 80               RES  0,B                ; 4FF8 CB 80
05559   4FFA CB 81               res  0,c                ; 4FFA CB 81
05560   4FFC CB 81               RES  0,C                ; 4FFC CB 81
05561   4FFE CB 82               res  0,d                ; 4FFE CB 82
05562   5000 CB 82               RES  0,D                ; 5000 CB 82
05563   5002 CB 83               res  0,e                ; 5002 CB 83
05564   5004 CB 83               RES  0,E                ; 5004 CB 83
05565   5006 CB 84               res  0,h                ; 5006 CB 84
05566   5008 CB 84               RES  0,H                ; 5008 CB 84
05567   500A CB 85               res  0,l                ; 500A CB 85
05568   500C CB 85               RES  0,L                ; 500C CB 85
05569   500E CB 8E               res  1,(hl)             ; 500E CB 8E
05570   5010 CB 8E               RES  1,(HL)             ; 5010 CB 8E
05571   5012 DD CB 80 8E         res  1,(ix+-128)        ; 5012 DD CB 80 8E
05572   5016 DD CB 80 8E         RES  1,(IX+-128)        ; 5016 DD CB 80 8E
05573   501A DD CB FF 8E         res  1,(ix+-1)          ; 501A DD CB FF 8E
05574   501E DD CB FF 8E         RES  1,(IX+-1)          ; 501E DD CB FF 8E
05575   5022 DD CB 00 8E         res  1,(ix+0)           ; 5022 DD CB 00 8E
05576   5026 DD CB 00 8E         RES  1,(IX+0)           ; 5026 DD CB 00 8E
05577   502A DD CB 7F 8E         res  1,(ix+127)         ; 502A DD CB 7F 8E
05578   502E DD CB 7F 8E         RES  1,(IX+127)         ; 502E DD CB 7F 8E
05579   5032 DD CB 80 8F         res  1,(ix+-128),a      ; 5032 DD CB 80 8F
05580   5036 DD CB 80 8F         RES  1,(IX+-128),A      ; 5036 DD CB 80 8F
05581   503A DD CB FF 8F         res  1,(ix+-1),a        ; 503A DD CB FF 8F
05582   503E DD CB FF 8F         RES  1,(IX+-1),A        ; 503E DD CB FF 8F
05583   5042 DD CB 00 8F         res  1,(ix+0),a         ; 5042 DD CB 00 8F
05584   5046 DD CB 00 8F         RES  1,(IX+0),A         ; 5046 DD CB 00 8F
05585   504A DD CB 7F 8F         res  1,(ix+127),a       ; 504A DD CB 7F 8F
05586   504E DD CB 7F 8F         RES  1,(IX+127),A       ; 504E DD CB 7F 8F
05587   5052 DD CB 80 88         res  1,(ix+-128),b      ; 5052 DD CB 80 88
05588   5056 DD CB 80 88         RES  1,(IX+-128),B      ; 5056 DD CB 80 88
05589   505A DD CB FF 88         res  1,(ix+-1),b        ; 505A DD CB FF 88
05590   505E DD CB FF 88         RES  1,(IX+-1),B        ; 505E DD CB FF 88
05591   5062 DD CB 00 88         res  1,(ix+0),b         ; 5062 DD CB 00 88
05592   5066 DD CB 00 88         RES  1,(IX+0),B         ; 5066 DD CB 00 88
05593   506A DD CB 7F 88         res  1,(ix+127),b       ; 506A DD CB 7F 88
05594   506E DD CB 7F 88         RES  1,(IX+127),B       ; 506E DD CB 7F 88
05595   5072 DD CB 80 89         res  1,(ix+-128),c      ; 5072 DD CB 80 89
05596   5076 DD CB 80 89         RES  1,(IX+-128),C      ; 5076 DD CB 80 89
05597   507A DD CB FF 89         res  1,(ix+-1),c        ; 507A DD CB FF 89
05598   507E DD CB FF 89         RES  1,(IX+-1),C        ; 507E DD CB FF 89
05599   5082 DD CB 00 89         res  1,(ix+0),c         ; 5082 DD CB 00 89
05600   5086 DD CB 00 89         RES  1,(IX+0),C         ; 5086 DD CB 00 89
05601   508A DD CB 7F 89         res  1,(ix+127),c       ; 508A DD CB 7F 89
05602   508E DD CB 7F 89         RES  1,(IX+127),C       ; 508E DD CB 7F 89
05603   5092 DD CB 80 8A         res  1,(ix+-128),d      ; 5092 DD CB 80 8A
05604   5096 DD CB 80 8A         RES  1,(IX+-128),D      ; 5096 DD CB 80 8A
05605   509A DD CB FF 8A         res  1,(ix+-1),d        ; 509A DD CB FF 8A
05606   509E DD CB FF 8A         RES  1,(IX+-1),D        ; 509E DD CB FF 8A
05607   50A2 DD CB 00 8A         res  1,(ix+0),d         ; 50A2 DD CB 00 8A
05608   50A6 DD CB 00 8A         RES  1,(IX+0),D         ; 50A6 DD CB 00 8A
05609   50AA DD CB 7F 8A         res  1,(ix+127),d       ; 50AA DD CB 7F 8A
05610   50AE DD CB 7F 8A         RES  1,(IX+127),D       ; 50AE DD CB 7F 8A
05611   50B2 DD CB 80 8B         res  1,(ix+-128),e      ; 50B2 DD CB 80 8B
05612   50B6 DD CB 80 8B         RES  1,(IX+-128),E      ; 50B6 DD CB 80 8B
05613   50BA DD CB FF 8B         res  1,(ix+-1),e        ; 50BA DD CB FF 8B
05614   50BE DD CB FF 8B         RES  1,(IX+-1),E        ; 50BE DD CB FF 8B
05615   50C2 DD CB 00 8B         res  1,(ix+0),e         ; 50C2 DD CB 00 8B
05616   50C6 DD CB 00 8B         RES  1,(IX+0),E         ; 50C6 DD CB 00 8B
05617   50CA DD CB 7F 8B         res  1,(ix+127),e       ; 50CA DD CB 7F 8B
05618   50CE DD CB 7F 8B         RES  1,(IX+127),E       ; 50CE DD CB 7F 8B
05619   50D2 DD CB 80 8C         res  1,(ix+-128),h      ; 50D2 DD CB 80 8C
05620   50D6 DD CB 80 8C         RES  1,(IX+-128),H      ; 50D6 DD CB 80 8C
05621   50DA DD CB FF 8C         res  1,(ix+-1),h        ; 50DA DD CB FF 8C
05622   50DE DD CB FF 8C         RES  1,(IX+-1),H        ; 50DE DD CB FF 8C
05623   50E2 DD CB 00 8C         res  1,(ix+0),h         ; 50E2 DD CB 00 8C
05624   50E6 DD CB 00 8C         RES  1,(IX+0),H         ; 50E6 DD CB 00 8C
05625   50EA DD CB 7F 8C         res  1,(ix+127),h       ; 50EA DD CB 7F 8C
05626   50EE DD CB 7F 8C         RES  1,(IX+127),H       ; 50EE DD CB 7F 8C
05627   50F2 DD CB 80 8D         res  1,(ix+-128),l      ; 50F2 DD CB 80 8D
05628   50F6 DD CB 80 8D         RES  1,(IX+-128),L      ; 50F6 DD CB 80 8D
05629   50FA DD CB FF 8D         res  1,(ix+-1),l        ; 50FA DD CB FF 8D
05630   50FE DD CB FF 8D         RES  1,(IX+-1),L        ; 50FE DD CB FF 8D
05631   5102 DD CB 00 8D         res  1,(ix+0),l         ; 5102 DD CB 00 8D
05632   5106 DD CB 00 8D         RES  1,(IX+0),L         ; 5106 DD CB 00 8D
05633   510A DD CB 7F 8D         res  1,(ix+127),l       ; 510A DD CB 7F 8D
05634   510E DD CB 7F 8D         RES  1,(IX+127),L       ; 510E DD CB 7F 8D
05635   5112 FD CB 80 8E         res  1,(iy+-128)        ; 5112 FD CB 80 8E
05636   5116 FD CB 80 8E         RES  1,(IY+-128)        ; 5116 FD CB 80 8E
05637   511A FD CB FF 8E         res  1,(iy+-1)          ; 511A FD CB FF 8E
05638   511E FD CB FF 8E         RES  1,(IY+-1)          ; 511E FD CB FF 8E
05639   5122 FD CB 00 8E         res  1,(iy+0)           ; 5122 FD CB 00 8E
05640   5126 FD CB 00 8E         RES  1,(IY+0)           ; 5126 FD CB 00 8E
05641   512A FD CB 7F 8E         res  1,(iy+127)         ; 512A FD CB 7F 8E
05642   512E FD CB 7F 8E         RES  1,(IY+127)         ; 512E FD CB 7F 8E
05643   5132 FD CB 80 8F         res  1,(iy+-128),a      ; 5132 FD CB 80 8F
05644   5136 FD CB 80 8F         RES  1,(IY+-128),A      ; 5136 FD CB 80 8F
05645   513A FD CB FF 8F         res  1,(iy+-1),a        ; 513A FD CB FF 8F
05646   513E FD CB FF 8F         RES  1,(IY+-1),A        ; 513E FD CB FF 8F
05647   5142 FD CB 00 8F         res  1,(iy+0),a         ; 5142 FD CB 00 8F
05648   5146 FD CB 00 8F         RES  1,(IY+0),A         ; 5146 FD CB 00 8F
05649   514A FD CB 7F 8F         res  1,(iy+127),a       ; 514A FD CB 7F 8F
05650   514E FD CB 7F 8F         RES  1,(IY+127),A       ; 514E FD CB 7F 8F
05651   5152 FD CB 80 88         res  1,(iy+-128),b      ; 5152 FD CB 80 88
05652   5156 FD CB 80 88         RES  1,(IY+-128),B      ; 5156 FD CB 80 88
05653   515A FD CB FF 88         res  1,(iy+-1),b        ; 515A FD CB FF 88
05654   515E FD CB FF 88         RES  1,(IY+-1),B        ; 515E FD CB FF 88
05655   5162 FD CB 00 88         res  1,(iy+0),b         ; 5162 FD CB 00 88
05656   5166 FD CB 00 88         RES  1,(IY+0),B         ; 5166 FD CB 00 88
05657   516A FD CB 7F 88         res  1,(iy+127),b       ; 516A FD CB 7F 88
05658   516E FD CB 7F 88         RES  1,(IY+127),B       ; 516E FD CB 7F 88
05659   5172 FD CB 80 89         res  1,(iy+-128),c      ; 5172 FD CB 80 89
05660   5176 FD CB 80 89         RES  1,(IY+-128),C      ; 5176 FD CB 80 89
05661   517A FD CB FF 89         res  1,(iy+-1),c        ; 517A FD CB FF 89
05662   517E FD CB FF 89         RES  1,(IY+-1),C        ; 517E FD CB FF 89
05663   5182 FD CB 00 89         res  1,(iy+0),c         ; 5182 FD CB 00 89
05664   5186 FD CB 00 89         RES  1,(IY+0),C         ; 5186 FD CB 00 89
05665   518A FD CB 7F 89         res  1,(iy+127),c       ; 518A FD CB 7F 89
05666   518E FD CB 7F 89         RES  1,(IY+127),C       ; 518E FD CB 7F 89
05667   5192 FD CB 80 8A         res  1,(iy+-128),d      ; 5192 FD CB 80 8A
05668   5196 FD CB 80 8A         RES  1,(IY+-128),D      ; 5196 FD CB 80 8A
05669   519A FD CB FF 8A         res  1,(iy+-1),d        ; 519A FD CB FF 8A
05670   519E FD CB FF 8A         RES  1,(IY+-1),D        ; 519E FD CB FF 8A
05671   51A2 FD CB 00 8A         res  1,(iy+0),d         ; 51A2 FD CB 00 8A
05672   51A6 FD CB 00 8A         RES  1,(IY+0),D         ; 51A6 FD CB 00 8A
05673   51AA FD CB 7F 8A         res  1,(iy+127),d       ; 51AA FD CB 7F 8A
05674   51AE FD CB 7F 8A         RES  1,(IY+127),D       ; 51AE FD CB 7F 8A
05675   51B2 FD CB 80 8B         res  1,(iy+-128),e      ; 51B2 FD CB 80 8B
05676   51B6 FD CB 80 8B         RES  1,(IY+-128),E      ; 51B6 FD CB 80 8B
05677   51BA FD CB FF 8B         res  1,(iy+-1),e        ; 51BA FD CB FF 8B
05678   51BE FD CB FF 8B         RES  1,(IY+-1),E        ; 51BE FD CB FF 8B
05679   51C2 FD CB 00 8B         res  1,(iy+0),e         ; 51C2 FD CB 00 8B
05680   51C6 FD CB 00 8B         RES  1,(IY+0),E         ; 51C6 FD CB 00 8B
05681   51CA FD CB 7F 8B         res  1,(iy+127),e       ; 51CA FD CB 7F 8B
05682   51CE FD CB 7F 8B         RES  1,(IY+127),E       ; 51CE FD CB 7F 8B
05683   51D2 FD CB 80 8C         res  1,(iy+-128),h      ; 51D2 FD CB 80 8C
05684   51D6 FD CB 80 8C         RES  1,(IY+-128),H      ; 51D6 FD CB 80 8C
05685   51DA FD CB FF 8C         res  1,(iy+-1),h        ; 51DA FD CB FF 8C
05686   51DE FD CB FF 8C         RES  1,(IY+-1),H        ; 51DE FD CB FF 8C
05687   51E2 FD CB 00 8C         res  1,(iy+0),h         ; 51E2 FD CB 00 8C
05688   51E6 FD CB 00 8C         RES  1,(IY+0),H         ; 51E6 FD CB 00 8C
05689   51EA FD CB 7F 8C         res  1,(iy+127),h       ; 51EA FD CB 7F 8C
05690   51EE FD CB 7F 8C         RES  1,(IY+127),H       ; 51EE FD CB 7F 8C
05691   51F2 FD CB 80 8D         res  1,(iy+-128),l      ; 51F2 FD CB 80 8D
05692   51F6 FD CB 80 8D         RES  1,(IY+-128),L      ; 51F6 FD CB 80 8D
05693   51FA FD CB FF 8D         res  1,(iy+-1),l        ; 51FA FD CB FF 8D
05694   51FE FD CB FF 8D         RES  1,(IY+-1),L        ; 51FE FD CB FF 8D
05695   5202 FD CB 00 8D         res  1,(iy+0),l         ; 5202 FD CB 00 8D
05696   5206 FD CB 00 8D         RES  1,(IY+0),L         ; 5206 FD CB 00 8D
05697   520A FD CB 7F 8D         res  1,(iy+127),l       ; 520A FD CB 7F 8D
05698   520E FD CB 7F 8D         RES  1,(IY+127),L       ; 520E FD CB 7F 8D
05699   5212 CB 8E               res  1,[hl]             ; 5212 CB 8E
05700   5214 CB 8E               RES  1,[HL]             ; 5214 CB 8E
05701   5216 DD CB 80 8E         res  1,[ix+-128]        ; 5216 DD CB 80 8E
05702   521A DD CB 80 8E         RES  1,[IX+-128]        ; 521A DD CB 80 8E
05703   521E DD CB FF 8E         res  1,[ix+-1]          ; 521E DD CB FF 8E
05704   5222 DD CB FF 8E         RES  1,[IX+-1]          ; 5222 DD CB FF 8E
05705   5226 DD CB 00 8E         res  1,[ix+0]           ; 5226 DD CB 00 8E
05706   522A DD CB 00 8E         RES  1,[IX+0]           ; 522A DD CB 00 8E
05707   522E DD CB 7F 8E         res  1,[ix+127]         ; 522E DD CB 7F 8E
05708   5232 DD CB 7F 8E         RES  1,[IX+127]         ; 5232 DD CB 7F 8E
05709   5236 DD CB 80 8F         res  1,[ix+-128],a      ; 5236 DD CB 80 8F
05710   523A DD CB 80 8F         RES  1,[IX+-128],A      ; 523A DD CB 80 8F
05711   523E DD CB FF 8F         res  1,[ix+-1],a        ; 523E DD CB FF 8F
05712   5242 DD CB FF 8F         RES  1,[IX+-1],A        ; 5242 DD CB FF 8F
05713   5246 DD CB 00 8F         res  1,[ix+0],a         ; 5246 DD CB 00 8F
05714   524A DD CB 00 8F         RES  1,[IX+0],A         ; 524A DD CB 00 8F
05715   524E DD CB 7F 8F         res  1,[ix+127],a       ; 524E DD CB 7F 8F
05716   5252 DD CB 7F 8F         RES  1,[IX+127],A       ; 5252 DD CB 7F 8F
05717   5256 DD CB 80 88         res  1,[ix+-128],b      ; 5256 DD CB 80 88
05718   525A DD CB 80 88         RES  1,[IX+-128],B      ; 525A DD CB 80 88
05719   525E DD CB FF 88         res  1,[ix+-1],b        ; 525E DD CB FF 88
05720   5262 DD CB FF 88         RES  1,[IX+-1],B        ; 5262 DD CB FF 88
05721   5266 DD CB 00 88         res  1,[ix+0],b         ; 5266 DD CB 00 88
05722   526A DD CB 00 88         RES  1,[IX+0],B         ; 526A DD CB 00 88
05723   526E DD CB 7F 88         res  1,[ix+127],b       ; 526E DD CB 7F 88
05724   5272 DD CB 7F 88         RES  1,[IX+127],B       ; 5272 DD CB 7F 88
05725   5276 DD CB 80 89         res  1,[ix+-128],c      ; 5276 DD CB 80 89
05726   527A DD CB 80 89         RES  1,[IX+-128],C      ; 527A DD CB 80 89
05727   527E DD CB FF 89         res  1,[ix+-1],c        ; 527E DD CB FF 89
05728   5282 DD CB FF 89         RES  1,[IX+-1],C        ; 5282 DD CB FF 89
05729   5286 DD CB 00 89         res  1,[ix+0],c         ; 5286 DD CB 00 89
05730   528A DD CB 00 89         RES  1,[IX+0],C         ; 528A DD CB 00 89
05731   528E DD CB 7F 89         res  1,[ix+127],c       ; 528E DD CB 7F 89
05732   5292 DD CB 7F 89         RES  1,[IX+127],C       ; 5292 DD CB 7F 89
05733   5296 DD CB 80 8A         res  1,[ix+-128],d      ; 5296 DD CB 80 8A
05734   529A DD CB 80 8A         RES  1,[IX+-128],D      ; 529A DD CB 80 8A
05735   529E DD CB FF 8A         res  1,[ix+-1],d        ; 529E DD CB FF 8A
05736   52A2 DD CB FF 8A         RES  1,[IX+-1],D        ; 52A2 DD CB FF 8A
05737   52A6 DD CB 00 8A         res  1,[ix+0],d         ; 52A6 DD CB 00 8A
05738   52AA DD CB 00 8A         RES  1,[IX+0],D         ; 52AA DD CB 00 8A
05739   52AE DD CB 7F 8A         res  1,[ix+127],d       ; 52AE DD CB 7F 8A
05740   52B2 DD CB 7F 8A         RES  1,[IX+127],D       ; 52B2 DD CB 7F 8A
05741   52B6 DD CB 80 8B         res  1,[ix+-128],e      ; 52B6 DD CB 80 8B
05742   52BA DD CB 80 8B         RES  1,[IX+-128],E      ; 52BA DD CB 80 8B
05743   52BE DD CB FF 8B         res  1,[ix+-1],e        ; 52BE DD CB FF 8B
05744   52C2 DD CB FF 8B         RES  1,[IX+-1],E        ; 52C2 DD CB FF 8B
05745   52C6 DD CB 00 8B         res  1,[ix+0],e         ; 52C6 DD CB 00 8B
05746   52CA DD CB 00 8B         RES  1,[IX+0],E         ; 52CA DD CB 00 8B
05747   52CE DD CB 7F 8B         res  1,[ix+127],e       ; 52CE DD CB 7F 8B
05748   52D2 DD CB 7F 8B         RES  1,[IX+127],E       ; 52D2 DD CB 7F 8B
05749   52D6 DD CB 80 8C         res  1,[ix+-128],h      ; 52D6 DD CB 80 8C
05750   52DA DD CB 80 8C         RES  1,[IX+-128],H      ; 52DA DD CB 80 8C
05751   52DE DD CB FF 8C         res  1,[ix+-1],h        ; 52DE DD CB FF 8C
05752   52E2 DD CB FF 8C         RES  1,[IX+-1],H        ; 52E2 DD CB FF 8C
05753   52E6 DD CB 00 8C         res  1,[ix+0],h         ; 52E6 DD CB 00 8C
05754   52EA DD CB 00 8C         RES  1,[IX+0],H         ; 52EA DD CB 00 8C
05755   52EE DD CB 7F 8C         res  1,[ix+127],h       ; 52EE DD CB 7F 8C
05756   52F2 DD CB 7F 8C         RES  1,[IX+127],H       ; 52F2 DD CB 7F 8C
05757   52F6 DD CB 80 8D         res  1,[ix+-128],l      ; 52F6 DD CB 80 8D
05758   52FA DD CB 80 8D         RES  1,[IX+-128],L      ; 52FA DD CB 80 8D
05759   52FE DD CB FF 8D         res  1,[ix+-1],l        ; 52FE DD CB FF 8D
05760   5302 DD CB FF 8D         RES  1,[IX+-1],L        ; 5302 DD CB FF 8D
05761   5306 DD CB 00 8D         res  1,[ix+0],l         ; 5306 DD CB 00 8D
05762   530A DD CB 00 8D         RES  1,[IX+0],L         ; 530A DD CB 00 8D
05763   530E DD CB 7F 8D         res  1,[ix+127],l       ; 530E DD CB 7F 8D
05764   5312 DD CB 7F 8D         RES  1,[IX+127],L       ; 5312 DD CB 7F 8D
05765   5316 FD CB 80 8E         res  1,[iy+-128]        ; 5316 FD CB 80 8E
05766   531A FD CB 80 8E         RES  1,[IY+-128]        ; 531A FD CB 80 8E
05767   531E FD CB FF 8E         res  1,[iy+-1]          ; 531E FD CB FF 8E
05768   5322 FD CB FF 8E         RES  1,[IY+-1]          ; 5322 FD CB FF 8E
05769   5326 FD CB 00 8E         res  1,[iy+0]           ; 5326 FD CB 00 8E
05770   532A FD CB 00 8E         RES  1,[IY+0]           ; 532A FD CB 00 8E
05771   532E FD CB 7F 8E         res  1,[iy+127]         ; 532E FD CB 7F 8E
05772   5332 FD CB 7F 8E         RES  1,[IY+127]         ; 5332 FD CB 7F 8E
05773   5336 FD CB 80 8F         res  1,[iy+-128],a      ; 5336 FD CB 80 8F
05774   533A FD CB 80 8F         RES  1,[IY+-128],A      ; 533A FD CB 80 8F
05775   533E FD CB FF 8F         res  1,[iy+-1],a        ; 533E FD CB FF 8F
05776   5342 FD CB FF 8F         RES  1,[IY+-1],A        ; 5342 FD CB FF 8F
05777   5346 FD CB 00 8F         res  1,[iy+0],a         ; 5346 FD CB 00 8F
05778   534A FD CB 00 8F         RES  1,[IY+0],A         ; 534A FD CB 00 8F
05779   534E FD CB 7F 8F         res  1,[iy+127],a       ; 534E FD CB 7F 8F
05780   5352 FD CB 7F 8F         RES  1,[IY+127],A       ; 5352 FD CB 7F 8F
05781   5356 FD CB 80 88         res  1,[iy+-128],b      ; 5356 FD CB 80 88
05782   535A FD CB 80 88         RES  1,[IY+-128],B      ; 535A FD CB 80 88
05783   535E FD CB FF 88         res  1,[iy+-1],b        ; 535E FD CB FF 88
05784   5362 FD CB FF 88         RES  1,[IY+-1],B        ; 5362 FD CB FF 88
05785   5366 FD CB 00 88         res  1,[iy+0],b         ; 5366 FD CB 00 88
05786   536A FD CB 00 88         RES  1,[IY+0],B         ; 536A FD CB 00 88
05787   536E FD CB 7F 88         res  1,[iy+127],b       ; 536E FD CB 7F 88
05788   5372 FD CB 7F 88         RES  1,[IY+127],B       ; 5372 FD CB 7F 88
05789   5376 FD CB 80 89         res  1,[iy+-128],c      ; 5376 FD CB 80 89
05790   537A FD CB 80 89         RES  1,[IY+-128],C      ; 537A FD CB 80 89
05791   537E FD CB FF 89         res  1,[iy+-1],c        ; 537E FD CB FF 89
05792   5382 FD CB FF 89         RES  1,[IY+-1],C        ; 5382 FD CB FF 89
05793   5386 FD CB 00 89         res  1,[iy+0],c         ; 5386 FD CB 00 89
05794   538A FD CB 00 89         RES  1,[IY+0],C         ; 538A FD CB 00 89
05795   538E FD CB 7F 89         res  1,[iy+127],c       ; 538E FD CB 7F 89
05796   5392 FD CB 7F 89         RES  1,[IY+127],C       ; 5392 FD CB 7F 89
05797   5396 FD CB 80 8A         res  1,[iy+-128],d      ; 5396 FD CB 80 8A
05798   539A FD CB 80 8A         RES  1,[IY+-128],D      ; 539A FD CB 80 8A
05799   539E FD CB FF 8A         res  1,[iy+-1],d        ; 539E FD CB FF 8A
05800   53A2 FD CB FF 8A         RES  1,[IY+-1],D        ; 53A2 FD CB FF 8A
05801   53A6 FD CB 00 8A         res  1,[iy+0],d         ; 53A6 FD CB 00 8A
05802   53AA FD CB 00 8A         RES  1,[IY+0],D         ; 53AA FD CB 00 8A
05803   53AE FD CB 7F 8A         res  1,[iy+127],d       ; 53AE FD CB 7F 8A
05804   53B2 FD CB 7F 8A         RES  1,[IY+127],D       ; 53B2 FD CB 7F 8A
05805   53B6 FD CB 80 8B         res  1,[iy+-128],e      ; 53B6 FD CB 80 8B
05806   53BA FD CB 80 8B         RES  1,[IY+-128],E      ; 53BA FD CB 80 8B
05807   53BE FD CB FF 8B         res  1,[iy+-1],e        ; 53BE FD CB FF 8B
05808   53C2 FD CB FF 8B         RES  1,[IY+-1],E        ; 53C2 FD CB FF 8B
05809   53C6 FD CB 00 8B         res  1,[iy+0],e         ; 53C6 FD CB 00 8B
05810   53CA FD CB 00 8B         RES  1,[IY+0],E         ; 53CA FD CB 00 8B
05811   53CE FD CB 7F 8B         res  1,[iy+127],e       ; 53CE FD CB 7F 8B
05812   53D2 FD CB 7F 8B         RES  1,[IY+127],E       ; 53D2 FD CB 7F 8B
05813   53D6 FD CB 80 8C         res  1,[iy+-128],h      ; 53D6 FD CB 80 8C
05814   53DA FD CB 80 8C         RES  1,[IY+-128],H      ; 53DA FD CB 80 8C
05815   53DE FD CB FF 8C         res  1,[iy+-1],h        ; 53DE FD CB FF 8C
05816   53E2 FD CB FF 8C         RES  1,[IY+-1],H        ; 53E2 FD CB FF 8C
05817   53E6 FD CB 00 8C         res  1,[iy+0],h         ; 53E6 FD CB 00 8C
05818   53EA FD CB 00 8C         RES  1,[IY+0],H         ; 53EA FD CB 00 8C
05819   53EE FD CB 7F 8C         res  1,[iy+127],h       ; 53EE FD CB 7F 8C
05820   53F2 FD CB 7F 8C         RES  1,[IY+127],H       ; 53F2 FD CB 7F 8C
05821   53F6 FD CB 80 8D         res  1,[iy+-128],l      ; 53F6 FD CB 80 8D
05822   53FA FD CB 80 8D         RES  1,[IY+-128],L      ; 53FA FD CB 80 8D
05823   53FE FD CB FF 8D         res  1,[iy+-1],l        ; 53FE FD CB FF 8D
05824   5402 FD CB FF 8D         RES  1,[IY+-1],L        ; 5402 FD CB FF 8D
05825   5406 FD CB 00 8D         res  1,[iy+0],l         ; 5406 FD CB 00 8D
05826   540A FD CB 00 8D         RES  1,[IY+0],L         ; 540A FD CB 00 8D
05827   540E FD CB 7F 8D         res  1,[iy+127],l       ; 540E FD CB 7F 8D
05828   5412 FD CB 7F 8D         RES  1,[IY+127],L       ; 5412 FD CB 7F 8D
05829   5416 CB 8F               res  1,a                ; 5416 CB 8F
05830   5418 CB 8F               RES  1,A                ; 5418 CB 8F
05831   541A CB 88               res  1,b                ; 541A CB 88
05832   541C CB 88               RES  1,B                ; 541C CB 88
05833   541E CB 89               res  1,c                ; 541E CB 89
05834   5420 CB 89               RES  1,C                ; 5420 CB 89
05835   5422 CB 8A               res  1,d                ; 5422 CB 8A
05836   5424 CB 8A               RES  1,D                ; 5424 CB 8A
05837   5426 CB 8B               res  1,e                ; 5426 CB 8B
05838   5428 CB 8B               RES  1,E                ; 5428 CB 8B
05839   542A CB 8C               res  1,h                ; 542A CB 8C
05840   542C CB 8C               RES  1,H                ; 542C CB 8C
05841   542E CB 8D               res  1,l                ; 542E CB 8D
05842   5430 CB 8D               RES  1,L                ; 5430 CB 8D
05843   5432 CB 96               res  2,(hl)             ; 5432 CB 96
05844   5434 CB 96               RES  2,(HL)             ; 5434 CB 96
05845   5436 DD CB 80 96         res  2,(ix+-128)        ; 5436 DD CB 80 96
05846   543A DD CB 80 96         RES  2,(IX+-128)        ; 543A DD CB 80 96
05847   543E DD CB FF 96         res  2,(ix+-1)          ; 543E DD CB FF 96
05848   5442 DD CB FF 96         RES  2,(IX+-1)          ; 5442 DD CB FF 96
05849   5446 DD CB 00 96         res  2,(ix+0)           ; 5446 DD CB 00 96
05850   544A DD CB 00 96         RES  2,(IX+0)           ; 544A DD CB 00 96
05851   544E DD CB 7F 96         res  2,(ix+127)         ; 544E DD CB 7F 96
05852   5452 DD CB 7F 96         RES  2,(IX+127)         ; 5452 DD CB 7F 96
05853   5456 DD CB 80 97         res  2,(ix+-128),a      ; 5456 DD CB 80 97
05854   545A DD CB 80 97         RES  2,(IX+-128),A      ; 545A DD CB 80 97
05855   545E DD CB FF 97         res  2,(ix+-1),a        ; 545E DD CB FF 97
05856   5462 DD CB FF 97         RES  2,(IX+-1),A        ; 5462 DD CB FF 97
05857   5466 DD CB 00 97         res  2,(ix+0),a         ; 5466 DD CB 00 97
05858   546A DD CB 00 97         RES  2,(IX+0),A         ; 546A DD CB 00 97
05859   546E DD CB 7F 97         res  2,(ix+127),a       ; 546E DD CB 7F 97
05860   5472 DD CB 7F 97         RES  2,(IX+127),A       ; 5472 DD CB 7F 97
05861   5476 DD CB 80 90         res  2,(ix+-128),b      ; 5476 DD CB 80 90
05862   547A DD CB 80 90         RES  2,(IX+-128),B      ; 547A DD CB 80 90
05863   547E DD CB FF 90         res  2,(ix+-1),b        ; 547E DD CB FF 90
05864   5482 DD CB FF 90         RES  2,(IX+-1),B        ; 5482 DD CB FF 90
05865   5486 DD CB 00 90         res  2,(ix+0),b         ; 5486 DD CB 00 90
05866   548A DD CB 00 90         RES  2,(IX+0),B         ; 548A DD CB 00 90
05867   548E DD CB 7F 90         res  2,(ix+127),b       ; 548E DD CB 7F 90
05868   5492 DD CB 7F 90         RES  2,(IX+127),B       ; 5492 DD CB 7F 90
05869   5496 DD CB 80 91         res  2,(ix+-128),c      ; 5496 DD CB 80 91
05870   549A DD CB 80 91         RES  2,(IX+-128),C      ; 549A DD CB 80 91
05871   549E DD CB FF 91         res  2,(ix+-1),c        ; 549E DD CB FF 91
05872   54A2 DD CB FF 91         RES  2,(IX+-1),C        ; 54A2 DD CB FF 91
05873   54A6 DD CB 00 91         res  2,(ix+0),c         ; 54A6 DD CB 00 91
05874   54AA DD CB 00 91         RES  2,(IX+0),C         ; 54AA DD CB 00 91
05875   54AE DD CB 7F 91         res  2,(ix+127),c       ; 54AE DD CB 7F 91
05876   54B2 DD CB 7F 91         RES  2,(IX+127),C       ; 54B2 DD CB 7F 91
05877   54B6 DD CB 80 92         res  2,(ix+-128),d      ; 54B6 DD CB 80 92
05878   54BA DD CB 80 92         RES  2,(IX+-128),D      ; 54BA DD CB 80 92
05879   54BE DD CB FF 92         res  2,(ix+-1),d        ; 54BE DD CB FF 92
05880   54C2 DD CB FF 92         RES  2,(IX+-1),D        ; 54C2 DD CB FF 92
05881   54C6 DD CB 00 92         res  2,(ix+0),d         ; 54C6 DD CB 00 92
05882   54CA DD CB 00 92         RES  2,(IX+0),D         ; 54CA DD CB 00 92
05883   54CE DD CB 7F 92         res  2,(ix+127),d       ; 54CE DD CB 7F 92
05884   54D2 DD CB 7F 92         RES  2,(IX+127),D       ; 54D2 DD CB 7F 92
05885   54D6 DD CB 80 93         res  2,(ix+-128),e      ; 54D6 DD CB 80 93
05886   54DA DD CB 80 93         RES  2,(IX+-128),E      ; 54DA DD CB 80 93
05887   54DE DD CB FF 93         res  2,(ix+-1),e        ; 54DE DD CB FF 93
05888   54E2 DD CB FF 93         RES  2,(IX+-1),E        ; 54E2 DD CB FF 93
05889   54E6 DD CB 00 93         res  2,(ix+0),e         ; 54E6 DD CB 00 93
05890   54EA DD CB 00 93         RES  2,(IX+0),E         ; 54EA DD CB 00 93
05891   54EE DD CB 7F 93         res  2,(ix+127),e       ; 54EE DD CB 7F 93
05892   54F2 DD CB 7F 93         RES  2,(IX+127),E       ; 54F2 DD CB 7F 93
05893   54F6 DD CB 80 94         res  2,(ix+-128),h      ; 54F6 DD CB 80 94
05894   54FA DD CB 80 94         RES  2,(IX+-128),H      ; 54FA DD CB 80 94
05895   54FE DD CB FF 94         res  2,(ix+-1),h        ; 54FE DD CB FF 94
05896   5502 DD CB FF 94         RES  2,(IX+-1),H        ; 5502 DD CB FF 94
05897   5506 DD CB 00 94         res  2,(ix+0),h         ; 5506 DD CB 00 94
05898   550A DD CB 00 94         RES  2,(IX+0),H         ; 550A DD CB 00 94
05899   550E DD CB 7F 94         res  2,(ix+127),h       ; 550E DD CB 7F 94
05900   5512 DD CB 7F 94         RES  2,(IX+127),H       ; 5512 DD CB 7F 94
05901   5516 DD CB 80 95         res  2,(ix+-128),l      ; 5516 DD CB 80 95
05902   551A DD CB 80 95         RES  2,(IX+-128),L      ; 551A DD CB 80 95
05903   551E DD CB FF 95         res  2,(ix+-1),l        ; 551E DD CB FF 95
05904   5522 DD CB FF 95         RES  2,(IX+-1),L        ; 5522 DD CB FF 95
05905   5526 DD CB 00 95         res  2,(ix+0),l         ; 5526 DD CB 00 95
05906   552A DD CB 00 95         RES  2,(IX+0),L         ; 552A DD CB 00 95
05907   552E DD CB 7F 95         res  2,(ix+127),l       ; 552E DD CB 7F 95
05908   5532 DD CB 7F 95         RES  2,(IX+127),L       ; 5532 DD CB 7F 95
05909   5536 FD CB 80 96         res  2,(iy+-128)        ; 5536 FD CB 80 96
05910   553A FD CB 80 96         RES  2,(IY+-128)        ; 553A FD CB 80 96
05911   553E FD CB FF 96         res  2,(iy+-1)          ; 553E FD CB FF 96
05912   5542 FD CB FF 96         RES  2,(IY+-1)          ; 5542 FD CB FF 96
05913   5546 FD CB 00 96         res  2,(iy+0)           ; 5546 FD CB 00 96
05914   554A FD CB 00 96         RES  2,(IY+0)           ; 554A FD CB 00 96
05915   554E FD CB 7F 96         res  2,(iy+127)         ; 554E FD CB 7F 96
05916   5552 FD CB 7F 96         RES  2,(IY+127)         ; 5552 FD CB 7F 96
05917   5556 FD CB 80 97         res  2,(iy+-128),a      ; 5556 FD CB 80 97
05918   555A FD CB 80 97         RES  2,(IY+-128),A      ; 555A FD CB 80 97
05919   555E FD CB FF 97         res  2,(iy+-1),a        ; 555E FD CB FF 97
05920   5562 FD CB FF 97         RES  2,(IY+-1),A        ; 5562 FD CB FF 97
05921   5566 FD CB 00 97         res  2,(iy+0),a         ; 5566 FD CB 00 97
05922   556A FD CB 00 97         RES  2,(IY+0),A         ; 556A FD CB 00 97
05923   556E FD CB 7F 97         res  2,(iy+127),a       ; 556E FD CB 7F 97
05924   5572 FD CB 7F 97         RES  2,(IY+127),A       ; 5572 FD CB 7F 97
05925   5576 FD CB 80 90         res  2,(iy+-128),b      ; 5576 FD CB 80 90
05926   557A FD CB 80 90         RES  2,(IY+-128),B      ; 557A FD CB 80 90
05927   557E FD CB FF 90         res  2,(iy+-1),b        ; 557E FD CB FF 90
05928   5582 FD CB FF 90         RES  2,(IY+-1),B        ; 5582 FD CB FF 90
05929   5586 FD CB 00 90         res  2,(iy+0),b         ; 5586 FD CB 00 90
05930   558A FD CB 00 90         RES  2,(IY+0),B         ; 558A FD CB 00 90
05931   558E FD CB 7F 90         res  2,(iy+127),b       ; 558E FD CB 7F 90
05932   5592 FD CB 7F 90         RES  2,(IY+127),B       ; 5592 FD CB 7F 90
05933   5596 FD CB 80 91         res  2,(iy+-128),c      ; 5596 FD CB 80 91
05934   559A FD CB 80 91         RES  2,(IY+-128),C      ; 559A FD CB 80 91
05935   559E FD CB FF 91         res  2,(iy+-1),c        ; 559E FD CB FF 91
05936   55A2 FD CB FF 91         RES  2,(IY+-1),C        ; 55A2 FD CB FF 91
05937   55A6 FD CB 00 91         res  2,(iy+0),c         ; 55A6 FD CB 00 91
05938   55AA FD CB 00 91         RES  2,(IY+0),C         ; 55AA FD CB 00 91
05939   55AE FD CB 7F 91         res  2,(iy+127),c       ; 55AE FD CB 7F 91
05940   55B2 FD CB 7F 91         RES  2,(IY+127),C       ; 55B2 FD CB 7F 91
05941   55B6 FD CB 80 92         res  2,(iy+-128),d      ; 55B6 FD CB 80 92
05942   55BA FD CB 80 92         RES  2,(IY+-128),D      ; 55BA FD CB 80 92
05943   55BE FD CB FF 92         res  2,(iy+-1),d        ; 55BE FD CB FF 92
05944   55C2 FD CB FF 92         RES  2,(IY+-1),D        ; 55C2 FD CB FF 92
05945   55C6 FD CB 00 92         res  2,(iy+0),d         ; 55C6 FD CB 00 92
05946   55CA FD CB 00 92         RES  2,(IY+0),D         ; 55CA FD CB 00 92
05947   55CE FD CB 7F 92         res  2,(iy+127),d       ; 55CE FD CB 7F 92
05948   55D2 FD CB 7F 92         RES  2,(IY+127),D       ; 55D2 FD CB 7F 92
05949   55D6 FD CB 80 93         res  2,(iy+-128),e      ; 55D6 FD CB 80 93
05950   55DA FD CB 80 93         RES  2,(IY+-128),E      ; 55DA FD CB 80 93
05951   55DE FD CB FF 93         res  2,(iy+-1),e        ; 55DE FD CB FF 93
05952   55E2 FD CB FF 93         RES  2,(IY+-1),E        ; 55E2 FD CB FF 93
05953   55E6 FD CB 00 93         res  2,(iy+0),e         ; 55E6 FD CB 00 93
05954   55EA FD CB 00 93         RES  2,(IY+0),E         ; 55EA FD CB 00 93
05955   55EE FD CB 7F 93         res  2,(iy+127),e       ; 55EE FD CB 7F 93
05956   55F2 FD CB 7F 93         RES  2,(IY+127),E       ; 55F2 FD CB 7F 93
05957   55F6 FD CB 80 94         res  2,(iy+-128),h      ; 55F6 FD CB 80 94
05958   55FA FD CB 80 94         RES  2,(IY+-128),H      ; 55FA FD CB 80 94
05959   55FE FD CB FF 94         res  2,(iy+-1),h        ; 55FE FD CB FF 94
05960   5602 FD CB FF 94         RES  2,(IY+-1),H        ; 5602 FD CB FF 94
05961   5606 FD CB 00 94         res  2,(iy+0),h         ; 5606 FD CB 00 94
05962   560A FD CB 00 94         RES  2,(IY+0),H         ; 560A FD CB 00 94
05963   560E FD CB 7F 94         res  2,(iy+127),h       ; 560E FD CB 7F 94
05964   5612 FD CB 7F 94         RES  2,(IY+127),H       ; 5612 FD CB 7F 94
05965   5616 FD CB 80 95         res  2,(iy+-128),l      ; 5616 FD CB 80 95
05966   561A FD CB 80 95         RES  2,(IY+-128),L      ; 561A FD CB 80 95
05967   561E FD CB FF 95         res  2,(iy+-1),l        ; 561E FD CB FF 95
05968   5622 FD CB FF 95         RES  2,(IY+-1),L        ; 5622 FD CB FF 95
05969   5626 FD CB 00 95         res  2,(iy+0),l         ; 5626 FD CB 00 95
05970   562A FD CB 00 95         RES  2,(IY+0),L         ; 562A FD CB 00 95
05971   562E FD CB 7F 95         res  2,(iy+127),l       ; 562E FD CB 7F 95
05972   5632 FD CB 7F 95         RES  2,(IY+127),L       ; 5632 FD CB 7F 95
05973   5636 CB 96               res  2,[hl]             ; 5636 CB 96
05974   5638 CB 96               RES  2,[HL]             ; 5638 CB 96
05975   563A DD CB 80 96         res  2,[ix+-128]        ; 563A DD CB 80 96
05976   563E DD CB 80 96         RES  2,[IX+-128]        ; 563E DD CB 80 96
05977   5642 DD CB FF 96         res  2,[ix+-1]          ; 5642 DD CB FF 96
05978   5646 DD CB FF 96         RES  2,[IX+-1]          ; 5646 DD CB FF 96
05979   564A DD CB 00 96         res  2,[ix+0]           ; 564A DD CB 00 96
05980   564E DD CB 00 96         RES  2,[IX+0]           ; 564E DD CB 00 96
05981   5652 DD CB 7F 96         res  2,[ix+127]         ; 5652 DD CB 7F 96
05982   5656 DD CB 7F 96         RES  2,[IX+127]         ; 5656 DD CB 7F 96
05983   565A DD CB 80 97         res  2,[ix+-128],a      ; 565A DD CB 80 97
05984   565E DD CB 80 97         RES  2,[IX+-128],A      ; 565E DD CB 80 97
05985   5662 DD CB FF 97         res  2,[ix+-1],a        ; 5662 DD CB FF 97
05986   5666 DD CB FF 97         RES  2,[IX+-1],A        ; 5666 DD CB FF 97
05987   566A DD CB 00 97         res  2,[ix+0],a         ; 566A DD CB 00 97
05988   566E DD CB 00 97         RES  2,[IX+0],A         ; 566E DD CB 00 97
05989   5672 DD CB 7F 97         res  2,[ix+127],a       ; 5672 DD CB 7F 97
05990   5676 DD CB 7F 97         RES  2,[IX+127],A       ; 5676 DD CB 7F 97
05991   567A DD CB 80 90         res  2,[ix+-128],b      ; 567A DD CB 80 90
05992   567E DD CB 80 90         RES  2,[IX+-128],B      ; 567E DD CB 80 90
05993   5682 DD CB FF 90         res  2,[ix+-1],b        ; 5682 DD CB FF 90
05994   5686 DD CB FF 90         RES  2,[IX+-1],B        ; 5686 DD CB FF 90
05995   568A DD CB 00 90         res  2,[ix+0],b         ; 568A DD CB 00 90
05996   568E DD CB 00 90         RES  2,[IX+0],B         ; 568E DD CB 00 90
05997   5692 DD CB 7F 90         res  2,[ix+127],b       ; 5692 DD CB 7F 90
05998   5696 DD CB 7F 90         RES  2,[IX+127],B       ; 5696 DD CB 7F 90
05999   569A DD CB 80 91         res  2,[ix+-128],c      ; 569A DD CB 80 91
06000   569E DD CB 80 91         RES  2,[IX+-128],C      ; 569E DD CB 80 91
06001   56A2 DD CB FF 91         res  2,[ix+-1],c        ; 56A2 DD CB FF 91
06002   56A6 DD CB FF 91         RES  2,[IX+-1],C        ; 56A6 DD CB FF 91
06003   56AA DD CB 00 91         res  2,[ix+0],c         ; 56AA DD CB 00 91
06004   56AE DD CB 00 91         RES  2,[IX+0],C         ; 56AE DD CB 00 91
06005   56B2 DD CB 7F 91         res  2,[ix+127],c       ; 56B2 DD CB 7F 91
06006   56B6 DD CB 7F 91         RES  2,[IX+127],C       ; 56B6 DD CB 7F 91
06007   56BA DD CB 80 92         res  2,[ix+-128],d      ; 56BA DD CB 80 92
06008   56BE DD CB 80 92         RES  2,[IX+-128],D      ; 56BE DD CB 80 92
06009   56C2 DD CB FF 92         res  2,[ix+-1],d        ; 56C2 DD CB FF 92
06010   56C6 DD CB FF 92         RES  2,[IX+-1],D        ; 56C6 DD CB FF 92
06011   56CA DD CB 00 92         res  2,[ix+0],d         ; 56CA DD CB 00 92
06012   56CE DD CB 00 92         RES  2,[IX+0],D         ; 56CE DD CB 00 92
06013   56D2 DD CB 7F 92         res  2,[ix+127],d       ; 56D2 DD CB 7F 92
06014   56D6 DD CB 7F 92         RES  2,[IX+127],D       ; 56D6 DD CB 7F 92
06015   56DA DD CB 80 93         res  2,[ix+-128],e      ; 56DA DD CB 80 93
06016   56DE DD CB 80 93         RES  2,[IX+-128],E      ; 56DE DD CB 80 93
06017   56E2 DD CB FF 93         res  2,[ix+-1],e        ; 56E2 DD CB FF 93
06018   56E6 DD CB FF 93         RES  2,[IX+-1],E        ; 56E6 DD CB FF 93
06019   56EA DD CB 00 93         res  2,[ix+0],e         ; 56EA DD CB 00 93
06020   56EE DD CB 00 93         RES  2,[IX+0],E         ; 56EE DD CB 00 93
06021   56F2 DD CB 7F 93         res  2,[ix+127],e       ; 56F2 DD CB 7F 93
06022   56F6 DD CB 7F 93         RES  2,[IX+127],E       ; 56F6 DD CB 7F 93
06023   56FA DD CB 80 94         res  2,[ix+-128],h      ; 56FA DD CB 80 94
06024   56FE DD CB 80 94         RES  2,[IX+-128],H      ; 56FE DD CB 80 94
06025   5702 DD CB FF 94         res  2,[ix+-1],h        ; 5702 DD CB FF 94
06026   5706 DD CB FF 94         RES  2,[IX+-1],H        ; 5706 DD CB FF 94
06027   570A DD CB 00 94         res  2,[ix+0],h         ; 570A DD CB 00 94
06028   570E DD CB 00 94         RES  2,[IX+0],H         ; 570E DD CB 00 94
06029   5712 DD CB 7F 94         res  2,[ix+127],h       ; 5712 DD CB 7F 94
06030   5716 DD CB 7F 94         RES  2,[IX+127],H       ; 5716 DD CB 7F 94
06031   571A DD CB 80 95         res  2,[ix+-128],l      ; 571A DD CB 80 95
06032   571E DD CB 80 95         RES  2,[IX+-128],L      ; 571E DD CB 80 95
06033   5722 DD CB FF 95         res  2,[ix+-1],l        ; 5722 DD CB FF 95
06034   5726 DD CB FF 95         RES  2,[IX+-1],L        ; 5726 DD CB FF 95
06035   572A DD CB 00 95         res  2,[ix+0],l         ; 572A DD CB 00 95
06036   572E DD CB 00 95         RES  2,[IX+0],L         ; 572E DD CB 00 95
06037   5732 DD CB 7F 95         res  2,[ix+127],l       ; 5732 DD CB 7F 95
06038   5736 DD CB 7F 95         RES  2,[IX+127],L       ; 5736 DD CB 7F 95
06039   573A FD CB 80 96         res  2,[iy+-128]        ; 573A FD CB 80 96
06040   573E FD CB 80 96         RES  2,[IY+-128]        ; 573E FD CB 80 96
06041   5742 FD CB FF 96         res  2,[iy+-1]          ; 5742 FD CB FF 96
06042   5746 FD CB FF 96         RES  2,[IY+-1]          ; 5746 FD CB FF 96
06043   574A FD CB 00 96         res  2,[iy+0]           ; 574A FD CB 00 96
06044   574E FD CB 00 96         RES  2,[IY+0]           ; 574E FD CB 00 96
06045   5752 FD CB 7F 96         res  2,[iy+127]         ; 5752 FD CB 7F 96
06046   5756 FD CB 7F 96         RES  2,[IY+127]         ; 5756 FD CB 7F 96
06047   575A FD CB 80 97         res  2,[iy+-128],a      ; 575A FD CB 80 97
06048   575E FD CB 80 97         RES  2,[IY+-128],A      ; 575E FD CB 80 97
06049   5762 FD CB FF 97         res  2,[iy+-1],a        ; 5762 FD CB FF 97
06050   5766 FD CB FF 97         RES  2,[IY+-1],A        ; 5766 FD CB FF 97
06051   576A FD CB 00 97         res  2,[iy+0],a         ; 576A FD CB 00 97
06052   576E FD CB 00 97         RES  2,[IY+0],A         ; 576E FD CB 00 97
06053   5772 FD CB 7F 97         res  2,[iy+127],a       ; 5772 FD CB 7F 97
06054   5776 FD CB 7F 97         RES  2,[IY+127],A       ; 5776 FD CB 7F 97
06055   577A FD CB 80 90         res  2,[iy+-128],b      ; 577A FD CB 80 90
06056   577E FD CB 80 90         RES  2,[IY+-128],B      ; 577E FD CB 80 90
06057   5782 FD CB FF 90         res  2,[iy+-1],b        ; 5782 FD CB FF 90
06058   5786 FD CB FF 90         RES  2,[IY+-1],B        ; 5786 FD CB FF 90
06059   578A FD CB 00 90         res  2,[iy+0],b         ; 578A FD CB 00 90
06060   578E FD CB 00 90         RES  2,[IY+0],B         ; 578E FD CB 00 90
06061   5792 FD CB 7F 90         res  2,[iy+127],b       ; 5792 FD CB 7F 90
06062   5796 FD CB 7F 90         RES  2,[IY+127],B       ; 5796 FD CB 7F 90
06063   579A FD CB 80 91         res  2,[iy+-128],c      ; 579A FD CB 80 91
06064   579E FD CB 80 91         RES  2,[IY+-128],C      ; 579E FD CB 80 91
06065   57A2 FD CB FF 91         res  2,[iy+-1],c        ; 57A2 FD CB FF 91
06066   57A6 FD CB FF 91         RES  2,[IY+-1],C        ; 57A6 FD CB FF 91
06067   57AA FD CB 00 91         res  2,[iy+0],c         ; 57AA FD CB 00 91
06068   57AE FD CB 00 91         RES  2,[IY+0],C         ; 57AE FD CB 00 91
06069   57B2 FD CB 7F 91         res  2,[iy+127],c       ; 57B2 FD CB 7F 91
06070   57B6 FD CB 7F 91         RES  2,[IY+127],C       ; 57B6 FD CB 7F 91
06071   57BA FD CB 80 92         res  2,[iy+-128],d      ; 57BA FD CB 80 92
06072   57BE FD CB 80 92         RES  2,[IY+-128],D      ; 57BE FD CB 80 92
06073   57C2 FD CB FF 92         res  2,[iy+-1],d        ; 57C2 FD CB FF 92
06074   57C6 FD CB FF 92         RES  2,[IY+-1],D        ; 57C6 FD CB FF 92
06075   57CA FD CB 00 92         res  2,[iy+0],d         ; 57CA FD CB 00 92
06076   57CE FD CB 00 92         RES  2,[IY+0],D         ; 57CE FD CB 00 92
06077   57D2 FD CB 7F 92         res  2,[iy+127],d       ; 57D2 FD CB 7F 92
06078   57D6 FD CB 7F 92         RES  2,[IY+127],D       ; 57D6 FD CB 7F 92
06079   57DA FD CB 80 93         res  2,[iy+-128],e      ; 57DA FD CB 80 93
06080   57DE FD CB 80 93         RES  2,[IY+-128],E      ; 57DE FD CB 80 93
06081   57E2 FD CB FF 93         res  2,[iy+-1],e        ; 57E2 FD CB FF 93
06082   57E6 FD CB FF 93         RES  2,[IY+-1],E        ; 57E6 FD CB FF 93
06083   57EA FD CB 00 93         res  2,[iy+0],e         ; 57EA FD CB 00 93
06084   57EE FD CB 00 93         RES  2,[IY+0],E         ; 57EE FD CB 00 93
06085   57F2 FD CB 7F 93         res  2,[iy+127],e       ; 57F2 FD CB 7F 93
06086   57F6 FD CB 7F 93         RES  2,[IY+127],E       ; 57F6 FD CB 7F 93
06087   57FA FD CB 80 94         res  2,[iy+-128],h      ; 57FA FD CB 80 94
06088   57FE FD CB 80 94         RES  2,[IY+-128],H      ; 57FE FD CB 80 94
06089   5802 FD CB FF 94         res  2,[iy+-1],h        ; 5802 FD CB FF 94
06090   5806 FD CB FF 94         RES  2,[IY+-1],H        ; 5806 FD CB FF 94
06091   580A FD CB 00 94         res  2,[iy+0],h         ; 580A FD CB 00 94
06092   580E FD CB 00 94         RES  2,[IY+0],H         ; 580E FD CB 00 94
06093   5812 FD CB 7F 94         res  2,[iy+127],h       ; 5812 FD CB 7F 94
06094   5816 FD CB 7F 94         RES  2,[IY+127],H       ; 5816 FD CB 7F 94
06095   581A FD CB 80 95         res  2,[iy+-128],l      ; 581A FD CB 80 95
06096   581E FD CB 80 95         RES  2,[IY+-128],L      ; 581E FD CB 80 95
06097   5822 FD CB FF 95         res  2,[iy+-1],l        ; 5822 FD CB FF 95
06098   5826 FD CB FF 95         RES  2,[IY+-1],L        ; 5826 FD CB FF 95
06099   582A FD CB 00 95         res  2,[iy+0],l         ; 582A FD CB 00 95
06100   582E FD CB 00 95         RES  2,[IY+0],L         ; 582E FD CB 00 95
06101   5832 FD CB 7F 95         res  2,[iy+127],l       ; 5832 FD CB 7F 95
06102   5836 FD CB 7F 95         RES  2,[IY+127],L       ; 5836 FD CB 7F 95
06103   583A CB 97               res  2,a                ; 583A CB 97
06104   583C CB 97               RES  2,A                ; 583C CB 97
06105   583E CB 90               res  2,b                ; 583E CB 90
06106   5840 CB 90               RES  2,B                ; 5840 CB 90
06107   5842 CB 91               res  2,c                ; 5842 CB 91
06108   5844 CB 91               RES  2,C                ; 5844 CB 91
06109   5846 CB 92               res  2,d                ; 5846 CB 92
06110   5848 CB 92               RES  2,D                ; 5848 CB 92
06111   584A CB 93               res  2,e                ; 584A CB 93
06112   584C CB 93               RES  2,E                ; 584C CB 93
06113   584E CB 94               res  2,h                ; 584E CB 94
06114   5850 CB 94               RES  2,H                ; 5850 CB 94
06115   5852 CB 95               res  2,l                ; 5852 CB 95
06116   5854 CB 95               RES  2,L                ; 5854 CB 95
06117   5856 CB 9E               res  3,(hl)             ; 5856 CB 9E
06118   5858 CB 9E               RES  3,(HL)             ; 5858 CB 9E
06119   585A DD CB 80 9E         res  3,(ix+-128)        ; 585A DD CB 80 9E
06120   585E DD CB 80 9E         RES  3,(IX+-128)        ; 585E DD CB 80 9E
06121   5862 DD CB FF 9E         res  3,(ix+-1)          ; 5862 DD CB FF 9E
06122   5866 DD CB FF 9E         RES  3,(IX+-1)          ; 5866 DD CB FF 9E
06123   586A DD CB 00 9E         res  3,(ix+0)           ; 586A DD CB 00 9E
06124   586E DD CB 00 9E         RES  3,(IX+0)           ; 586E DD CB 00 9E
06125   5872 DD CB 7F 9E         res  3,(ix+127)         ; 5872 DD CB 7F 9E
06126   5876 DD CB 7F 9E         RES  3,(IX+127)         ; 5876 DD CB 7F 9E
06127   587A DD CB 80 9F         res  3,(ix+-128),a      ; 587A DD CB 80 9F
06128   587E DD CB 80 9F         RES  3,(IX+-128),A      ; 587E DD CB 80 9F
06129   5882 DD CB FF 9F         res  3,(ix+-1),a        ; 5882 DD CB FF 9F
06130   5886 DD CB FF 9F         RES  3,(IX+-1),A        ; 5886 DD CB FF 9F
06131   588A DD CB 00 9F         res  3,(ix+0),a         ; 588A DD CB 00 9F
06132   588E DD CB 00 9F         RES  3,(IX+0),A         ; 588E DD CB 00 9F
06133   5892 DD CB 7F 9F         res  3,(ix+127),a       ; 5892 DD CB 7F 9F
06134   5896 DD CB 7F 9F         RES  3,(IX+127),A       ; 5896 DD CB 7F 9F
06135   589A DD CB 80 98         res  3,(ix+-128),b      ; 589A DD CB 80 98
06136   589E DD CB 80 98         RES  3,(IX+-128),B      ; 589E DD CB 80 98
06137   58A2 DD CB FF 98         res  3,(ix+-1),b        ; 58A2 DD CB FF 98
06138   58A6 DD CB FF 98         RES  3,(IX+-1),B        ; 58A6 DD CB FF 98
06139   58AA DD CB 00 98         res  3,(ix+0),b         ; 58AA DD CB 00 98
06140   58AE DD CB 00 98         RES  3,(IX+0),B         ; 58AE DD CB 00 98
06141   58B2 DD CB 7F 98         res  3,(ix+127),b       ; 58B2 DD CB 7F 98
06142   58B6 DD CB 7F 98         RES  3,(IX+127),B       ; 58B6 DD CB 7F 98
06143   58BA DD CB 80 99         res  3,(ix+-128),c      ; 58BA DD CB 80 99
06144   58BE DD CB 80 99         RES  3,(IX+-128),C      ; 58BE DD CB 80 99
06145   58C2 DD CB FF 99         res  3,(ix+-1),c        ; 58C2 DD CB FF 99
06146   58C6 DD CB FF 99         RES  3,(IX+-1),C        ; 58C6 DD CB FF 99
06147   58CA DD CB 00 99         res  3,(ix+0),c         ; 58CA DD CB 00 99
06148   58CE DD CB 00 99         RES  3,(IX+0),C         ; 58CE DD CB 00 99
06149   58D2 DD CB 7F 99         res  3,(ix+127),c       ; 58D2 DD CB 7F 99
06150   58D6 DD CB 7F 99         RES  3,(IX+127),C       ; 58D6 DD CB 7F 99
06151   58DA DD CB 80 9A         res  3,(ix+-128),d      ; 58DA DD CB 80 9A
06152   58DE DD CB 80 9A         RES  3,(IX+-128),D      ; 58DE DD CB 80 9A
06153   58E2 DD CB FF 9A         res  3,(ix+-1),d        ; 58E2 DD CB FF 9A
06154   58E6 DD CB FF 9A         RES  3,(IX+-1),D        ; 58E6 DD CB FF 9A
06155   58EA DD CB 00 9A         res  3,(ix+0),d         ; 58EA DD CB 00 9A
06156   58EE DD CB 00 9A         RES  3,(IX+0),D         ; 58EE DD CB 00 9A
06157   58F2 DD CB 7F 9A         res  3,(ix+127),d       ; 58F2 DD CB 7F 9A
06158   58F6 DD CB 7F 9A         RES  3,(IX+127),D       ; 58F6 DD CB 7F 9A
06159   58FA DD CB 80 9B         res  3,(ix+-128),e      ; 58FA DD CB 80 9B
06160   58FE DD CB 80 9B         RES  3,(IX+-128),E      ; 58FE DD CB 80 9B
06161   5902 DD CB FF 9B         res  3,(ix+-1),e        ; 5902 DD CB FF 9B
06162   5906 DD CB FF 9B         RES  3,(IX+-1),E        ; 5906 DD CB FF 9B
06163   590A DD CB 00 9B         res  3,(ix+0),e         ; 590A DD CB 00 9B
06164   590E DD CB 00 9B         RES  3,(IX+0),E         ; 590E DD CB 00 9B
06165   5912 DD CB 7F 9B         res  3,(ix+127),e       ; 5912 DD CB 7F 9B
06166   5916 DD CB 7F 9B         RES  3,(IX+127),E       ; 5916 DD CB 7F 9B
06167   591A DD CB 80 9C         res  3,(ix+-128),h      ; 591A DD CB 80 9C
06168   591E DD CB 80 9C         RES  3,(IX+-128),H      ; 591E DD CB 80 9C
06169   5922 DD CB FF 9C         res  3,(ix+-1),h        ; 5922 DD CB FF 9C
06170   5926 DD CB FF 9C         RES  3,(IX+-1),H        ; 5926 DD CB FF 9C
06171   592A DD CB 00 9C         res  3,(ix+0),h         ; 592A DD CB 00 9C
06172   592E DD CB 00 9C         RES  3,(IX+0),H         ; 592E DD CB 00 9C
06173   5932 DD CB 7F 9C         res  3,(ix+127),h       ; 5932 DD CB 7F 9C
06174   5936 DD CB 7F 9C         RES  3,(IX+127),H       ; 5936 DD CB 7F 9C
06175   593A DD CB 80 9D         res  3,(ix+-128),l      ; 593A DD CB 80 9D
06176   593E DD CB 80 9D         RES  3,(IX+-128),L      ; 593E DD CB 80 9D
06177   5942 DD CB FF 9D         res  3,(ix+-1),l        ; 5942 DD CB FF 9D
06178   5946 DD CB FF 9D         RES  3,(IX+-1),L        ; 5946 DD CB FF 9D
06179   594A DD CB 00 9D         res  3,(ix+0),l         ; 594A DD CB 00 9D
06180   594E DD CB 00 9D         RES  3,(IX+0),L         ; 594E DD CB 00 9D
06181   5952 DD CB 7F 9D         res  3,(ix+127),l       ; 5952 DD CB 7F 9D
06182   5956 DD CB 7F 9D         RES  3,(IX+127),L       ; 5956 DD CB 7F 9D
06183   595A FD CB 80 9E         res  3,(iy+-128)        ; 595A FD CB 80 9E
06184   595E FD CB 80 9E         RES  3,(IY+-128)        ; 595E FD CB 80 9E
06185   5962 FD CB FF 9E         res  3,(iy+-1)          ; 5962 FD CB FF 9E
06186   5966 FD CB FF 9E         RES  3,(IY+-1)          ; 5966 FD CB FF 9E
06187   596A FD CB 00 9E         res  3,(iy+0)           ; 596A FD CB 00 9E
06188   596E FD CB 00 9E         RES  3,(IY+0)           ; 596E FD CB 00 9E
06189   5972 FD CB 7F 9E         res  3,(iy+127)         ; 5972 FD CB 7F 9E
06190   5976 FD CB 7F 9E         RES  3,(IY+127)         ; 5976 FD CB 7F 9E
06191   597A FD CB 80 9F         res  3,(iy+-128),a      ; 597A FD CB 80 9F
06192   597E FD CB 80 9F         RES  3,(IY+-128),A      ; 597E FD CB 80 9F
06193   5982 FD CB FF 9F         res  3,(iy+-1),a        ; 5982 FD CB FF 9F
06194   5986 FD CB FF 9F         RES  3,(IY+-1),A        ; 5986 FD CB FF 9F
06195   598A FD CB 00 9F         res  3,(iy+0),a         ; 598A FD CB 00 9F
06196   598E FD CB 00 9F         RES  3,(IY+0),A         ; 598E FD CB 00 9F
06197   5992 FD CB 7F 9F         res  3,(iy+127),a       ; 5992 FD CB 7F 9F
06198   5996 FD CB 7F 9F         RES  3,(IY+127),A       ; 5996 FD CB 7F 9F
06199   599A FD CB 80 98         res  3,(iy+-128),b      ; 599A FD CB 80 98
06200   599E FD CB 80 98         RES  3,(IY+-128),B      ; 599E FD CB 80 98
06201   59A2 FD CB FF 98         res  3,(iy+-1),b        ; 59A2 FD CB FF 98
06202   59A6 FD CB FF 98         RES  3,(IY+-1),B        ; 59A6 FD CB FF 98
06203   59AA FD CB 00 98         res  3,(iy+0),b         ; 59AA FD CB 00 98
06204   59AE FD CB 00 98         RES  3,(IY+0),B         ; 59AE FD CB 00 98
06205   59B2 FD CB 7F 98         res  3,(iy+127),b       ; 59B2 FD CB 7F 98
06206   59B6 FD CB 7F 98         RES  3,(IY+127),B       ; 59B6 FD CB 7F 98
06207   59BA FD CB 80 99         res  3,(iy+-128),c      ; 59BA FD CB 80 99
06208   59BE FD CB 80 99         RES  3,(IY+-128),C      ; 59BE FD CB 80 99
06209   59C2 FD CB FF 99         res  3,(iy+-1),c        ; 59C2 FD CB FF 99
06210   59C6 FD CB FF 99         RES  3,(IY+-1),C        ; 59C6 FD CB FF 99
06211   59CA FD CB 00 99         res  3,(iy+0),c         ; 59CA FD CB 00 99
06212   59CE FD CB 00 99         RES  3,(IY+0),C         ; 59CE FD CB 00 99
06213   59D2 FD CB 7F 99         res  3,(iy+127),c       ; 59D2 FD CB 7F 99
06214   59D6 FD CB 7F 99         RES  3,(IY+127),C       ; 59D6 FD CB 7F 99
06215   59DA FD CB 80 9A         res  3,(iy+-128),d      ; 59DA FD CB 80 9A
06216   59DE FD CB 80 9A         RES  3,(IY+-128),D      ; 59DE FD CB 80 9A
06217   59E2 FD CB FF 9A         res  3,(iy+-1),d        ; 59E2 FD CB FF 9A
06218   59E6 FD CB FF 9A         RES  3,(IY+-1),D        ; 59E6 FD CB FF 9A
06219   59EA FD CB 00 9A         res  3,(iy+0),d         ; 59EA FD CB 00 9A
06220   59EE FD CB 00 9A         RES  3,(IY+0),D         ; 59EE FD CB 00 9A
06221   59F2 FD CB 7F 9A         res  3,(iy+127),d       ; 59F2 FD CB 7F 9A
06222   59F6 FD CB 7F 9A         RES  3,(IY+127),D       ; 59F6 FD CB 7F 9A
06223   59FA FD CB 80 9B         res  3,(iy+-128),e      ; 59FA FD CB 80 9B
06224   59FE FD CB 80 9B         RES  3,(IY+-128),E      ; 59FE FD CB 80 9B
06225   5A02 FD CB FF 9B         res  3,(iy+-1),e        ; 5A02 FD CB FF 9B
06226   5A06 FD CB FF 9B         RES  3,(IY+-1),E        ; 5A06 FD CB FF 9B
06227   5A0A FD CB 00 9B         res  3,(iy+0),e         ; 5A0A FD CB 00 9B
06228   5A0E FD CB 00 9B         RES  3,(IY+0),E         ; 5A0E FD CB 00 9B
06229   5A12 FD CB 7F 9B         res  3,(iy+127),e       ; 5A12 FD CB 7F 9B
06230   5A16 FD CB 7F 9B         RES  3,(IY+127),E       ; 5A16 FD CB 7F 9B
06231   5A1A FD CB 80 9C         res  3,(iy+-128),h      ; 5A1A FD CB 80 9C
06232   5A1E FD CB 80 9C         RES  3,(IY+-128),H      ; 5A1E FD CB 80 9C
06233   5A22 FD CB FF 9C         res  3,(iy+-1),h        ; 5A22 FD CB FF 9C
06234   5A26 FD CB FF 9C         RES  3,(IY+-1),H        ; 5A26 FD CB FF 9C
06235   5A2A FD CB 00 9C         res  3,(iy+0),h         ; 5A2A FD CB 00 9C
06236   5A2E FD CB 00 9C         RES  3,(IY+0),H         ; 5A2E FD CB 00 9C
06237   5A32 FD CB 7F 9C         res  3,(iy+127),h       ; 5A32 FD CB 7F 9C
06238   5A36 FD CB 7F 9C         RES  3,(IY+127),H       ; 5A36 FD CB 7F 9C
06239   5A3A FD CB 80 9D         res  3,(iy+-128),l      ; 5A3A FD CB 80 9D
06240   5A3E FD CB 80 9D         RES  3,(IY+-128),L      ; 5A3E FD CB 80 9D
06241   5A42 FD CB FF 9D         res  3,(iy+-1),l        ; 5A42 FD CB FF 9D
06242   5A46 FD CB FF 9D         RES  3,(IY+-1),L        ; 5A46 FD CB FF 9D
06243   5A4A FD CB 00 9D         res  3,(iy+0),l         ; 5A4A FD CB 00 9D
06244   5A4E FD CB 00 9D         RES  3,(IY+0),L         ; 5A4E FD CB 00 9D
06245   5A52 FD CB 7F 9D         res  3,(iy+127),l       ; 5A52 FD CB 7F 9D
06246   5A56 FD CB 7F 9D         RES  3,(IY+127),L       ; 5A56 FD CB 7F 9D
06247   5A5A CB 9E               res  3,[hl]             ; 5A5A CB 9E
06248   5A5C CB 9E               RES  3,[HL]             ; 5A5C CB 9E
06249   5A5E DD CB 80 9E         res  3,[ix+-128]        ; 5A5E DD CB 80 9E
06250   5A62 DD CB 80 9E         RES  3,[IX+-128]        ; 5A62 DD CB 80 9E
06251   5A66 DD CB FF 9E         res  3,[ix+-1]          ; 5A66 DD CB FF 9E
06252   5A6A DD CB FF 9E         RES  3,[IX+-1]          ; 5A6A DD CB FF 9E
06253   5A6E DD CB 00 9E         res  3,[ix+0]           ; 5A6E DD CB 00 9E
06254   5A72 DD CB 00 9E         RES  3,[IX+0]           ; 5A72 DD CB 00 9E
06255   5A76 DD CB 7F 9E         res  3,[ix+127]         ; 5A76 DD CB 7F 9E
06256   5A7A DD CB 7F 9E         RES  3,[IX+127]         ; 5A7A DD CB 7F 9E
06257   5A7E DD CB 80 9F         res  3,[ix+-128],a      ; 5A7E DD CB 80 9F
06258   5A82 DD CB 80 9F         RES  3,[IX+-128],A      ; 5A82 DD CB 80 9F
06259   5A86 DD CB FF 9F         res  3,[ix+-1],a        ; 5A86 DD CB FF 9F
06260   5A8A DD CB FF 9F         RES  3,[IX+-1],A        ; 5A8A DD CB FF 9F
06261   5A8E DD CB 00 9F         res  3,[ix+0],a         ; 5A8E DD CB 00 9F
06262   5A92 DD CB 00 9F         RES  3,[IX+0],A         ; 5A92 DD CB 00 9F
06263   5A96 DD CB 7F 9F         res  3,[ix+127],a       ; 5A96 DD CB 7F 9F
06264   5A9A DD CB 7F 9F         RES  3,[IX+127],A       ; 5A9A DD CB 7F 9F
06265   5A9E DD CB 80 98         res  3,[ix+-128],b      ; 5A9E DD CB 80 98
06266   5AA2 DD CB 80 98         RES  3,[IX+-128],B      ; 5AA2 DD CB 80 98
06267   5AA6 DD CB FF 98         res  3,[ix+-1],b        ; 5AA6 DD CB FF 98
06268   5AAA DD CB FF 98         RES  3,[IX+-1],B        ; 5AAA DD CB FF 98
06269   5AAE DD CB 00 98         res  3,[ix+0],b         ; 5AAE DD CB 00 98
06270   5AB2 DD CB 00 98         RES  3,[IX+0],B         ; 5AB2 DD CB 00 98
06271   5AB6 DD CB 7F 98         res  3,[ix+127],b       ; 5AB6 DD CB 7F 98
06272   5ABA DD CB 7F 98         RES  3,[IX+127],B       ; 5ABA DD CB 7F 98
06273   5ABE DD CB 80 99         res  3,[ix+-128],c      ; 5ABE DD CB 80 99
06274   5AC2 DD CB 80 99         RES  3,[IX+-128],C      ; 5AC2 DD CB 80 99
06275   5AC6 DD CB FF 99         res  3,[ix+-1],c        ; 5AC6 DD CB FF 99
06276   5ACA DD CB FF 99         RES  3,[IX+-1],C        ; 5ACA DD CB FF 99
06277   5ACE DD CB 00 99         res  3,[ix+0],c         ; 5ACE DD CB 00 99
06278   5AD2 DD CB 00 99         RES  3,[IX+0],C         ; 5AD2 DD CB 00 99
06279   5AD6 DD CB 7F 99         res  3,[ix+127],c       ; 5AD6 DD CB 7F 99
06280   5ADA DD CB 7F 99         RES  3,[IX+127],C       ; 5ADA DD CB 7F 99
06281   5ADE DD CB 80 9A         res  3,[ix+-128],d      ; 5ADE DD CB 80 9A
06282   5AE2 DD CB 80 9A         RES  3,[IX+-128],D      ; 5AE2 DD CB 80 9A
06283   5AE6 DD CB FF 9A         res  3,[ix+-1],d        ; 5AE6 DD CB FF 9A
06284   5AEA DD CB FF 9A         RES  3,[IX+-1],D        ; 5AEA DD CB FF 9A
06285   5AEE DD CB 00 9A         res  3,[ix+0],d         ; 5AEE DD CB 00 9A
06286   5AF2 DD CB 00 9A         RES  3,[IX+0],D         ; 5AF2 DD CB 00 9A
06287   5AF6 DD CB 7F 9A         res  3,[ix+127],d       ; 5AF6 DD CB 7F 9A
06288   5AFA DD CB 7F 9A         RES  3,[IX+127],D       ; 5AFA DD CB 7F 9A
06289   5AFE DD CB 80 9B         res  3,[ix+-128],e      ; 5AFE DD CB 80 9B
06290   5B02 DD CB 80 9B         RES  3,[IX+-128],E      ; 5B02 DD CB 80 9B
06291   5B06 DD CB FF 9B         res  3,[ix+-1],e        ; 5B06 DD CB FF 9B
06292   5B0A DD CB FF 9B         RES  3,[IX+-1],E        ; 5B0A DD CB FF 9B
06293   5B0E DD CB 00 9B         res  3,[ix+0],e         ; 5B0E DD CB 00 9B
06294   5B12 DD CB 00 9B         RES  3,[IX+0],E         ; 5B12 DD CB 00 9B
06295   5B16 DD CB 7F 9B         res  3,[ix+127],e       ; 5B16 DD CB 7F 9B
06296   5B1A DD CB 7F 9B         RES  3,[IX+127],E       ; 5B1A DD CB 7F 9B
06297   5B1E DD CB 80 9C         res  3,[ix+-128],h      ; 5B1E DD CB 80 9C
06298   5B22 DD CB 80 9C         RES  3,[IX+-128],H      ; 5B22 DD CB 80 9C
06299   5B26 DD CB FF 9C         res  3,[ix+-1],h        ; 5B26 DD CB FF 9C
06300   5B2A DD CB FF 9C         RES  3,[IX+-1],H        ; 5B2A DD CB FF 9C
06301   5B2E DD CB 00 9C         res  3,[ix+0],h         ; 5B2E DD CB 00 9C
06302   5B32 DD CB 00 9C         RES  3,[IX+0],H         ; 5B32 DD CB 00 9C
06303   5B36 DD CB 7F 9C         res  3,[ix+127],h       ; 5B36 DD CB 7F 9C
06304   5B3A DD CB 7F 9C         RES  3,[IX+127],H       ; 5B3A DD CB 7F 9C
06305   5B3E DD CB 80 9D         res  3,[ix+-128],l      ; 5B3E DD CB 80 9D
06306   5B42 DD CB 80 9D         RES  3,[IX+-128],L      ; 5B42 DD CB 80 9D
06307   5B46 DD CB FF 9D         res  3,[ix+-1],l        ; 5B46 DD CB FF 9D
06308   5B4A DD CB FF 9D         RES  3,[IX+-1],L        ; 5B4A DD CB FF 9D
06309   5B4E DD CB 00 9D         res  3,[ix+0],l         ; 5B4E DD CB 00 9D
06310   5B52 DD CB 00 9D         RES  3,[IX+0],L         ; 5B52 DD CB 00 9D
06311   5B56 DD CB 7F 9D         res  3,[ix+127],l       ; 5B56 DD CB 7F 9D
06312   5B5A DD CB 7F 9D         RES  3,[IX+127],L       ; 5B5A DD CB 7F 9D
06313   5B5E FD CB 80 9E         res  3,[iy+-128]        ; 5B5E FD CB 80 9E
06314   5B62 FD CB 80 9E         RES  3,[IY+-128]        ; 5B62 FD CB 80 9E
06315   5B66 FD CB FF 9E         res  3,[iy+-1]          ; 5B66 FD CB FF 9E
06316   5B6A FD CB FF 9E         RES  3,[IY+-1]          ; 5B6A FD CB FF 9E
06317   5B6E FD CB 00 9E         res  3,[iy+0]           ; 5B6E FD CB 00 9E
06318   5B72 FD CB 00 9E         RES  3,[IY+0]           ; 5B72 FD CB 00 9E
06319   5B76 FD CB 7F 9E         res  3,[iy+127]         ; 5B76 FD CB 7F 9E
06320   5B7A FD CB 7F 9E         RES  3,[IY+127]         ; 5B7A FD CB 7F 9E
06321   5B7E FD CB 80 9F         res  3,[iy+-128],a      ; 5B7E FD CB 80 9F
06322   5B82 FD CB 80 9F         RES  3,[IY+-128],A      ; 5B82 FD CB 80 9F
06323   5B86 FD CB FF 9F         res  3,[iy+-1],a        ; 5B86 FD CB FF 9F
06324   5B8A FD CB FF 9F         RES  3,[IY+-1],A        ; 5B8A FD CB FF 9F
06325   5B8E FD CB 00 9F         res  3,[iy+0],a         ; 5B8E FD CB 00 9F
06326   5B92 FD CB 00 9F         RES  3,[IY+0],A         ; 5B92 FD CB 00 9F
06327   5B96 FD CB 7F 9F         res  3,[iy+127],a       ; 5B96 FD CB 7F 9F
06328   5B9A FD CB 7F 9F         RES  3,[IY+127],A       ; 5B9A FD CB 7F 9F
06329   5B9E FD CB 80 98         res  3,[iy+-128],b      ; 5B9E FD CB 80 98
06330   5BA2 FD CB 80 98         RES  3,[IY+-128],B      ; 5BA2 FD CB 80 98
06331   5BA6 FD CB FF 98         res  3,[iy+-1],b        ; 5BA6 FD CB FF 98
06332   5BAA FD CB FF 98         RES  3,[IY+-1],B        ; 5BAA FD CB FF 98
06333   5BAE FD CB 00 98         res  3,[iy+0],b         ; 5BAE FD CB 00 98
06334   5BB2 FD CB 00 98         RES  3,[IY+0],B         ; 5BB2 FD CB 00 98
06335   5BB6 FD CB 7F 98         res  3,[iy+127],b       ; 5BB6 FD CB 7F 98
06336   5BBA FD CB 7F 98         RES  3,[IY+127],B       ; 5BBA FD CB 7F 98
06337   5BBE FD CB 80 99         res  3,[iy+-128],c      ; 5BBE FD CB 80 99
06338   5BC2 FD CB 80 99         RES  3,[IY+-128],C      ; 5BC2 FD CB 80 99
06339   5BC6 FD CB FF 99         res  3,[iy+-1],c        ; 5BC6 FD CB FF 99
06340   5BCA FD CB FF 99         RES  3,[IY+-1],C        ; 5BCA FD CB FF 99
06341   5BCE FD CB 00 99         res  3,[iy+0],c         ; 5BCE FD CB 00 99
06342   5BD2 FD CB 00 99         RES  3,[IY+0],C         ; 5BD2 FD CB 00 99
06343   5BD6 FD CB 7F 99         res  3,[iy+127],c       ; 5BD6 FD CB 7F 99
06344   5BDA FD CB 7F 99         RES  3,[IY+127],C       ; 5BDA FD CB 7F 99
06345   5BDE FD CB 80 9A         res  3,[iy+-128],d      ; 5BDE FD CB 80 9A
06346   5BE2 FD CB 80 9A         RES  3,[IY+-128],D      ; 5BE2 FD CB 80 9A
06347   5BE6 FD CB FF 9A         res  3,[iy+-1],d        ; 5BE6 FD CB FF 9A
06348   5BEA FD CB FF 9A         RES  3,[IY+-1],D        ; 5BEA FD CB FF 9A
06349   5BEE FD CB 00 9A         res  3,[iy+0],d         ; 5BEE FD CB 00 9A
06350   5BF2 FD CB 00 9A         RES  3,[IY+0],D         ; 5BF2 FD CB 00 9A
06351   5BF6 FD CB 7F 9A         res  3,[iy+127],d       ; 5BF6 FD CB 7F 9A
06352   5BFA FD CB 7F 9A         RES  3,[IY+127],D       ; 5BFA FD CB 7F 9A
06353   5BFE FD CB 80 9B         res  3,[iy+-128],e      ; 5BFE FD CB 80 9B
06354   5C02 FD CB 80 9B         RES  3,[IY+-128],E      ; 5C02 FD CB 80 9B
06355   5C06 FD CB FF 9B         res  3,[iy+-1],e        ; 5C06 FD CB FF 9B
06356   5C0A FD CB FF 9B         RES  3,[IY+-1],E        ; 5C0A FD CB FF 9B
06357   5C0E FD CB 00 9B         res  3,[iy+0],e         ; 5C0E FD CB 00 9B
06358   5C12 FD CB 00 9B         RES  3,[IY+0],E         ; 5C12 FD CB 00 9B
06359   5C16 FD CB 7F 9B         res  3,[iy+127],e       ; 5C16 FD CB 7F 9B
06360   5C1A FD CB 7F 9B         RES  3,[IY+127],E       ; 5C1A FD CB 7F 9B
06361   5C1E FD CB 80 9C         res  3,[iy+-128],h      ; 5C1E FD CB 80 9C
06362   5C22 FD CB 80 9C         RES  3,[IY+-128],H      ; 5C22 FD CB 80 9C
06363   5C26 FD CB FF 9C         res  3,[iy+-1],h        ; 5C26 FD CB FF 9C
06364   5C2A FD CB FF 9C         RES  3,[IY+-1],H        ; 5C2A FD CB FF 9C
06365   5C2E FD CB 00 9C         res  3,[iy+0],h         ; 5C2E FD CB 00 9C
06366   5C32 FD CB 00 9C         RES  3,[IY+0],H         ; 5C32 FD CB 00 9C
06367   5C36 FD CB 7F 9C         res  3,[iy+127],h       ; 5C36 FD CB 7F 9C
06368   5C3A FD CB 7F 9C         RES  3,[IY+127],H       ; 5C3A FD CB 7F 9C
06369   5C3E FD CB 80 9D         res  3,[iy+-128],l      ; 5C3E FD CB 80 9D
06370   5C42 FD CB 80 9D         RES  3,[IY+-128],L      ; 5C42 FD CB 80 9D
06371   5C46 FD CB FF 9D         res  3,[iy+-1],l        ; 5C46 FD CB FF 9D
06372   5C4A FD CB FF 9D         RES  3,[IY+-1],L        ; 5C4A FD CB FF 9D
06373   5C4E FD CB 00 9D         res  3,[iy+0],l         ; 5C4E FD CB 00 9D
06374   5C52 FD CB 00 9D         RES  3,[IY+0],L         ; 5C52 FD CB 00 9D
06375   5C56 FD CB 7F 9D         res  3,[iy+127],l       ; 5C56 FD CB 7F 9D
06376   5C5A FD CB 7F 9D         RES  3,[IY+127],L       ; 5C5A FD CB 7F 9D
06377   5C5E CB 9F               res  3,a                ; 5C5E CB 9F
06378   5C60 CB 9F               RES  3,A                ; 5C60 CB 9F
06379   5C62 CB 98               res  3,b                ; 5C62 CB 98
06380   5C64 CB 98               RES  3,B                ; 5C64 CB 98
06381   5C66 CB 99               res  3,c                ; 5C66 CB 99
06382   5C68 CB 99               RES  3,C                ; 5C68 CB 99
06383   5C6A CB 9A               res  3,d                ; 5C6A CB 9A
06384   5C6C CB 9A               RES  3,D                ; 5C6C CB 9A
06385   5C6E CB 9B               res  3,e                ; 5C6E CB 9B
06386   5C70 CB 9B               RES  3,E                ; 5C70 CB 9B
06387   5C72 CB 9C               res  3,h                ; 5C72 CB 9C
06388   5C74 CB 9C               RES  3,H                ; 5C74 CB 9C
06389   5C76 CB 9D               res  3,l                ; 5C76 CB 9D
06390   5C78 CB 9D               RES  3,L                ; 5C78 CB 9D
06391   5C7A CB A6               res  4,(hl)             ; 5C7A CB A6
06392   5C7C CB A6               RES  4,(HL)             ; 5C7C CB A6
06393   5C7E DD CB 80 A6         res  4,(ix+-128)        ; 5C7E DD CB 80 A6
06394   5C82 DD CB 80 A6         RES  4,(IX+-128)        ; 5C82 DD CB 80 A6
06395   5C86 DD CB FF A6         res  4,(ix+-1)          ; 5C86 DD CB FF A6
06396   5C8A DD CB FF A6         RES  4,(IX+-1)          ; 5C8A DD CB FF A6
06397   5C8E DD CB 00 A6         res  4,(ix+0)           ; 5C8E DD CB 00 A6
06398   5C92 DD CB 00 A6         RES  4,(IX+0)           ; 5C92 DD CB 00 A6
06399   5C96 DD CB 7F A6         res  4,(ix+127)         ; 5C96 DD CB 7F A6
06400   5C9A DD CB 7F A6         RES  4,(IX+127)         ; 5C9A DD CB 7F A6
06401   5C9E DD CB 80 A7         res  4,(ix+-128),a      ; 5C9E DD CB 80 A7
06402   5CA2 DD CB 80 A7         RES  4,(IX+-128),A      ; 5CA2 DD CB 80 A7
06403   5CA6 DD CB FF A7         res  4,(ix+-1),a        ; 5CA6 DD CB FF A7
06404   5CAA DD CB FF A7         RES  4,(IX+-1),A        ; 5CAA DD CB FF A7
06405   5CAE DD CB 00 A7         res  4,(ix+0),a         ; 5CAE DD CB 00 A7
06406   5CB2 DD CB 00 A7         RES  4,(IX+0),A         ; 5CB2 DD CB 00 A7
06407   5CB6 DD CB 7F A7         res  4,(ix+127),a       ; 5CB6 DD CB 7F A7
06408   5CBA DD CB 7F A7         RES  4,(IX+127),A       ; 5CBA DD CB 7F A7
06409   5CBE DD CB 80 A0         res  4,(ix+-128),b      ; 5CBE DD CB 80 A0
06410   5CC2 DD CB 80 A0         RES  4,(IX+-128),B      ; 5CC2 DD CB 80 A0
06411   5CC6 DD CB FF A0         res  4,(ix+-1),b        ; 5CC6 DD CB FF A0
06412   5CCA DD CB FF A0         RES  4,(IX+-1),B        ; 5CCA DD CB FF A0
06413   5CCE DD CB 00 A0         res  4,(ix+0),b         ; 5CCE DD CB 00 A0
06414   5CD2 DD CB 00 A0         RES  4,(IX+0),B         ; 5CD2 DD CB 00 A0
06415   5CD6 DD CB 7F A0         res  4,(ix+127),b       ; 5CD6 DD CB 7F A0
06416   5CDA DD CB 7F A0         RES  4,(IX+127),B       ; 5CDA DD CB 7F A0
06417   5CDE DD CB 80 A1         res  4,(ix+-128),c      ; 5CDE DD CB 80 A1
06418   5CE2 DD CB 80 A1         RES  4,(IX+-128),C      ; 5CE2 DD CB 80 A1
06419   5CE6 DD CB FF A1         res  4,(ix+-1),c        ; 5CE6 DD CB FF A1
06420   5CEA DD CB FF A1         RES  4,(IX+-1),C        ; 5CEA DD CB FF A1
06421   5CEE DD CB 00 A1         res  4,(ix+0),c         ; 5CEE DD CB 00 A1
06422   5CF2 DD CB 00 A1         RES  4,(IX+0),C         ; 5CF2 DD CB 00 A1
06423   5CF6 DD CB 7F A1         res  4,(ix+127),c       ; 5CF6 DD CB 7F A1
06424   5CFA DD CB 7F A1         RES  4,(IX+127),C       ; 5CFA DD CB 7F A1
06425   5CFE DD CB 80 A2         res  4,(ix+-128),d      ; 5CFE DD CB 80 A2
06426   5D02 DD CB 80 A2         RES  4,(IX+-128),D      ; 5D02 DD CB 80 A2
06427   5D06 DD CB FF A2         res  4,(ix+-1),d        ; 5D06 DD CB FF A2
06428   5D0A DD CB FF A2         RES  4,(IX+-1),D        ; 5D0A DD CB FF A2
06429   5D0E DD CB 00 A2         res  4,(ix+0),d         ; 5D0E DD CB 00 A2
06430   5D12 DD CB 00 A2         RES  4,(IX+0),D         ; 5D12 DD CB 00 A2
06431   5D16 DD CB 7F A2         res  4,(ix+127),d       ; 5D16 DD CB 7F A2
06432   5D1A DD CB 7F A2         RES  4,(IX+127),D       ; 5D1A DD CB 7F A2
06433   5D1E DD CB 80 A3         res  4,(ix+-128),e      ; 5D1E DD CB 80 A3
06434   5D22 DD CB 80 A3         RES  4,(IX+-128),E      ; 5D22 DD CB 80 A3
06435   5D26 DD CB FF A3         res  4,(ix+-1),e        ; 5D26 DD CB FF A3
06436   5D2A DD CB FF A3         RES  4,(IX+-1),E        ; 5D2A DD CB FF A3
06437   5D2E DD CB 00 A3         res  4,(ix+0),e         ; 5D2E DD CB 00 A3
06438   5D32 DD CB 00 A3         RES  4,(IX+0),E         ; 5D32 DD CB 00 A3
06439   5D36 DD CB 7F A3         res  4,(ix+127),e       ; 5D36 DD CB 7F A3
06440   5D3A DD CB 7F A3         RES  4,(IX+127),E       ; 5D3A DD CB 7F A3
06441   5D3E DD CB 80 A4         res  4,(ix+-128),h      ; 5D3E DD CB 80 A4
06442   5D42 DD CB 80 A4         RES  4,(IX+-128),H      ; 5D42 DD CB 80 A4
06443   5D46 DD CB FF A4         res  4,(ix+-1),h        ; 5D46 DD CB FF A4
06444   5D4A DD CB FF A4         RES  4,(IX+-1),H        ; 5D4A DD CB FF A4
06445   5D4E DD CB 00 A4         res  4,(ix+0),h         ; 5D4E DD CB 00 A4
06446   5D52 DD CB 00 A4         RES  4,(IX+0),H         ; 5D52 DD CB 00 A4
06447   5D56 DD CB 7F A4         res  4,(ix+127),h       ; 5D56 DD CB 7F A4
06448   5D5A DD CB 7F A4         RES  4,(IX+127),H       ; 5D5A DD CB 7F A4
06449   5D5E DD CB 80 A5         res  4,(ix+-128),l      ; 5D5E DD CB 80 A5
06450   5D62 DD CB 80 A5         RES  4,(IX+-128),L      ; 5D62 DD CB 80 A5
06451   5D66 DD CB FF A5         res  4,(ix+-1),l        ; 5D66 DD CB FF A5
06452   5D6A DD CB FF A5         RES  4,(IX+-1),L        ; 5D6A DD CB FF A5
06453   5D6E DD CB 00 A5         res  4,(ix+0),l         ; 5D6E DD CB 00 A5
06454   5D72 DD CB 00 A5         RES  4,(IX+0),L         ; 5D72 DD CB 00 A5
06455   5D76 DD CB 7F A5         res  4,(ix+127),l       ; 5D76 DD CB 7F A5
06456   5D7A DD CB 7F A5         RES  4,(IX+127),L       ; 5D7A DD CB 7F A5
06457   5D7E FD CB 80 A6         res  4,(iy+-128)        ; 5D7E FD CB 80 A6
06458   5D82 FD CB 80 A6         RES  4,(IY+-128)        ; 5D82 FD CB 80 A6
06459   5D86 FD CB FF A6         res  4,(iy+-1)          ; 5D86 FD CB FF A6
06460   5D8A FD CB FF A6         RES  4,(IY+-1)          ; 5D8A FD CB FF A6
06461   5D8E FD CB 00 A6         res  4,(iy+0)           ; 5D8E FD CB 00 A6
06462   5D92 FD CB 00 A6         RES  4,(IY+0)           ; 5D92 FD CB 00 A6
06463   5D96 FD CB 7F A6         res  4,(iy+127)         ; 5D96 FD CB 7F A6
06464   5D9A FD CB 7F A6         RES  4,(IY+127)         ; 5D9A FD CB 7F A6
06465   5D9E FD CB 80 A7         res  4,(iy+-128),a      ; 5D9E FD CB 80 A7
06466   5DA2 FD CB 80 A7         RES  4,(IY+-128),A      ; 5DA2 FD CB 80 A7
06467   5DA6 FD CB FF A7         res  4,(iy+-1),a        ; 5DA6 FD CB FF A7
06468   5DAA FD CB FF A7         RES  4,(IY+-1),A        ; 5DAA FD CB FF A7
06469   5DAE FD CB 00 A7         res  4,(iy+0),a         ; 5DAE FD CB 00 A7
06470   5DB2 FD CB 00 A7         RES  4,(IY+0),A         ; 5DB2 FD CB 00 A7
06471   5DB6 FD CB 7F A7         res  4,(iy+127),a       ; 5DB6 FD CB 7F A7
06472   5DBA FD CB 7F A7         RES  4,(IY+127),A       ; 5DBA FD CB 7F A7
06473   5DBE FD CB 80 A0         res  4,(iy+-128),b      ; 5DBE FD CB 80 A0
06474   5DC2 FD CB 80 A0         RES  4,(IY+-128),B      ; 5DC2 FD CB 80 A0
06475   5DC6 FD CB FF A0         res  4,(iy+-1),b        ; 5DC6 FD CB FF A0
06476   5DCA FD CB FF A0         RES  4,(IY+-1),B        ; 5DCA FD CB FF A0
06477   5DCE FD CB 00 A0         res  4,(iy+0),b         ; 5DCE FD CB 00 A0
06478   5DD2 FD CB 00 A0         RES  4,(IY+0),B         ; 5DD2 FD CB 00 A0
06479   5DD6 FD CB 7F A0         res  4,(iy+127),b       ; 5DD6 FD CB 7F A0
06480   5DDA FD CB 7F A0         RES  4,(IY+127),B       ; 5DDA FD CB 7F A0
06481   5DDE FD CB 80 A1         res  4,(iy+-128),c      ; 5DDE FD CB 80 A1
06482   5DE2 FD CB 80 A1         RES  4,(IY+-128),C      ; 5DE2 FD CB 80 A1
06483   5DE6 FD CB FF A1         res  4,(iy+-1),c        ; 5DE6 FD CB FF A1
06484   5DEA FD CB FF A1         RES  4,(IY+-1),C        ; 5DEA FD CB FF A1
06485   5DEE FD CB 00 A1         res  4,(iy+0),c         ; 5DEE FD CB 00 A1
06486   5DF2 FD CB 00 A1         RES  4,(IY+0),C         ; 5DF2 FD CB 00 A1
06487   5DF6 FD CB 7F A1         res  4,(iy+127),c       ; 5DF6 FD CB 7F A1
06488   5DFA FD CB 7F A1         RES  4,(IY+127),C       ; 5DFA FD CB 7F A1
06489   5DFE FD CB 80 A2         res  4,(iy+-128),d      ; 5DFE FD CB 80 A2
06490   5E02 FD CB 80 A2         RES  4,(IY+-128),D      ; 5E02 FD CB 80 A2
06491   5E06 FD CB FF A2         res  4,(iy+-1),d        ; 5E06 FD CB FF A2
06492   5E0A FD CB FF A2         RES  4,(IY+-1),D        ; 5E0A FD CB FF A2
06493   5E0E FD CB 00 A2         res  4,(iy+0),d         ; 5E0E FD CB 00 A2
06494   5E12 FD CB 00 A2         RES  4,(IY+0),D         ; 5E12 FD CB 00 A2
06495   5E16 FD CB 7F A2         res  4,(iy+127),d       ; 5E16 FD CB 7F A2
06496   5E1A FD CB 7F A2         RES  4,(IY+127),D       ; 5E1A FD CB 7F A2
06497   5E1E FD CB 80 A3         res  4,(iy+-128),e      ; 5E1E FD CB 80 A3
06498   5E22 FD CB 80 A3         RES  4,(IY+-128),E      ; 5E22 FD CB 80 A3
06499   5E26 FD CB FF A3         res  4,(iy+-1),e        ; 5E26 FD CB FF A3
06500   5E2A FD CB FF A3         RES  4,(IY+-1),E        ; 5E2A FD CB FF A3
06501   5E2E FD CB 00 A3         res  4,(iy+0),e         ; 5E2E FD CB 00 A3
06502   5E32 FD CB 00 A3         RES  4,(IY+0),E         ; 5E32 FD CB 00 A3
06503   5E36 FD CB 7F A3         res  4,(iy+127),e       ; 5E36 FD CB 7F A3
06504   5E3A FD CB 7F A3         RES  4,(IY+127),E       ; 5E3A FD CB 7F A3
06505   5E3E FD CB 80 A4         res  4,(iy+-128),h      ; 5E3E FD CB 80 A4
06506   5E42 FD CB 80 A4         RES  4,(IY+-128),H      ; 5E42 FD CB 80 A4
06507   5E46 FD CB FF A4         res  4,(iy+-1),h        ; 5E46 FD CB FF A4
06508   5E4A FD CB FF A4         RES  4,(IY+-1),H        ; 5E4A FD CB FF A4
06509   5E4E FD CB 00 A4         res  4,(iy+0),h         ; 5E4E FD CB 00 A4
06510   5E52 FD CB 00 A4         RES  4,(IY+0),H         ; 5E52 FD CB 00 A4
06511   5E56 FD CB 7F A4         res  4,(iy+127),h       ; 5E56 FD CB 7F A4
06512   5E5A FD CB 7F A4         RES  4,(IY+127),H       ; 5E5A FD CB 7F A4
06513   5E5E FD CB 80 A5         res  4,(iy+-128),l      ; 5E5E FD CB 80 A5
06514   5E62 FD CB 80 A5         RES  4,(IY+-128),L      ; 5E62 FD CB 80 A5
06515   5E66 FD CB FF A5         res  4,(iy+-1),l        ; 5E66 FD CB FF A5
06516   5E6A FD CB FF A5         RES  4,(IY+-1),L        ; 5E6A FD CB FF A5
06517   5E6E FD CB 00 A5         res  4,(iy+0),l         ; 5E6E FD CB 00 A5
06518   5E72 FD CB 00 A5         RES  4,(IY+0),L         ; 5E72 FD CB 00 A5
06519   5E76 FD CB 7F A5         res  4,(iy+127),l       ; 5E76 FD CB 7F A5
06520   5E7A FD CB 7F A5         RES  4,(IY+127),L       ; 5E7A FD CB 7F A5
06521   5E7E CB A6               res  4,[hl]             ; 5E7E CB A6
06522   5E80 CB A6               RES  4,[HL]             ; 5E80 CB A6
06523   5E82 DD CB 80 A6         res  4,[ix+-128]        ; 5E82 DD CB 80 A6
06524   5E86 DD CB 80 A6         RES  4,[IX+-128]        ; 5E86 DD CB 80 A6
06525   5E8A DD CB FF A6         res  4,[ix+-1]          ; 5E8A DD CB FF A6
06526   5E8E DD CB FF A6         RES  4,[IX+-1]          ; 5E8E DD CB FF A6
06527   5E92 DD CB 00 A6         res  4,[ix+0]           ; 5E92 DD CB 00 A6
06528   5E96 DD CB 00 A6         RES  4,[IX+0]           ; 5E96 DD CB 00 A6
06529   5E9A DD CB 7F A6         res  4,[ix+127]         ; 5E9A DD CB 7F A6
06530   5E9E DD CB 7F A6         RES  4,[IX+127]         ; 5E9E DD CB 7F A6
06531   5EA2 DD CB 80 A7         res  4,[ix+-128],a      ; 5EA2 DD CB 80 A7
06532   5EA6 DD CB 80 A7         RES  4,[IX+-128],A      ; 5EA6 DD CB 80 A7
06533   5EAA DD CB FF A7         res  4,[ix+-1],a        ; 5EAA DD CB FF A7
06534   5EAE DD CB FF A7         RES  4,[IX+-1],A        ; 5EAE DD CB FF A7
06535   5EB2 DD CB 00 A7         res  4,[ix+0],a         ; 5EB2 DD CB 00 A7
06536   5EB6 DD CB 00 A7         RES  4,[IX+0],A         ; 5EB6 DD CB 00 A7
06537   5EBA DD CB 7F A7         res  4,[ix+127],a       ; 5EBA DD CB 7F A7
06538   5EBE DD CB 7F A7         RES  4,[IX+127],A       ; 5EBE DD CB 7F A7
06539   5EC2 DD CB 80 A0         res  4,[ix+-128],b      ; 5EC2 DD CB 80 A0
06540   5EC6 DD CB 80 A0         RES  4,[IX+-128],B      ; 5EC6 DD CB 80 A0
06541   5ECA DD CB FF A0         res  4,[ix+-1],b        ; 5ECA DD CB FF A0
06542   5ECE DD CB FF A0         RES  4,[IX+-1],B        ; 5ECE DD CB FF A0
06543   5ED2 DD CB 00 A0         res  4,[ix+0],b         ; 5ED2 DD CB 00 A0
06544   5ED6 DD CB 00 A0         RES  4,[IX+0],B         ; 5ED6 DD CB 00 A0
06545   5EDA DD CB 7F A0         res  4,[ix+127],b       ; 5EDA DD CB 7F A0
06546   5EDE DD CB 7F A0         RES  4,[IX+127],B       ; 5EDE DD CB 7F A0
06547   5EE2 DD CB 80 A1         res  4,[ix+-128],c      ; 5EE2 DD CB 80 A1
06548   5EE6 DD CB 80 A1         RES  4,[IX+-128],C      ; 5EE6 DD CB 80 A1
06549   5EEA DD CB FF A1         res  4,[ix+-1],c        ; 5EEA DD CB FF A1
06550   5EEE DD CB FF A1         RES  4,[IX+-1],C        ; 5EEE DD CB FF A1
06551   5EF2 DD CB 00 A1         res  4,[ix+0],c         ; 5EF2 DD CB 00 A1
06552   5EF6 DD CB 00 A1         RES  4,[IX+0],C         ; 5EF6 DD CB 00 A1
06553   5EFA DD CB 7F A1         res  4,[ix+127],c       ; 5EFA DD CB 7F A1
06554   5EFE DD CB 7F A1         RES  4,[IX+127],C       ; 5EFE DD CB 7F A1
06555   5F02 DD CB 80 A2         res  4,[ix+-128],d      ; 5F02 DD CB 80 A2
06556   5F06 DD CB 80 A2         RES  4,[IX+-128],D      ; 5F06 DD CB 80 A2
06557   5F0A DD CB FF A2         res  4,[ix+-1],d        ; 5F0A DD CB FF A2
06558   5F0E DD CB FF A2         RES  4,[IX+-1],D        ; 5F0E DD CB FF A2
06559   5F12 DD CB 00 A2         res  4,[ix+0],d         ; 5F12 DD CB 00 A2
06560   5F16 DD CB 00 A2         RES  4,[IX+0],D         ; 5F16 DD CB 00 A2
06561   5F1A DD CB 7F A2         res  4,[ix+127],d       ; 5F1A DD CB 7F A2
06562   5F1E DD CB 7F A2         RES  4,[IX+127],D       ; 5F1E DD CB 7F A2
06563   5F22 DD CB 80 A3         res  4,[ix+-128],e      ; 5F22 DD CB 80 A3
06564   5F26 DD CB 80 A3         RES  4,[IX+-128],E      ; 5F26 DD CB 80 A3
06565   5F2A DD CB FF A3         res  4,[ix+-1],e        ; 5F2A DD CB FF A3
06566   5F2E DD CB FF A3         RES  4,[IX+-1],E        ; 5F2E DD CB FF A3
06567   5F32 DD CB 00 A3         res  4,[ix+0],e         ; 5F32 DD CB 00 A3
06568   5F36 DD CB 00 A3         RES  4,[IX+0],E         ; 5F36 DD CB 00 A3
06569   5F3A DD CB 7F A3         res  4,[ix+127],e       ; 5F3A DD CB 7F A3
06570   5F3E DD CB 7F A3         RES  4,[IX+127],E       ; 5F3E DD CB 7F A3
06571   5F42 DD CB 80 A4         res  4,[ix+-128],h      ; 5F42 DD CB 80 A4
06572   5F46 DD CB 80 A4         RES  4,[IX+-128],H      ; 5F46 DD CB 80 A4
06573   5F4A DD CB FF A4         res  4,[ix+-1],h        ; 5F4A DD CB FF A4
06574   5F4E DD CB FF A4         RES  4,[IX+-1],H        ; 5F4E DD CB FF A4
06575   5F52 DD CB 00 A4         res  4,[ix+0],h         ; 5F52 DD CB 00 A4
06576   5F56 DD CB 00 A4         RES  4,[IX+0],H         ; 5F56 DD CB 00 A4
06577   5F5A DD CB 7F A4         res  4,[ix+127],h       ; 5F5A DD CB 7F A4
06578   5F5E DD CB 7F A4         RES  4,[IX+127],H       ; 5F5E DD CB 7F A4
06579   5F62 DD CB 80 A5         res  4,[ix+-128],l      ; 5F62 DD CB 80 A5
06580   5F66 DD CB 80 A5         RES  4,[IX+-128],L      ; 5F66 DD CB 80 A5
06581   5F6A DD CB FF A5         res  4,[ix+-1],l        ; 5F6A DD CB FF A5
06582   5F6E DD CB FF A5         RES  4,[IX+-1],L        ; 5F6E DD CB FF A5
06583   5F72 DD CB 00 A5         res  4,[ix+0],l         ; 5F72 DD CB 00 A5
06584   5F76 DD CB 00 A5         RES  4,[IX+0],L         ; 5F76 DD CB 00 A5
06585   5F7A DD CB 7F A5         res  4,[ix+127],l       ; 5F7A DD CB 7F A5
06586   5F7E DD CB 7F A5         RES  4,[IX+127],L       ; 5F7E DD CB 7F A5
06587   5F82 FD CB 80 A6         res  4,[iy+-128]        ; 5F82 FD CB 80 A6
06588   5F86 FD CB 80 A6         RES  4,[IY+-128]        ; 5F86 FD CB 80 A6
06589   5F8A FD CB FF A6         res  4,[iy+-1]          ; 5F8A FD CB FF A6
06590   5F8E FD CB FF A6         RES  4,[IY+-1]          ; 5F8E FD CB FF A6
06591   5F92 FD CB 00 A6         res  4,[iy+0]           ; 5F92 FD CB 00 A6
06592   5F96 FD CB 00 A6         RES  4,[IY+0]           ; 5F96 FD CB 00 A6
06593   5F9A FD CB 7F A6         res  4,[iy+127]         ; 5F9A FD CB 7F A6
06594   5F9E FD CB 7F A6         RES  4,[IY+127]         ; 5F9E FD CB 7F A6
06595   5FA2 FD CB 80 A7         res  4,[iy+-128],a      ; 5FA2 FD CB 80 A7
06596   5FA6 FD CB 80 A7         RES  4,[IY+-128],A      ; 5FA6 FD CB 80 A7
06597   5FAA FD CB FF A7         res  4,[iy+-1],a        ; 5FAA FD CB FF A7
06598   5FAE FD CB FF A7         RES  4,[IY+-1],A        ; 5FAE FD CB FF A7
06599   5FB2 FD CB 00 A7         res  4,[iy+0],a         ; 5FB2 FD CB 00 A7
06600   5FB6 FD CB 00 A7         RES  4,[IY+0],A         ; 5FB6 FD CB 00 A7
06601   5FBA FD CB 7F A7         res  4,[iy+127],a       ; 5FBA FD CB 7F A7
06602   5FBE FD CB 7F A7         RES  4,[IY+127],A       ; 5FBE FD CB 7F A7
06603   5FC2 FD CB 80 A0         res  4,[iy+-128],b      ; 5FC2 FD CB 80 A0
06604   5FC6 FD CB 80 A0         RES  4,[IY+-128],B      ; 5FC6 FD CB 80 A0
06605   5FCA FD CB FF A0         res  4,[iy+-1],b        ; 5FCA FD CB FF A0
06606   5FCE FD CB FF A0         RES  4,[IY+-1],B        ; 5FCE FD CB FF A0
06607   5FD2 FD CB 00 A0         res  4,[iy+0],b         ; 5FD2 FD CB 00 A0
06608   5FD6 FD CB 00 A0         RES  4,[IY+0],B         ; 5FD6 FD CB 00 A0
06609   5FDA FD CB 7F A0         res  4,[iy+127],b       ; 5FDA FD CB 7F A0
06610   5FDE FD CB 7F A0         RES  4,[IY+127],B       ; 5FDE FD CB 7F A0
06611   5FE2 FD CB 80 A1         res  4,[iy+-128],c      ; 5FE2 FD CB 80 A1
06612   5FE6 FD CB 80 A1         RES  4,[IY+-128],C      ; 5FE6 FD CB 80 A1
06613   5FEA FD CB FF A1         res  4,[iy+-1],c        ; 5FEA FD CB FF A1
06614   5FEE FD CB FF A1         RES  4,[IY+-1],C        ; 5FEE FD CB FF A1
06615   5FF2 FD CB 00 A1         res  4,[iy+0],c         ; 5FF2 FD CB 00 A1
06616   5FF6 FD CB 00 A1         RES  4,[IY+0],C         ; 5FF6 FD CB 00 A1
06617   5FFA FD CB 7F A1         res  4,[iy+127],c       ; 5FFA FD CB 7F A1
06618   5FFE FD CB 7F A1         RES  4,[IY+127],C       ; 5FFE FD CB 7F A1
06619   6002 FD CB 80 A2         res  4,[iy+-128],d      ; 6002 FD CB 80 A2
06620   6006 FD CB 80 A2         RES  4,[IY+-128],D      ; 6006 FD CB 80 A2
06621   600A FD CB FF A2         res  4,[iy+-1],d        ; 600A FD CB FF A2
06622   600E FD CB FF A2         RES  4,[IY+-1],D        ; 600E FD CB FF A2
06623   6012 FD CB 00 A2         res  4,[iy+0],d         ; 6012 FD CB 00 A2
06624   6016 FD CB 00 A2         RES  4,[IY+0],D         ; 6016 FD CB 00 A2
06625   601A FD CB 7F A2         res  4,[iy+127],d       ; 601A FD CB 7F A2
06626   601E FD CB 7F A2         RES  4,[IY+127],D       ; 601E FD CB 7F A2
06627   6022 FD CB 80 A3         res  4,[iy+-128],e      ; 6022 FD CB 80 A3
06628   6026 FD CB 80 A3         RES  4,[IY+-128],E      ; 6026 FD CB 80 A3
06629   602A FD CB FF A3         res  4,[iy+-1],e        ; 602A FD CB FF A3
06630   602E FD CB FF A3         RES  4,[IY+-1],E        ; 602E FD CB FF A3
06631   6032 FD CB 00 A3         res  4,[iy+0],e         ; 6032 FD CB 00 A3
06632   6036 FD CB 00 A3         RES  4,[IY+0],E         ; 6036 FD CB 00 A3
06633   603A FD CB 7F A3         res  4,[iy+127],e       ; 603A FD CB 7F A3
06634   603E FD CB 7F A3         RES  4,[IY+127],E       ; 603E FD CB 7F A3
06635   6042 FD CB 80 A4         res  4,[iy+-128],h      ; 6042 FD CB 80 A4
06636   6046 FD CB 80 A4         RES  4,[IY+-128],H      ; 6046 FD CB 80 A4
06637   604A FD CB FF A4         res  4,[iy+-1],h        ; 604A FD CB FF A4
06638   604E FD CB FF A4         RES  4,[IY+-1],H        ; 604E FD CB FF A4
06639   6052 FD CB 00 A4         res  4,[iy+0],h         ; 6052 FD CB 00 A4
06640   6056 FD CB 00 A4         RES  4,[IY+0],H         ; 6056 FD CB 00 A4
06641   605A FD CB 7F A4         res  4,[iy+127],h       ; 605A FD CB 7F A4
06642   605E FD CB 7F A4         RES  4,[IY+127],H       ; 605E FD CB 7F A4
06643   6062 FD CB 80 A5         res  4,[iy+-128],l      ; 6062 FD CB 80 A5
06644   6066 FD CB 80 A5         RES  4,[IY+-128],L      ; 6066 FD CB 80 A5
06645   606A FD CB FF A5         res  4,[iy+-1],l        ; 606A FD CB FF A5
06646   606E FD CB FF A5         RES  4,[IY+-1],L        ; 606E FD CB FF A5
06647   6072 FD CB 00 A5         res  4,[iy+0],l         ; 6072 FD CB 00 A5
06648   6076 FD CB 00 A5         RES  4,[IY+0],L         ; 6076 FD CB 00 A5
06649   607A FD CB 7F A5         res  4,[iy+127],l       ; 607A FD CB 7F A5
06650   607E FD CB 7F A5         RES  4,[IY+127],L       ; 607E FD CB 7F A5
06651   6082 CB A7               res  4,a                ; 6082 CB A7
06652   6084 CB A7               RES  4,A                ; 6084 CB A7
06653   6086 CB A0               res  4,b                ; 6086 CB A0
06654   6088 CB A0               RES  4,B                ; 6088 CB A0
06655   608A CB A1               res  4,c                ; 608A CB A1
06656   608C CB A1               RES  4,C                ; 608C CB A1
06657   608E CB A2               res  4,d                ; 608E CB A2
06658   6090 CB A2               RES  4,D                ; 6090 CB A2
06659   6092 CB A3               res  4,e                ; 6092 CB A3
06660   6094 CB A3               RES  4,E                ; 6094 CB A3
06661   6096 CB A4               res  4,h                ; 6096 CB A4
06662   6098 CB A4               RES  4,H                ; 6098 CB A4
06663   609A CB A5               res  4,l                ; 609A CB A5
06664   609C CB A5               RES  4,L                ; 609C CB A5
06665   609E CB AE               res  5,(hl)             ; 609E CB AE
06666   60A0 CB AE               RES  5,(HL)             ; 60A0 CB AE
06667   60A2 DD CB 80 AE         res  5,(ix+-128)        ; 60A2 DD CB 80 AE
06668   60A6 DD CB 80 AE         RES  5,(IX+-128)        ; 60A6 DD CB 80 AE
06669   60AA DD CB FF AE         res  5,(ix+-1)          ; 60AA DD CB FF AE
06670   60AE DD CB FF AE         RES  5,(IX+-1)          ; 60AE DD CB FF AE
06671   60B2 DD CB 00 AE         res  5,(ix+0)           ; 60B2 DD CB 00 AE
06672   60B6 DD CB 00 AE         RES  5,(IX+0)           ; 60B6 DD CB 00 AE
06673   60BA DD CB 7F AE         res  5,(ix+127)         ; 60BA DD CB 7F AE
06674   60BE DD CB 7F AE         RES  5,(IX+127)         ; 60BE DD CB 7F AE
06675   60C2 DD CB 80 AF         res  5,(ix+-128),a      ; 60C2 DD CB 80 AF
06676   60C6 DD CB 80 AF         RES  5,(IX+-128),A      ; 60C6 DD CB 80 AF
06677   60CA DD CB FF AF         res  5,(ix+-1),a        ; 60CA DD CB FF AF
06678   60CE DD CB FF AF         RES  5,(IX+-1),A        ; 60CE DD CB FF AF
06679   60D2 DD CB 00 AF         res  5,(ix+0),a         ; 60D2 DD CB 00 AF
06680   60D6 DD CB 00 AF         RES  5,(IX+0),A         ; 60D6 DD CB 00 AF
06681   60DA DD CB 7F AF         res  5,(ix+127),a       ; 60DA DD CB 7F AF
06682   60DE DD CB 7F AF         RES  5,(IX+127),A       ; 60DE DD CB 7F AF
06683   60E2 DD CB 80 A8         res  5,(ix+-128),b      ; 60E2 DD CB 80 A8
06684   60E6 DD CB 80 A8         RES  5,(IX+-128),B      ; 60E6 DD CB 80 A8
06685   60EA DD CB FF A8         res  5,(ix+-1),b        ; 60EA DD CB FF A8
06686   60EE DD CB FF A8         RES  5,(IX+-1),B        ; 60EE DD CB FF A8
06687   60F2 DD CB 00 A8         res  5,(ix+0),b         ; 60F2 DD CB 00 A8
06688   60F6 DD CB 00 A8         RES  5,(IX+0),B         ; 60F6 DD CB 00 A8
06689   60FA DD CB 7F A8         res  5,(ix+127),b       ; 60FA DD CB 7F A8
06690   60FE DD CB 7F A8         RES  5,(IX+127),B       ; 60FE DD CB 7F A8
06691   6102 DD CB 80 A9         res  5,(ix+-128),c      ; 6102 DD CB 80 A9
06692   6106 DD CB 80 A9         RES  5,(IX+-128),C      ; 6106 DD CB 80 A9
06693   610A DD CB FF A9         res  5,(ix+-1),c        ; 610A DD CB FF A9
06694   610E DD CB FF A9         RES  5,(IX+-1),C        ; 610E DD CB FF A9
06695   6112 DD CB 00 A9         res  5,(ix+0),c         ; 6112 DD CB 00 A9
06696   6116 DD CB 00 A9         RES  5,(IX+0),C         ; 6116 DD CB 00 A9
06697   611A DD CB 7F A9         res  5,(ix+127),c       ; 611A DD CB 7F A9
06698   611E DD CB 7F A9         RES  5,(IX+127),C       ; 611E DD CB 7F A9
06699   6122 DD CB 80 AA         res  5,(ix+-128),d      ; 6122 DD CB 80 AA
06700   6126 DD CB 80 AA         RES  5,(IX+-128),D      ; 6126 DD CB 80 AA
06701   612A DD CB FF AA         res  5,(ix+-1),d        ; 612A DD CB FF AA
06702   612E DD CB FF AA         RES  5,(IX+-1),D        ; 612E DD CB FF AA
06703   6132 DD CB 00 AA         res  5,(ix+0),d         ; 6132 DD CB 00 AA
06704   6136 DD CB 00 AA         RES  5,(IX+0),D         ; 6136 DD CB 00 AA
06705   613A DD CB 7F AA         res  5,(ix+127),d       ; 613A DD CB 7F AA
06706   613E DD CB 7F AA         RES  5,(IX+127),D       ; 613E DD CB 7F AA
06707   6142 DD CB 80 AB         res  5,(ix+-128),e      ; 6142 DD CB 80 AB
06708   6146 DD CB 80 AB         RES  5,(IX+-128),E      ; 6146 DD CB 80 AB
06709   614A DD CB FF AB         res  5,(ix+-1),e        ; 614A DD CB FF AB
06710   614E DD CB FF AB         RES  5,(IX+-1),E        ; 614E DD CB FF AB
06711   6152 DD CB 00 AB         res  5,(ix+0),e         ; 6152 DD CB 00 AB
06712   6156 DD CB 00 AB         RES  5,(IX+0),E         ; 6156 DD CB 00 AB
06713   615A DD CB 7F AB         res  5,(ix+127),e       ; 615A DD CB 7F AB
06714   615E DD CB 7F AB         RES  5,(IX+127),E       ; 615E DD CB 7F AB
06715   6162 DD CB 80 AC         res  5,(ix+-128),h      ; 6162 DD CB 80 AC
06716   6166 DD CB 80 AC         RES  5,(IX+-128),H      ; 6166 DD CB 80 AC
06717   616A DD CB FF AC         res  5,(ix+-1),h        ; 616A DD CB FF AC
06718   616E DD CB FF AC         RES  5,(IX+-1),H        ; 616E DD CB FF AC
06719   6172 DD CB 00 AC         res  5,(ix+0),h         ; 6172 DD CB 00 AC
06720   6176 DD CB 00 AC         RES  5,(IX+0),H         ; 6176 DD CB 00 AC
06721   617A DD CB 7F AC         res  5,(ix+127),h       ; 617A DD CB 7F AC
06722   617E DD CB 7F AC         RES  5,(IX+127),H       ; 617E DD CB 7F AC
06723   6182 DD CB 80 AD         res  5,(ix+-128),l      ; 6182 DD CB 80 AD
06724   6186 DD CB 80 AD         RES  5,(IX+-128),L      ; 6186 DD CB 80 AD
06725   618A DD CB FF AD         res  5,(ix+-1),l        ; 618A DD CB FF AD
06726   618E DD CB FF AD         RES  5,(IX+-1),L        ; 618E DD CB FF AD
06727   6192 DD CB 00 AD         res  5,(ix+0),l         ; 6192 DD CB 00 AD
06728   6196 DD CB 00 AD         RES  5,(IX+0),L         ; 6196 DD CB 00 AD
06729   619A DD CB 7F AD         res  5,(ix+127),l       ; 619A DD CB 7F AD
06730   619E DD CB 7F AD         RES  5,(IX+127),L       ; 619E DD CB 7F AD
06731   61A2 FD CB 80 AE         res  5,(iy+-128)        ; 61A2 FD CB 80 AE
06732   61A6 FD CB 80 AE         RES  5,(IY+-128)        ; 61A6 FD CB 80 AE
06733   61AA FD CB FF AE         res  5,(iy+-1)          ; 61AA FD CB FF AE
06734   61AE FD CB FF AE         RES  5,(IY+-1)          ; 61AE FD CB FF AE
06735   61B2 FD CB 00 AE         res  5,(iy+0)           ; 61B2 FD CB 00 AE
06736   61B6 FD CB 00 AE         RES  5,(IY+0)           ; 61B6 FD CB 00 AE
06737   61BA FD CB 7F AE         res  5,(iy+127)         ; 61BA FD CB 7F AE
06738   61BE FD CB 7F AE         RES  5,(IY+127)         ; 61BE FD CB 7F AE
06739   61C2 FD CB 80 AF         res  5,(iy+-128),a      ; 61C2 FD CB 80 AF
06740   61C6 FD CB 80 AF         RES  5,(IY+-128),A      ; 61C6 FD CB 80 AF
06741   61CA FD CB FF AF         res  5,(iy+-1),a        ; 61CA FD CB FF AF
06742   61CE FD CB FF AF         RES  5,(IY+-1),A        ; 61CE FD CB FF AF
06743   61D2 FD CB 00 AF         res  5,(iy+0),a         ; 61D2 FD CB 00 AF
06744   61D6 FD CB 00 AF         RES  5,(IY+0),A         ; 61D6 FD CB 00 AF
06745   61DA FD CB 7F AF         res  5,(iy+127),a       ; 61DA FD CB 7F AF
06746   61DE FD CB 7F AF         RES  5,(IY+127),A       ; 61DE FD CB 7F AF
06747   61E2 FD CB 80 A8         res  5,(iy+-128),b      ; 61E2 FD CB 80 A8
06748   61E6 FD CB 80 A8         RES  5,(IY+-128),B      ; 61E6 FD CB 80 A8
06749   61EA FD CB FF A8         res  5,(iy+-1),b        ; 61EA FD CB FF A8
06750   61EE FD CB FF A8         RES  5,(IY+-1),B        ; 61EE FD CB FF A8
06751   61F2 FD CB 00 A8         res  5,(iy+0),b         ; 61F2 FD CB 00 A8
06752   61F6 FD CB 00 A8         RES  5,(IY+0),B         ; 61F6 FD CB 00 A8
06753   61FA FD CB 7F A8         res  5,(iy+127),b       ; 61FA FD CB 7F A8
06754   61FE FD CB 7F A8         RES  5,(IY+127),B       ; 61FE FD CB 7F A8
06755   6202 FD CB 80 A9         res  5,(iy+-128),c      ; 6202 FD CB 80 A9
06756   6206 FD CB 80 A9         RES  5,(IY+-128),C      ; 6206 FD CB 80 A9
06757   620A FD CB FF A9         res  5,(iy+-1),c        ; 620A FD CB FF A9
06758   620E FD CB FF A9         RES  5,(IY+-1),C        ; 620E FD CB FF A9
06759   6212 FD CB 00 A9         res  5,(iy+0),c         ; 6212 FD CB 00 A9
06760   6216 FD CB 00 A9         RES  5,(IY+0),C         ; 6216 FD CB 00 A9
06761   621A FD CB 7F A9         res  5,(iy+127),c       ; 621A FD CB 7F A9
06762   621E FD CB 7F A9         RES  5,(IY+127),C       ; 621E FD CB 7F A9
06763   6222 FD CB 80 AA         res  5,(iy+-128),d      ; 6222 FD CB 80 AA
06764   6226 FD CB 80 AA         RES  5,(IY+-128),D      ; 6226 FD CB 80 AA
06765   622A FD CB FF AA         res  5,(iy+-1),d        ; 622A FD CB FF AA
06766   622E FD CB FF AA         RES  5,(IY+-1),D        ; 622E FD CB FF AA
06767   6232 FD CB 00 AA         res  5,(iy+0),d         ; 6232 FD CB 00 AA
06768   6236 FD CB 00 AA         RES  5,(IY+0),D         ; 6236 FD CB 00 AA
06769   623A FD CB 7F AA         res  5,(iy+127),d       ; 623A FD CB 7F AA
06770   623E FD CB 7F AA         RES  5,(IY+127),D       ; 623E FD CB 7F AA
06771   6242 FD CB 80 AB         res  5,(iy+-128),e      ; 6242 FD CB 80 AB
06772   6246 FD CB 80 AB         RES  5,(IY+-128),E      ; 6246 FD CB 80 AB
06773   624A FD CB FF AB         res  5,(iy+-1),e        ; 624A FD CB FF AB
06774   624E FD CB FF AB         RES  5,(IY+-1),E        ; 624E FD CB FF AB
06775   6252 FD CB 00 AB         res  5,(iy+0),e         ; 6252 FD CB 00 AB
06776   6256 FD CB 00 AB         RES  5,(IY+0),E         ; 6256 FD CB 00 AB
06777   625A FD CB 7F AB         res  5,(iy+127),e       ; 625A FD CB 7F AB
06778   625E FD CB 7F AB         RES  5,(IY+127),E       ; 625E FD CB 7F AB
06779   6262 FD CB 80 AC         res  5,(iy+-128),h      ; 6262 FD CB 80 AC
06780   6266 FD CB 80 AC         RES  5,(IY+-128),H      ; 6266 FD CB 80 AC
06781   626A FD CB FF AC         res  5,(iy+-1),h        ; 626A FD CB FF AC
06782   626E FD CB FF AC         RES  5,(IY+-1),H        ; 626E FD CB FF AC
06783   6272 FD CB 00 AC         res  5,(iy+0),h         ; 6272 FD CB 00 AC
06784   6276 FD CB 00 AC         RES  5,(IY+0),H         ; 6276 FD CB 00 AC
06785   627A FD CB 7F AC         res  5,(iy+127),h       ; 627A FD CB 7F AC
06786   627E FD CB 7F AC         RES  5,(IY+127),H       ; 627E FD CB 7F AC
06787   6282 FD CB 80 AD         res  5,(iy+-128),l      ; 6282 FD CB 80 AD
06788   6286 FD CB 80 AD         RES  5,(IY+-128),L      ; 6286 FD CB 80 AD
06789   628A FD CB FF AD         res  5,(iy+-1),l        ; 628A FD CB FF AD
06790   628E FD CB FF AD         RES  5,(IY+-1),L        ; 628E FD CB FF AD
06791   6292 FD CB 00 AD         res  5,(iy+0),l         ; 6292 FD CB 00 AD
06792   6296 FD CB 00 AD         RES  5,(IY+0),L         ; 6296 FD CB 00 AD
06793   629A FD CB 7F AD         res  5,(iy+127),l       ; 629A FD CB 7F AD
06794   629E FD CB 7F AD         RES  5,(IY+127),L       ; 629E FD CB 7F AD
06795   62A2 CB AE               res  5,[hl]             ; 62A2 CB AE
06796   62A4 CB AE               RES  5,[HL]             ; 62A4 CB AE
06797   62A6 DD CB 80 AE         res  5,[ix+-128]        ; 62A6 DD CB 80 AE
06798   62AA DD CB 80 AE         RES  5,[IX+-128]        ; 62AA DD CB 80 AE
06799   62AE DD CB FF AE         res  5,[ix+-1]          ; 62AE DD CB FF AE
06800   62B2 DD CB FF AE         RES  5,[IX+-1]          ; 62B2 DD CB FF AE
06801   62B6 DD CB 00 AE         res  5,[ix+0]           ; 62B6 DD CB 00 AE
06802   62BA DD CB 00 AE         RES  5,[IX+0]           ; 62BA DD CB 00 AE
06803   62BE DD CB 7F AE         res  5,[ix+127]         ; 62BE DD CB 7F AE
06804   62C2 DD CB 7F AE         RES  5,[IX+127]         ; 62C2 DD CB 7F AE
06805   62C6 DD CB 80 AF         res  5,[ix+-128],a      ; 62C6 DD CB 80 AF
06806   62CA DD CB 80 AF         RES  5,[IX+-128],A      ; 62CA DD CB 80 AF
06807   62CE DD CB FF AF         res  5,[ix+-1],a        ; 62CE DD CB FF AF
06808   62D2 DD CB FF AF         RES  5,[IX+-1],A        ; 62D2 DD CB FF AF
06809   62D6 DD CB 00 AF         res  5,[ix+0],a         ; 62D6 DD CB 00 AF
06810   62DA DD CB 00 AF         RES  5,[IX+0],A         ; 62DA DD CB 00 AF
06811   62DE DD CB 7F AF         res  5,[ix+127],a       ; 62DE DD CB 7F AF
06812   62E2 DD CB 7F AF         RES  5,[IX+127],A       ; 62E2 DD CB 7F AF
06813   62E6 DD CB 80 A8         res  5,[ix+-128],b      ; 62E6 DD CB 80 A8
06814   62EA DD CB 80 A8         RES  5,[IX+-128],B      ; 62EA DD CB 80 A8
06815   62EE DD CB FF A8         res  5,[ix+-1],b        ; 62EE DD CB FF A8
06816   62F2 DD CB FF A8         RES  5,[IX+-1],B        ; 62F2 DD CB FF A8
06817   62F6 DD CB 00 A8         res  5,[ix+0],b         ; 62F6 DD CB 00 A8
06818   62FA DD CB 00 A8         RES  5,[IX+0],B         ; 62FA DD CB 00 A8
06819   62FE DD CB 7F A8         res  5,[ix+127],b       ; 62FE DD CB 7F A8
06820   6302 DD CB 7F A8         RES  5,[IX+127],B       ; 6302 DD CB 7F A8
06821   6306 DD CB 80 A9         res  5,[ix+-128],c      ; 6306 DD CB 80 A9
06822   630A DD CB 80 A9         RES  5,[IX+-128],C      ; 630A DD CB 80 A9
06823   630E DD CB FF A9         res  5,[ix+-1],c        ; 630E DD CB FF A9
06824   6312 DD CB FF A9         RES  5,[IX+-1],C        ; 6312 DD CB FF A9
06825   6316 DD CB 00 A9         res  5,[ix+0],c         ; 6316 DD CB 00 A9
06826   631A DD CB 00 A9         RES  5,[IX+0],C         ; 631A DD CB 00 A9
06827   631E DD CB 7F A9         res  5,[ix+127],c       ; 631E DD CB 7F A9
06828   6322 DD CB 7F A9         RES  5,[IX+127],C       ; 6322 DD CB 7F A9
06829   6326 DD CB 80 AA         res  5,[ix+-128],d      ; 6326 DD CB 80 AA
06830   632A DD CB 80 AA         RES  5,[IX+-128],D      ; 632A DD CB 80 AA
06831   632E DD CB FF AA         res  5,[ix+-1],d        ; 632E DD CB FF AA
06832   6332 DD CB FF AA         RES  5,[IX+-1],D        ; 6332 DD CB FF AA
06833   6336 DD CB 00 AA         res  5,[ix+0],d         ; 6336 DD CB 00 AA
06834   633A DD CB 00 AA         RES  5,[IX+0],D         ; 633A DD CB 00 AA
06835   633E DD CB 7F AA         res  5,[ix+127],d       ; 633E DD CB 7F AA
06836   6342 DD CB 7F AA         RES  5,[IX+127],D       ; 6342 DD CB 7F AA
06837   6346 DD CB 80 AB         res  5,[ix+-128],e      ; 6346 DD CB 80 AB
06838   634A DD CB 80 AB         RES  5,[IX+-128],E      ; 634A DD CB 80 AB
06839   634E DD CB FF AB         res  5,[ix+-1],e        ; 634E DD CB FF AB
06840   6352 DD CB FF AB         RES  5,[IX+-1],E        ; 6352 DD CB FF AB
06841   6356 DD CB 00 AB         res  5,[ix+0],e         ; 6356 DD CB 00 AB
06842   635A DD CB 00 AB         RES  5,[IX+0],E         ; 635A DD CB 00 AB
06843   635E DD CB 7F AB         res  5,[ix+127],e       ; 635E DD CB 7F AB
06844   6362 DD CB 7F AB         RES  5,[IX+127],E       ; 6362 DD CB 7F AB
06845   6366 DD CB 80 AC         res  5,[ix+-128],h      ; 6366 DD CB 80 AC
06846   636A DD CB 80 AC         RES  5,[IX+-128],H      ; 636A DD CB 80 AC
06847   636E DD CB FF AC         res  5,[ix+-1],h        ; 636E DD CB FF AC
06848   6372 DD CB FF AC         RES  5,[IX+-1],H        ; 6372 DD CB FF AC
06849   6376 DD CB 00 AC         res  5,[ix+0],h         ; 6376 DD CB 00 AC
06850   637A DD CB 00 AC         RES  5,[IX+0],H         ; 637A DD CB 00 AC
06851   637E DD CB 7F AC         res  5,[ix+127],h       ; 637E DD CB 7F AC
06852   6382 DD CB 7F AC         RES  5,[IX+127],H       ; 6382 DD CB 7F AC
06853   6386 DD CB 80 AD         res  5,[ix+-128],l      ; 6386 DD CB 80 AD
06854   638A DD CB 80 AD         RES  5,[IX+-128],L      ; 638A DD CB 80 AD
06855   638E DD CB FF AD         res  5,[ix+-1],l        ; 638E DD CB FF AD
06856   6392 DD CB FF AD         RES  5,[IX+-1],L        ; 6392 DD CB FF AD
06857   6396 DD CB 00 AD         res  5,[ix+0],l         ; 6396 DD CB 00 AD
06858   639A DD CB 00 AD         RES  5,[IX+0],L         ; 639A DD CB 00 AD
06859   639E DD CB 7F AD         res  5,[ix+127],l       ; 639E DD CB 7F AD
06860   63A2 DD CB 7F AD         RES  5,[IX+127],L       ; 63A2 DD CB 7F AD
06861   63A6 FD CB 80 AE         res  5,[iy+-128]        ; 63A6 FD CB 80 AE
06862   63AA FD CB 80 AE         RES  5,[IY+-128]        ; 63AA FD CB 80 AE
06863   63AE FD CB FF AE         res  5,[iy+-1]          ; 63AE FD CB FF AE
06864   63B2 FD CB FF AE         RES  5,[IY+-1]          ; 63B2 FD CB FF AE
06865   63B6 FD CB 00 AE         res  5,[iy+0]           ; 63B6 FD CB 00 AE
06866   63BA FD CB 00 AE         RES  5,[IY+0]           ; 63BA FD CB 00 AE
06867   63BE FD CB 7F AE         res  5,[iy+127]         ; 63BE FD CB 7F AE
06868   63C2 FD CB 7F AE         RES  5,[IY+127]         ; 63C2 FD CB 7F AE
06869   63C6 FD CB 80 AF         res  5,[iy+-128],a      ; 63C6 FD CB 80 AF
06870   63CA FD CB 80 AF         RES  5,[IY+-128],A      ; 63CA FD CB 80 AF
06871   63CE FD CB FF AF         res  5,[iy+-1],a        ; 63CE FD CB FF AF
06872   63D2 FD CB FF AF         RES  5,[IY+-1],A        ; 63D2 FD CB FF AF
06873   63D6 FD CB 00 AF         res  5,[iy+0],a         ; 63D6 FD CB 00 AF
06874   63DA FD CB 00 AF         RES  5,[IY+0],A         ; 63DA FD CB 00 AF
06875   63DE FD CB 7F AF         res  5,[iy+127],a       ; 63DE FD CB 7F AF
06876   63E2 FD CB 7F AF         RES  5,[IY+127],A       ; 63E2 FD CB 7F AF
06877   63E6 FD CB 80 A8         res  5,[iy+-128],b      ; 63E6 FD CB 80 A8
06878   63EA FD CB 80 A8         RES  5,[IY+-128],B      ; 63EA FD CB 80 A8
06879   63EE FD CB FF A8         res  5,[iy+-1],b        ; 63EE FD CB FF A8
06880   63F2 FD CB FF A8         RES  5,[IY+-1],B        ; 63F2 FD CB FF A8
06881   63F6 FD CB 00 A8         res  5,[iy+0],b         ; 63F6 FD CB 00 A8
06882   63FA FD CB 00 A8         RES  5,[IY+0],B         ; 63FA FD CB 00 A8
06883   63FE FD CB 7F A8         res  5,[iy+127],b       ; 63FE FD CB 7F A8
06884   6402 FD CB 7F A8         RES  5,[IY+127],B       ; 6402 FD CB 7F A8
06885   6406 FD CB 80 A9         res  5,[iy+-128],c      ; 6406 FD CB 80 A9
06886   640A FD CB 80 A9         RES  5,[IY+-128],C      ; 640A FD CB 80 A9
06887   640E FD CB FF A9         res  5,[iy+-1],c        ; 640E FD CB FF A9
06888   6412 FD CB FF A9         RES  5,[IY+-1],C        ; 6412 FD CB FF A9
06889   6416 FD CB 00 A9         res  5,[iy+0],c         ; 6416 FD CB 00 A9
06890   641A FD CB 00 A9         RES  5,[IY+0],C         ; 641A FD CB 00 A9
06891   641E FD CB 7F A9         res  5,[iy+127],c       ; 641E FD CB 7F A9
06892   6422 FD CB 7F A9         RES  5,[IY+127],C       ; 6422 FD CB 7F A9
06893   6426 FD CB 80 AA         res  5,[iy+-128],d      ; 6426 FD CB 80 AA
06894   642A FD CB 80 AA         RES  5,[IY+-128],D      ; 642A FD CB 80 AA
06895   642E FD CB FF AA         res  5,[iy+-1],d        ; 642E FD CB FF AA
06896   6432 FD CB FF AA         RES  5,[IY+-1],D        ; 6432 FD CB FF AA
06897   6436 FD CB 00 AA         res  5,[iy+0],d         ; 6436 FD CB 00 AA
06898   643A FD CB 00 AA         RES  5,[IY+0],D         ; 643A FD CB 00 AA
06899   643E FD CB 7F AA         res  5,[iy+127],d       ; 643E FD CB 7F AA
06900   6442 FD CB 7F AA         RES  5,[IY+127],D       ; 6442 FD CB 7F AA
06901   6446 FD CB 80 AB         res  5,[iy+-128],e      ; 6446 FD CB 80 AB
06902   644A FD CB 80 AB         RES  5,[IY+-128],E      ; 644A FD CB 80 AB
06903   644E FD CB FF AB         res  5,[iy+-1],e        ; 644E FD CB FF AB
06904   6452 FD CB FF AB         RES  5,[IY+-1],E        ; 6452 FD CB FF AB
06905   6456 FD CB 00 AB         res  5,[iy+0],e         ; 6456 FD CB 00 AB
06906   645A FD CB 00 AB         RES  5,[IY+0],E         ; 645A FD CB 00 AB
06907   645E FD CB 7F AB         res  5,[iy+127],e       ; 645E FD CB 7F AB
06908   6462 FD CB 7F AB         RES  5,[IY+127],E       ; 6462 FD CB 7F AB
06909   6466 FD CB 80 AC         res  5,[iy+-128],h      ; 6466 FD CB 80 AC
06910   646A FD CB 80 AC         RES  5,[IY+-128],H      ; 646A FD CB 80 AC
06911   646E FD CB FF AC         res  5,[iy+-1],h        ; 646E FD CB FF AC
06912   6472 FD CB FF AC         RES  5,[IY+-1],H        ; 6472 FD CB FF AC
06913   6476 FD CB 00 AC         res  5,[iy+0],h         ; 6476 FD CB 00 AC
06914   647A FD CB 00 AC         RES  5,[IY+0],H         ; 647A FD CB 00 AC
06915   647E FD CB 7F AC         res  5,[iy+127],h       ; 647E FD CB 7F AC
06916   6482 FD CB 7F AC         RES  5,[IY+127],H       ; 6482 FD CB 7F AC
06917   6486 FD CB 80 AD         res  5,[iy+-128],l      ; 6486 FD CB 80 AD
06918   648A FD CB 80 AD         RES  5,[IY+-128],L      ; 648A FD CB 80 AD
06919   648E FD CB FF AD         res  5,[iy+-1],l        ; 648E FD CB FF AD
06920   6492 FD CB FF AD         RES  5,[IY+-1],L        ; 6492 FD CB FF AD
06921   6496 FD CB 00 AD         res  5,[iy+0],l         ; 6496 FD CB 00 AD
06922   649A FD CB 00 AD         RES  5,[IY+0],L         ; 649A FD CB 00 AD
06923   649E FD CB 7F AD         res  5,[iy+127],l       ; 649E FD CB 7F AD
06924   64A2 FD CB 7F AD         RES  5,[IY+127],L       ; 64A2 FD CB 7F AD
06925   64A6 CB AF               res  5,a                ; 64A6 CB AF
06926   64A8 CB AF               RES  5,A                ; 64A8 CB AF
06927   64AA CB A8               res  5,b                ; 64AA CB A8
06928   64AC CB A8               RES  5,B                ; 64AC CB A8
06929   64AE CB A9               res  5,c                ; 64AE CB A9
06930   64B0 CB A9               RES  5,C                ; 64B0 CB A9
06931   64B2 CB AA               res  5,d                ; 64B2 CB AA
06932   64B4 CB AA               RES  5,D                ; 64B4 CB AA
06933   64B6 CB AB               res  5,e                ; 64B6 CB AB
06934   64B8 CB AB               RES  5,E                ; 64B8 CB AB
06935   64BA CB AC               res  5,h                ; 64BA CB AC
06936   64BC CB AC               RES  5,H                ; 64BC CB AC
06937   64BE CB AD               res  5,l                ; 64BE CB AD
06938   64C0 CB AD               RES  5,L                ; 64C0 CB AD
06939   64C2 CB B6               res  6,(hl)             ; 64C2 CB B6
06940   64C4 CB B6               RES  6,(HL)             ; 64C4 CB B6
06941   64C6 DD CB 80 B6         res  6,(ix+-128)        ; 64C6 DD CB 80 B6
06942   64CA DD CB 80 B6         RES  6,(IX+-128)        ; 64CA DD CB 80 B6
06943   64CE DD CB FF B6         res  6,(ix+-1)          ; 64CE DD CB FF B6
06944   64D2 DD CB FF B6         RES  6,(IX+-1)          ; 64D2 DD CB FF B6
06945   64D6 DD CB 00 B6         res  6,(ix+0)           ; 64D6 DD CB 00 B6
06946   64DA DD CB 00 B6         RES  6,(IX+0)           ; 64DA DD CB 00 B6
06947   64DE DD CB 7F B6         res  6,(ix+127)         ; 64DE DD CB 7F B6
06948   64E2 DD CB 7F B6         RES  6,(IX+127)         ; 64E2 DD CB 7F B6
06949   64E6 DD CB 80 B7         res  6,(ix+-128),a      ; 64E6 DD CB 80 B7
06950   64EA DD CB 80 B7         RES  6,(IX+-128),A      ; 64EA DD CB 80 B7
06951   64EE DD CB FF B7         res  6,(ix+-1),a        ; 64EE DD CB FF B7
06952   64F2 DD CB FF B7         RES  6,(IX+-1),A        ; 64F2 DD CB FF B7
06953   64F6 DD CB 00 B7         res  6,(ix+0),a         ; 64F6 DD CB 00 B7
06954   64FA DD CB 00 B7         RES  6,(IX+0),A         ; 64FA DD CB 00 B7
06955   64FE DD CB 7F B7         res  6,(ix+127),a       ; 64FE DD CB 7F B7
06956   6502 DD CB 7F B7         RES  6,(IX+127),A       ; 6502 DD CB 7F B7
06957   6506 DD CB 80 B0         res  6,(ix+-128),b      ; 6506 DD CB 80 B0
06958   650A DD CB 80 B0         RES  6,(IX+-128),B      ; 650A DD CB 80 B0
06959   650E DD CB FF B0         res  6,(ix+-1),b        ; 650E DD CB FF B0
06960   6512 DD CB FF B0         RES  6,(IX+-1),B        ; 6512 DD CB FF B0
06961   6516 DD CB 00 B0         res  6,(ix+0),b         ; 6516 DD CB 00 B0
06962   651A DD CB 00 B0         RES  6,(IX+0),B         ; 651A DD CB 00 B0
06963   651E DD CB 7F B0         res  6,(ix+127),b       ; 651E DD CB 7F B0
06964   6522 DD CB 7F B0         RES  6,(IX+127),B       ; 6522 DD CB 7F B0
06965   6526 DD CB 80 B1         res  6,(ix+-128),c      ; 6526 DD CB 80 B1
06966   652A DD CB 80 B1         RES  6,(IX+-128),C      ; 652A DD CB 80 B1
06967   652E DD CB FF B1         res  6,(ix+-1),c        ; 652E DD CB FF B1
06968   6532 DD CB FF B1         RES  6,(IX+-1),C        ; 6532 DD CB FF B1
06969   6536 DD CB 00 B1         res  6,(ix+0),c         ; 6536 DD CB 00 B1
06970   653A DD CB 00 B1         RES  6,(IX+0),C         ; 653A DD CB 00 B1
06971   653E DD CB 7F B1         res  6,(ix+127),c       ; 653E DD CB 7F B1
06972   6542 DD CB 7F B1         RES  6,(IX+127),C       ; 6542 DD CB 7F B1
06973   6546 DD CB 80 B2         res  6,(ix+-128),d      ; 6546 DD CB 80 B2
06974   654A DD CB 80 B2         RES  6,(IX+-128),D      ; 654A DD CB 80 B2
06975   654E DD CB FF B2         res  6,(ix+-1),d        ; 654E DD CB FF B2
06976   6552 DD CB FF B2         RES  6,(IX+-1),D        ; 6552 DD CB FF B2
06977   6556 DD CB 00 B2         res  6,(ix+0),d         ; 6556 DD CB 00 B2
06978   655A DD CB 00 B2         RES  6,(IX+0),D         ; 655A DD CB 00 B2
06979   655E DD CB 7F B2         res  6,(ix+127),d       ; 655E DD CB 7F B2
06980   6562 DD CB 7F B2         RES  6,(IX+127),D       ; 6562 DD CB 7F B2
06981   6566 DD CB 80 B3         res  6,(ix+-128),e      ; 6566 DD CB 80 B3
06982   656A DD CB 80 B3         RES  6,(IX+-128),E      ; 656A DD CB 80 B3
06983   656E DD CB FF B3         res  6,(ix+-1),e        ; 656E DD CB FF B3
06984   6572 DD CB FF B3         RES  6,(IX+-1),E        ; 6572 DD CB FF B3
06985   6576 DD CB 00 B3         res  6,(ix+0),e         ; 6576 DD CB 00 B3
06986   657A DD CB 00 B3         RES  6,(IX+0),E         ; 657A DD CB 00 B3
06987   657E DD CB 7F B3         res  6,(ix+127),e       ; 657E DD CB 7F B3
06988   6582 DD CB 7F B3         RES  6,(IX+127),E       ; 6582 DD CB 7F B3
06989   6586 DD CB 80 B4         res  6,(ix+-128),h      ; 6586 DD CB 80 B4
06990   658A DD CB 80 B4         RES  6,(IX+-128),H      ; 658A DD CB 80 B4
06991   658E DD CB FF B4         res  6,(ix+-1),h        ; 658E DD CB FF B4
06992   6592 DD CB FF B4         RES  6,(IX+-1),H        ; 6592 DD CB FF B4
06993   6596 DD CB 00 B4         res  6,(ix+0),h         ; 6596 DD CB 00 B4
06994   659A DD CB 00 B4         RES  6,(IX+0),H         ; 659A DD CB 00 B4
06995   659E DD CB 7F B4         res  6,(ix+127),h       ; 659E DD CB 7F B4
06996   65A2 DD CB 7F B4         RES  6,(IX+127),H       ; 65A2 DD CB 7F B4
06997   65A6 DD CB 80 B5         res  6,(ix+-128),l      ; 65A6 DD CB 80 B5
06998   65AA DD CB 80 B5         RES  6,(IX+-128),L      ; 65AA DD CB 80 B5
06999   65AE DD CB FF B5         res  6,(ix+-1),l        ; 65AE DD CB FF B5
07000   65B2 DD CB FF B5         RES  6,(IX+-1),L        ; 65B2 DD CB FF B5
07001   65B6 DD CB 00 B5         res  6,(ix+0),l         ; 65B6 DD CB 00 B5
07002   65BA DD CB 00 B5         RES  6,(IX+0),L         ; 65BA DD CB 00 B5
07003   65BE DD CB 7F B5         res  6,(ix+127),l       ; 65BE DD CB 7F B5
07004   65C2 DD CB 7F B5         RES  6,(IX+127),L       ; 65C2 DD CB 7F B5
07005   65C6 FD CB 80 B6         res  6,(iy+-128)        ; 65C6 FD CB 80 B6
07006   65CA FD CB 80 B6         RES  6,(IY+-128)        ; 65CA FD CB 80 B6
07007   65CE FD CB FF B6         res  6,(iy+-1)          ; 65CE FD CB FF B6
07008   65D2 FD CB FF B6         RES  6,(IY+-1)          ; 65D2 FD CB FF B6
07009   65D6 FD CB 00 B6         res  6,(iy+0)           ; 65D6 FD CB 00 B6
07010   65DA FD CB 00 B6         RES  6,(IY+0)           ; 65DA FD CB 00 B6
07011   65DE FD CB 7F B6         res  6,(iy+127)         ; 65DE FD CB 7F B6
07012   65E2 FD CB 7F B6         RES  6,(IY+127)         ; 65E2 FD CB 7F B6
07013   65E6 FD CB 80 B7         res  6,(iy+-128),a      ; 65E6 FD CB 80 B7
07014   65EA FD CB 80 B7         RES  6,(IY+-128),A      ; 65EA FD CB 80 B7
07015   65EE FD CB FF B7         res  6,(iy+-1),a        ; 65EE FD CB FF B7
07016   65F2 FD CB FF B7         RES  6,(IY+-1),A        ; 65F2 FD CB FF B7
07017   65F6 FD CB 00 B7         res  6,(iy+0),a         ; 65F6 FD CB 00 B7
07018   65FA FD CB 00 B7         RES  6,(IY+0),A         ; 65FA FD CB 00 B7
07019   65FE FD CB 7F B7         res  6,(iy+127),a       ; 65FE FD CB 7F B7
07020   6602 FD CB 7F B7         RES  6,(IY+127),A       ; 6602 FD CB 7F B7
07021   6606 FD CB 80 B0         res  6,(iy+-128),b      ; 6606 FD CB 80 B0
07022   660A FD CB 80 B0         RES  6,(IY+-128),B      ; 660A FD CB 80 B0
07023   660E FD CB FF B0         res  6,(iy+-1),b        ; 660E FD CB FF B0
07024   6612 FD CB FF B0         RES  6,(IY+-1),B        ; 6612 FD CB FF B0
07025   6616 FD CB 00 B0         res  6,(iy+0),b         ; 6616 FD CB 00 B0
07026   661A FD CB 00 B0         RES  6,(IY+0),B         ; 661A FD CB 00 B0
07027   661E FD CB 7F B0         res  6,(iy+127),b       ; 661E FD CB 7F B0
07028   6622 FD CB 7F B0         RES  6,(IY+127),B       ; 6622 FD CB 7F B0
07029   6626 FD CB 80 B1         res  6,(iy+-128),c      ; 6626 FD CB 80 B1
07030   662A FD CB 80 B1         RES  6,(IY+-128),C      ; 662A FD CB 80 B1
07031   662E FD CB FF B1         res  6,(iy+-1),c        ; 662E FD CB FF B1
07032   6632 FD CB FF B1         RES  6,(IY+-1),C        ; 6632 FD CB FF B1
07033   6636 FD CB 00 B1         res  6,(iy+0),c         ; 6636 FD CB 00 B1
07034   663A FD CB 00 B1         RES  6,(IY+0),C         ; 663A FD CB 00 B1
07035   663E FD CB 7F B1         res  6,(iy+127),c       ; 663E FD CB 7F B1
07036   6642 FD CB 7F B1         RES  6,(IY+127),C       ; 6642 FD CB 7F B1
07037   6646 FD CB 80 B2         res  6,(iy+-128),d      ; 6646 FD CB 80 B2
07038   664A FD CB 80 B2         RES  6,(IY+-128),D      ; 664A FD CB 80 B2
07039   664E FD CB FF B2         res  6,(iy+-1),d        ; 664E FD CB FF B2
07040   6652 FD CB FF B2         RES  6,(IY+-1),D        ; 6652 FD CB FF B2
07041   6656 FD CB 00 B2         res  6,(iy+0),d         ; 6656 FD CB 00 B2
07042   665A FD CB 00 B2         RES  6,(IY+0),D         ; 665A FD CB 00 B2
07043   665E FD CB 7F B2         res  6,(iy+127),d       ; 665E FD CB 7F B2
07044   6662 FD CB 7F B2         RES  6,(IY+127),D       ; 6662 FD CB 7F B2
07045   6666 FD CB 80 B3         res  6,(iy+-128),e      ; 6666 FD CB 80 B3
07046   666A FD CB 80 B3         RES  6,(IY+-128),E      ; 666A FD CB 80 B3
07047   666E FD CB FF B3         res  6,(iy+-1),e        ; 666E FD CB FF B3
07048   6672 FD CB FF B3         RES  6,(IY+-1),E        ; 6672 FD CB FF B3
07049   6676 FD CB 00 B3         res  6,(iy+0),e         ; 6676 FD CB 00 B3
07050   667A FD CB 00 B3         RES  6,(IY+0),E         ; 667A FD CB 00 B3
07051   667E FD CB 7F B3         res  6,(iy+127),e       ; 667E FD CB 7F B3
07052   6682 FD CB 7F B3         RES  6,(IY+127),E       ; 6682 FD CB 7F B3
07053   6686 FD CB 80 B4         res  6,(iy+-128),h      ; 6686 FD CB 80 B4
07054   668A FD CB 80 B4         RES  6,(IY+-128),H      ; 668A FD CB 80 B4
07055   668E FD CB FF B4         res  6,(iy+-1),h        ; 668E FD CB FF B4
07056   6692 FD CB FF B4         RES  6,(IY+-1),H        ; 6692 FD CB FF B4
07057   6696 FD CB 00 B4         res  6,(iy+0),h         ; 6696 FD CB 00 B4
07058   669A FD CB 00 B4         RES  6,(IY+0),H         ; 669A FD CB 00 B4
07059   669E FD CB 7F B4         res  6,(iy+127),h       ; 669E FD CB 7F B4
07060   66A2 FD CB 7F B4         RES  6,(IY+127),H       ; 66A2 FD CB 7F B4
07061   66A6 FD CB 80 B5         res  6,(iy+-128),l      ; 66A6 FD CB 80 B5
07062   66AA FD CB 80 B5         RES  6,(IY+-128),L      ; 66AA FD CB 80 B5
07063   66AE FD CB FF B5         res  6,(iy+-1),l        ; 66AE FD CB FF B5
07064   66B2 FD CB FF B5         RES  6,(IY+-1),L        ; 66B2 FD CB FF B5
07065   66B6 FD CB 00 B5         res  6,(iy+0),l         ; 66B6 FD CB 00 B5
07066   66BA FD CB 00 B5         RES  6,(IY+0),L         ; 66BA FD CB 00 B5
07067   66BE FD CB 7F B5         res  6,(iy+127),l       ; 66BE FD CB 7F B5
07068   66C2 FD CB 7F B5         RES  6,(IY+127),L       ; 66C2 FD CB 7F B5
07069   66C6 CB B6               res  6,[hl]             ; 66C6 CB B6
07070   66C8 CB B6               RES  6,[HL]             ; 66C8 CB B6
07071   66CA DD CB 80 B6         res  6,[ix+-128]        ; 66CA DD CB 80 B6
07072   66CE DD CB 80 B6         RES  6,[IX+-128]        ; 66CE DD CB 80 B6
07073   66D2 DD CB FF B6         res  6,[ix+-1]          ; 66D2 DD CB FF B6
07074   66D6 DD CB FF B6         RES  6,[IX+-1]          ; 66D6 DD CB FF B6
07075   66DA DD CB 00 B6         res  6,[ix+0]           ; 66DA DD CB 00 B6
07076   66DE DD CB 00 B6         RES  6,[IX+0]           ; 66DE DD CB 00 B6
07077   66E2 DD CB 7F B6         res  6,[ix+127]         ; 66E2 DD CB 7F B6
07078   66E6 DD CB 7F B6         RES  6,[IX+127]         ; 66E6 DD CB 7F B6
07079   66EA DD CB 80 B7         res  6,[ix+-128],a      ; 66EA DD CB 80 B7
07080   66EE DD CB 80 B7         RES  6,[IX+-128],A      ; 66EE DD CB 80 B7
07081   66F2 DD CB FF B7         res  6,[ix+-1],a        ; 66F2 DD CB FF B7
07082   66F6 DD CB FF B7         RES  6,[IX+-1],A        ; 66F6 DD CB FF B7
07083   66FA DD CB 00 B7         res  6,[ix+0],a         ; 66FA DD CB 00 B7
07084   66FE DD CB 00 B7         RES  6,[IX+0],A         ; 66FE DD CB 00 B7
07085   6702 DD CB 7F B7         res  6,[ix+127],a       ; 6702 DD CB 7F B7
07086   6706 DD CB 7F B7         RES  6,[IX+127],A       ; 6706 DD CB 7F B7
07087   670A DD CB 80 B0         res  6,[ix+-128],b      ; 670A DD CB 80 B0
07088   670E DD CB 80 B0         RES  6,[IX+-128],B      ; 670E DD CB 80 B0
07089   6712 DD CB FF B0         res  6,[ix+-1],b        ; 6712 DD CB FF B0
07090   6716 DD CB FF B0         RES  6,[IX+-1],B        ; 6716 DD CB FF B0
07091   671A DD CB 00 B0         res  6,[ix+0],b         ; 671A DD CB 00 B0
07092   671E DD CB 00 B0         RES  6,[IX+0],B         ; 671E DD CB 00 B0
07093   6722 DD CB 7F B0         res  6,[ix+127],b       ; 6722 DD CB 7F B0
07094   6726 DD CB 7F B0         RES  6,[IX+127],B       ; 6726 DD CB 7F B0
07095   672A DD CB 80 B1         res  6,[ix+-128],c      ; 672A DD CB 80 B1
07096   672E DD CB 80 B1         RES  6,[IX+-128],C      ; 672E DD CB 80 B1
07097   6732 DD CB FF B1         res  6,[ix+-1],c        ; 6732 DD CB FF B1
07098   6736 DD CB FF B1         RES  6,[IX+-1],C        ; 6736 DD CB FF B1
07099   673A DD CB 00 B1         res  6,[ix+0],c         ; 673A DD CB 00 B1
07100   673E DD CB 00 B1         RES  6,[IX+0],C         ; 673E DD CB 00 B1
07101   6742 DD CB 7F B1         res  6,[ix+127],c       ; 6742 DD CB 7F B1
07102   6746 DD CB 7F B1         RES  6,[IX+127],C       ; 6746 DD CB 7F B1
07103   674A DD CB 80 B2         res  6,[ix+-128],d      ; 674A DD CB 80 B2
07104   674E DD CB 80 B2         RES  6,[IX+-128],D      ; 674E DD CB 80 B2
07105   6752 DD CB FF B2         res  6,[ix+-1],d        ; 6752 DD CB FF B2
07106   6756 DD CB FF B2         RES  6,[IX+-1],D        ; 6756 DD CB FF B2
07107   675A DD CB 00 B2         res  6,[ix+0],d         ; 675A DD CB 00 B2
07108   675E DD CB 00 B2         RES  6,[IX+0],D         ; 675E DD CB 00 B2
07109   6762 DD CB 7F B2         res  6,[ix+127],d       ; 6762 DD CB 7F B2
07110   6766 DD CB 7F B2         RES  6,[IX+127],D       ; 6766 DD CB 7F B2
07111   676A DD CB 80 B3         res  6,[ix+-128],e      ; 676A DD CB 80 B3
07112   676E DD CB 80 B3         RES  6,[IX+-128],E      ; 676E DD CB 80 B3
07113   6772 DD CB FF B3         res  6,[ix+-1],e        ; 6772 DD CB FF B3
07114   6776 DD CB FF B3         RES  6,[IX+-1],E        ; 6776 DD CB FF B3
07115   677A DD CB 00 B3         res  6,[ix+0],e         ; 677A DD CB 00 B3
07116   677E DD CB 00 B3         RES  6,[IX+0],E         ; 677E DD CB 00 B3
07117   6782 DD CB 7F B3         res  6,[ix+127],e       ; 6782 DD CB 7F B3
07118   6786 DD CB 7F B3         RES  6,[IX+127],E       ; 6786 DD CB 7F B3
07119   678A DD CB 80 B4         res  6,[ix+-128],h      ; 678A DD CB 80 B4
07120   678E DD CB 80 B4         RES  6,[IX+-128],H      ; 678E DD CB 80 B4
07121   6792 DD CB FF B4         res  6,[ix+-1],h        ; 6792 DD CB FF B4
07122   6796 DD CB FF B4         RES  6,[IX+-1],H        ; 6796 DD CB FF B4
07123   679A DD CB 00 B4         res  6,[ix+0],h         ; 679A DD CB 00 B4
07124   679E DD CB 00 B4         RES  6,[IX+0],H         ; 679E DD CB 00 B4
07125   67A2 DD CB 7F B4         res  6,[ix+127],h       ; 67A2 DD CB 7F B4
07126   67A6 DD CB 7F B4         RES  6,[IX+127],H       ; 67A6 DD CB 7F B4
07127   67AA DD CB 80 B5         res  6,[ix+-128],l      ; 67AA DD CB 80 B5
07128   67AE DD CB 80 B5         RES  6,[IX+-128],L      ; 67AE DD CB 80 B5
07129   67B2 DD CB FF B5         res  6,[ix+-1],l        ; 67B2 DD CB FF B5
07130   67B6 DD CB FF B5         RES  6,[IX+-1],L        ; 67B6 DD CB FF B5
07131   67BA DD CB 00 B5         res  6,[ix+0],l         ; 67BA DD CB 00 B5
07132   67BE DD CB 00 B5         RES  6,[IX+0],L         ; 67BE DD CB 00 B5
07133   67C2 DD CB 7F B5         res  6,[ix+127],l       ; 67C2 DD CB 7F B5
07134   67C6 DD CB 7F B5         RES  6,[IX+127],L       ; 67C6 DD CB 7F B5
07135   67CA FD CB 80 B6         res  6,[iy+-128]        ; 67CA FD CB 80 B6
07136   67CE FD CB 80 B6         RES  6,[IY+-128]        ; 67CE FD CB 80 B6
07137   67D2 FD CB FF B6         res  6,[iy+-1]          ; 67D2 FD CB FF B6
07138   67D6 FD CB FF B6         RES  6,[IY+-1]          ; 67D6 FD CB FF B6
07139   67DA FD CB 00 B6         res  6,[iy+0]           ; 67DA FD CB 00 B6
07140   67DE FD CB 00 B6         RES  6,[IY+0]           ; 67DE FD CB 00 B6
07141   67E2 FD CB 7F B6         res  6,[iy+127]         ; 67E2 FD CB 7F B6
07142   67E6 FD CB 7F B6         RES  6,[IY+127]         ; 67E6 FD CB 7F B6
07143   67EA FD CB 80 B7         res  6,[iy+-128],a      ; 67EA FD CB 80 B7
07144   67EE FD CB 80 B7         RES  6,[IY+-128],A      ; 67EE FD CB 80 B7
07145   67F2 FD CB FF B7         res  6,[iy+-1],a        ; 67F2 FD CB FF B7
07146   67F6 FD CB FF B7         RES  6,[IY+-1],A        ; 67F6 FD CB FF B7
07147   67FA FD CB 00 B7         res  6,[iy+0],a         ; 67FA FD CB 00 B7
07148   67FE FD CB 00 B7         RES  6,[IY+0],A         ; 67FE FD CB 00 B7
07149   6802 FD CB 7F B7         res  6,[iy+127],a       ; 6802 FD CB 7F B7
07150   6806 FD CB 7F B7         RES  6,[IY+127],A       ; 6806 FD CB 7F B7
07151   680A FD CB 80 B0         res  6,[iy+-128],b      ; 680A FD CB 80 B0
07152   680E FD CB 80 B0         RES  6,[IY+-128],B      ; 680E FD CB 80 B0
07153   6812 FD CB FF B0         res  6,[iy+-1],b        ; 6812 FD CB FF B0
07154   6816 FD CB FF B0         RES  6,[IY+-1],B        ; 6816 FD CB FF B0
07155   681A FD CB 00 B0         res  6,[iy+0],b         ; 681A FD CB 00 B0
07156   681E FD CB 00 B0         RES  6,[IY+0],B         ; 681E FD CB 00 B0
07157   6822 FD CB 7F B0         res  6,[iy+127],b       ; 6822 FD CB 7F B0
07158   6826 FD CB 7F B0         RES  6,[IY+127],B       ; 6826 FD CB 7F B0
07159   682A FD CB 80 B1         res  6,[iy+-128],c      ; 682A FD CB 80 B1
07160   682E FD CB 80 B1         RES  6,[IY+-128],C      ; 682E FD CB 80 B1
07161   6832 FD CB FF B1         res  6,[iy+-1],c        ; 6832 FD CB FF B1
07162   6836 FD CB FF B1         RES  6,[IY+-1],C        ; 6836 FD CB FF B1
07163   683A FD CB 00 B1         res  6,[iy+0],c         ; 683A FD CB 00 B1
07164   683E FD CB 00 B1         RES  6,[IY+0],C         ; 683E FD CB 00 B1
07165   6842 FD CB 7F B1         res  6,[iy+127],c       ; 6842 FD CB 7F B1
07166   6846 FD CB 7F B1         RES  6,[IY+127],C       ; 6846 FD CB 7F B1
07167   684A FD CB 80 B2         res  6,[iy+-128],d      ; 684A FD CB 80 B2
07168   684E FD CB 80 B2         RES  6,[IY+-128],D      ; 684E FD CB 80 B2
07169   6852 FD CB FF B2         res  6,[iy+-1],d        ; 6852 FD CB FF B2
07170   6856 FD CB FF B2         RES  6,[IY+-1],D        ; 6856 FD CB FF B2
07171   685A FD CB 00 B2         res  6,[iy+0],d         ; 685A FD CB 00 B2
07172   685E FD CB 00 B2         RES  6,[IY+0],D         ; 685E FD CB 00 B2
07173   6862 FD CB 7F B2         res  6,[iy+127],d       ; 6862 FD CB 7F B2
07174   6866 FD CB 7F B2         RES  6,[IY+127],D       ; 6866 FD CB 7F B2
07175   686A FD CB 80 B3         res  6,[iy+-128],e      ; 686A FD CB 80 B3
07176   686E FD CB 80 B3         RES  6,[IY+-128],E      ; 686E FD CB 80 B3
07177   6872 FD CB FF B3         res  6,[iy+-1],e        ; 6872 FD CB FF B3
07178   6876 FD CB FF B3         RES  6,[IY+-1],E        ; 6876 FD CB FF B3
07179   687A FD CB 00 B3         res  6,[iy+0],e         ; 687A FD CB 00 B3
07180   687E FD CB 00 B3         RES  6,[IY+0],E         ; 687E FD CB 00 B3
07181   6882 FD CB 7F B3         res  6,[iy+127],e       ; 6882 FD CB 7F B3
07182   6886 FD CB 7F B3         RES  6,[IY+127],E       ; 6886 FD CB 7F B3
07183   688A FD CB 80 B4         res  6,[iy+-128],h      ; 688A FD CB 80 B4
07184   688E FD CB 80 B4         RES  6,[IY+-128],H      ; 688E FD CB 80 B4
07185   6892 FD CB FF B4         res  6,[iy+-1],h        ; 6892 FD CB FF B4
07186   6896 FD CB FF B4         RES  6,[IY+-1],H        ; 6896 FD CB FF B4
07187   689A FD CB 00 B4         res  6,[iy+0],h         ; 689A FD CB 00 B4
07188   689E FD CB 00 B4         RES  6,[IY+0],H         ; 689E FD CB 00 B4
07189   68A2 FD CB 7F B4         res  6,[iy+127],h       ; 68A2 FD CB 7F B4
07190   68A6 FD CB 7F B4         RES  6,[IY+127],H       ; 68A6 FD CB 7F B4
07191   68AA FD CB 80 B5         res  6,[iy+-128],l      ; 68AA FD CB 80 B5
07192   68AE FD CB 80 B5         RES  6,[IY+-128],L      ; 68AE FD CB 80 B5
07193   68B2 FD CB FF B5         res  6,[iy+-1],l        ; 68B2 FD CB FF B5
07194   68B6 FD CB FF B5         RES  6,[IY+-1],L        ; 68B6 FD CB FF B5
07195   68BA FD CB 00 B5         res  6,[iy+0],l         ; 68BA FD CB 00 B5
07196   68BE FD CB 00 B5         RES  6,[IY+0],L         ; 68BE FD CB 00 B5
07197   68C2 FD CB 7F B5         res  6,[iy+127],l       ; 68C2 FD CB 7F B5
07198   68C6 FD CB 7F B5         RES  6,[IY+127],L       ; 68C6 FD CB 7F B5
07199   68CA CB B7               res  6,a                ; 68CA CB B7
07200   68CC CB B7               RES  6,A                ; 68CC CB B7
07201   68CE CB B0               res  6,b                ; 68CE CB B0
07202   68D0 CB B0               RES  6,B                ; 68D0 CB B0
07203   68D2 CB B1               res  6,c                ; 68D2 CB B1
07204   68D4 CB B1               RES  6,C                ; 68D4 CB B1
07205   68D6 CB B2               res  6,d                ; 68D6 CB B2
07206   68D8 CB B2               RES  6,D                ; 68D8 CB B2
07207   68DA CB B3               res  6,e                ; 68DA CB B3
07208   68DC CB B3               RES  6,E                ; 68DC CB B3
07209   68DE CB B4               res  6,h                ; 68DE CB B4
07210   68E0 CB B4               RES  6,H                ; 68E0 CB B4
07211   68E2 CB B5               res  6,l                ; 68E2 CB B5
07212   68E4 CB B5               RES  6,L                ; 68E4 CB B5
07213   68E6 CB BE               res  7,(hl)             ; 68E6 CB BE
07214   68E8 CB BE               RES  7,(HL)             ; 68E8 CB BE
07215   68EA DD CB 80 BE         res  7,(ix+-128)        ; 68EA DD CB 80 BE
07216   68EE DD CB 80 BE         RES  7,(IX+-128)        ; 68EE DD CB 80 BE
07217   68F2 DD CB FF BE         res  7,(ix+-1)          ; 68F2 DD CB FF BE
07218   68F6 DD CB FF BE         RES  7,(IX+-1)          ; 68F6 DD CB FF BE
07219   68FA DD CB 00 BE         res  7,(ix+0)           ; 68FA DD CB 00 BE
07220   68FE DD CB 00 BE         RES  7,(IX+0)           ; 68FE DD CB 00 BE
07221   6902 DD CB 7F BE         res  7,(ix+127)         ; 6902 DD CB 7F BE
07222   6906 DD CB 7F BE         RES  7,(IX+127)         ; 6906 DD CB 7F BE
07223   690A DD CB 80 BF         res  7,(ix+-128),a      ; 690A DD CB 80 BF
07224   690E DD CB 80 BF         RES  7,(IX+-128),A      ; 690E DD CB 80 BF
07225   6912 DD CB FF BF         res  7,(ix+-1),a        ; 6912 DD CB FF BF
07226   6916 DD CB FF BF         RES  7,(IX+-1),A        ; 6916 DD CB FF BF
07227   691A DD CB 00 BF         res  7,(ix+0),a         ; 691A DD CB 00 BF
07228   691E DD CB 00 BF         RES  7,(IX+0),A         ; 691E DD CB 00 BF
07229   6922 DD CB 7F BF         res  7,(ix+127),a       ; 6922 DD CB 7F BF
07230   6926 DD CB 7F BF         RES  7,(IX+127),A       ; 6926 DD CB 7F BF
07231   692A DD CB 80 B8         res  7,(ix+-128),b      ; 692A DD CB 80 B8
07232   692E DD CB 80 B8         RES  7,(IX+-128),B      ; 692E DD CB 80 B8
07233   6932 DD CB FF B8         res  7,(ix+-1),b        ; 6932 DD CB FF B8
07234   6936 DD CB FF B8         RES  7,(IX+-1),B        ; 6936 DD CB FF B8
07235   693A DD CB 00 B8         res  7,(ix+0),b         ; 693A DD CB 00 B8
07236   693E DD CB 00 B8         RES  7,(IX+0),B         ; 693E DD CB 00 B8
07237   6942 DD CB 7F B8         res  7,(ix+127),b       ; 6942 DD CB 7F B8
07238   6946 DD CB 7F B8         RES  7,(IX+127),B       ; 6946 DD CB 7F B8
07239   694A DD CB 80 B9         res  7,(ix+-128),c      ; 694A DD CB 80 B9
07240   694E DD CB 80 B9         RES  7,(IX+-128),C      ; 694E DD CB 80 B9
07241   6952 DD CB FF B9         res  7,(ix+-1),c        ; 6952 DD CB FF B9
07242   6956 DD CB FF B9         RES  7,(IX+-1),C        ; 6956 DD CB FF B9
07243   695A DD CB 00 B9         res  7,(ix+0),c         ; 695A DD CB 00 B9
07244   695E DD CB 00 B9         RES  7,(IX+0),C         ; 695E DD CB 00 B9
07245   6962 DD CB 7F B9         res  7,(ix+127),c       ; 6962 DD CB 7F B9
07246   6966 DD CB 7F B9         RES  7,(IX+127),C       ; 6966 DD CB 7F B9
07247   696A DD CB 80 BA         res  7,(ix+-128),d      ; 696A DD CB 80 BA
07248   696E DD CB 80 BA         RES  7,(IX+-128),D      ; 696E DD CB 80 BA
07249   6972 DD CB FF BA         res  7,(ix+-1),d        ; 6972 DD CB FF BA
07250   6976 DD CB FF BA         RES  7,(IX+-1),D        ; 6976 DD CB FF BA
07251   697A DD CB 00 BA         res  7,(ix+0),d         ; 697A DD CB 00 BA
07252   697E DD CB 00 BA         RES  7,(IX+0),D         ; 697E DD CB 00 BA
07253   6982 DD CB 7F BA         res  7,(ix+127),d       ; 6982 DD CB 7F BA
07254   6986 DD CB 7F BA         RES  7,(IX+127),D       ; 6986 DD CB 7F BA
07255   698A DD CB 80 BB         res  7,(ix+-128),e      ; 698A DD CB 80 BB
07256   698E DD CB 80 BB         RES  7,(IX+-128),E      ; 698E DD CB 80 BB
07257   6992 DD CB FF BB         res  7,(ix+-1),e        ; 6992 DD CB FF BB
07258   6996 DD CB FF BB         RES  7,(IX+-1),E        ; 6996 DD CB FF BB
07259   699A DD CB 00 BB         res  7,(ix+0),e         ; 699A DD CB 00 BB
07260   699E DD CB 00 BB         RES  7,(IX+0),E         ; 699E DD CB 00 BB
07261   69A2 DD CB 7F BB         res  7,(ix+127),e       ; 69A2 DD CB 7F BB
07262   69A6 DD CB 7F BB         RES  7,(IX+127),E       ; 69A6 DD CB 7F BB
07263   69AA DD CB 80 BC         res  7,(ix+-128),h      ; 69AA DD CB 80 BC
07264   69AE DD CB 80 BC         RES  7,(IX+-128),H      ; 69AE DD CB 80 BC
07265   69B2 DD CB FF BC         res  7,(ix+-1),h        ; 69B2 DD CB FF BC
07266   69B6 DD CB FF BC         RES  7,(IX+-1),H        ; 69B6 DD CB FF BC
07267   69BA DD CB 00 BC         res  7,(ix+0),h         ; 69BA DD CB 00 BC
07268   69BE DD CB 00 BC         RES  7,(IX+0),H         ; 69BE DD CB 00 BC
07269   69C2 DD CB 7F BC         res  7,(ix+127),h       ; 69C2 DD CB 7F BC
07270   69C6 DD CB 7F BC         RES  7,(IX+127),H       ; 69C6 DD CB 7F BC
07271   69CA DD CB 80 BD         res  7,(ix+-128),l      ; 69CA DD CB 80 BD
07272   69CE DD CB 80 BD         RES  7,(IX+-128),L      ; 69CE DD CB 80 BD
07273   69D2 DD CB FF BD         res  7,(ix+-1),l        ; 69D2 DD CB FF BD
07274   69D6 DD CB FF BD         RES  7,(IX+-1),L        ; 69D6 DD CB FF BD
07275   69DA DD CB 00 BD         res  7,(ix+0),l         ; 69DA DD CB 00 BD
07276   69DE DD CB 00 BD         RES  7,(IX+0),L         ; 69DE DD CB 00 BD
07277   69E2 DD CB 7F BD         res  7,(ix+127),l       ; 69E2 DD CB 7F BD
07278   69E6 DD CB 7F BD         RES  7,(IX+127),L       ; 69E6 DD CB 7F BD
07279   69EA FD CB 80 BE         res  7,(iy+-128)        ; 69EA FD CB 80 BE
07280   69EE FD CB 80 BE         RES  7,(IY+-128)        ; 69EE FD CB 80 BE
07281   69F2 FD CB FF BE         res  7,(iy+-1)          ; 69F2 FD CB FF BE
07282   69F6 FD CB FF BE         RES  7,(IY+-1)          ; 69F6 FD CB FF BE
07283   69FA FD CB 00 BE         res  7,(iy+0)           ; 69FA FD CB 00 BE
07284   69FE FD CB 00 BE         RES  7,(IY+0)           ; 69FE FD CB 00 BE
07285   6A02 FD CB 7F BE         res  7,(iy+127)         ; 6A02 FD CB 7F BE
07286   6A06 FD CB 7F BE         RES  7,(IY+127)         ; 6A06 FD CB 7F BE
07287   6A0A FD CB 80 BF         res  7,(iy+-128),a      ; 6A0A FD CB 80 BF
07288   6A0E FD CB 80 BF         RES  7,(IY+-128),A      ; 6A0E FD CB 80 BF
07289   6A12 FD CB FF BF         res  7,(iy+-1),a        ; 6A12 FD CB FF BF
07290   6A16 FD CB FF BF         RES  7,(IY+-1),A        ; 6A16 FD CB FF BF
07291   6A1A FD CB 00 BF         res  7,(iy+0),a         ; 6A1A FD CB 00 BF
07292   6A1E FD CB 00 BF         RES  7,(IY+0),A         ; 6A1E FD CB 00 BF
07293   6A22 FD CB 7F BF         res  7,(iy+127),a       ; 6A22 FD CB 7F BF
07294   6A26 FD CB 7F BF         RES  7,(IY+127),A       ; 6A26 FD CB 7F BF
07295   6A2A FD CB 80 B8         res  7,(iy+-128),b      ; 6A2A FD CB 80 B8
07296   6A2E FD CB 80 B8         RES  7,(IY+-128),B      ; 6A2E FD CB 80 B8
07297   6A32 FD CB FF B8         res  7,(iy+-1),b        ; 6A32 FD CB FF B8
07298   6A36 FD CB FF B8         RES  7,(IY+-1),B        ; 6A36 FD CB FF B8
07299   6A3A FD CB 00 B8         res  7,(iy+0),b         ; 6A3A FD CB 00 B8
07300   6A3E FD CB 00 B8         RES  7,(IY+0),B         ; 6A3E FD CB 00 B8
07301   6A42 FD CB 7F B8         res  7,(iy+127),b       ; 6A42 FD CB 7F B8
07302   6A46 FD CB 7F B8         RES  7,(IY+127),B       ; 6A46 FD CB 7F B8
07303   6A4A FD CB 80 B9         res  7,(iy+-128),c      ; 6A4A FD CB 80 B9
07304   6A4E FD CB 80 B9         RES  7,(IY+-128),C      ; 6A4E FD CB 80 B9
07305   6A52 FD CB FF B9         res  7,(iy+-1),c        ; 6A52 FD CB FF B9
07306   6A56 FD CB FF B9         RES  7,(IY+-1),C        ; 6A56 FD CB FF B9
07307   6A5A FD CB 00 B9         res  7,(iy+0),c         ; 6A5A FD CB 00 B9
07308   6A5E FD CB 00 B9         RES  7,(IY+0),C         ; 6A5E FD CB 00 B9
07309   6A62 FD CB 7F B9         res  7,(iy+127),c       ; 6A62 FD CB 7F B9
07310   6A66 FD CB 7F B9         RES  7,(IY+127),C       ; 6A66 FD CB 7F B9
07311   6A6A FD CB 80 BA         res  7,(iy+-128),d      ; 6A6A FD CB 80 BA
07312   6A6E FD CB 80 BA         RES  7,(IY+-128),D      ; 6A6E FD CB 80 BA
07313   6A72 FD CB FF BA         res  7,(iy+-1),d        ; 6A72 FD CB FF BA
07314   6A76 FD CB FF BA         RES  7,(IY+-1),D        ; 6A76 FD CB FF BA
07315   6A7A FD CB 00 BA         res  7,(iy+0),d         ; 6A7A FD CB 00 BA
07316   6A7E FD CB 00 BA         RES  7,(IY+0),D         ; 6A7E FD CB 00 BA
07317   6A82 FD CB 7F BA         res  7,(iy+127),d       ; 6A82 FD CB 7F BA
07318   6A86 FD CB 7F BA         RES  7,(IY+127),D       ; 6A86 FD CB 7F BA
07319   6A8A FD CB 80 BB         res  7,(iy+-128),e      ; 6A8A FD CB 80 BB
07320   6A8E FD CB 80 BB         RES  7,(IY+-128),E      ; 6A8E FD CB 80 BB
07321   6A92 FD CB FF BB         res  7,(iy+-1),e        ; 6A92 FD CB FF BB
07322   6A96 FD CB FF BB         RES  7,(IY+-1),E        ; 6A96 FD CB FF BB
07323   6A9A FD CB 00 BB         res  7,(iy+0),e         ; 6A9A FD CB 00 BB
07324   6A9E FD CB 00 BB         RES  7,(IY+0),E         ; 6A9E FD CB 00 BB
07325   6AA2 FD CB 7F BB         res  7,(iy+127),e       ; 6AA2 FD CB 7F BB
07326   6AA6 FD CB 7F BB         RES  7,(IY+127),E       ; 6AA6 FD CB 7F BB
07327   6AAA FD CB 80 BC         res  7,(iy+-128),h      ; 6AAA FD CB 80 BC
07328   6AAE FD CB 80 BC         RES  7,(IY+-128),H      ; 6AAE FD CB 80 BC
07329   6AB2 FD CB FF BC         res  7,(iy+-1),h        ; 6AB2 FD CB FF BC
07330   6AB6 FD CB FF BC         RES  7,(IY+-1),H        ; 6AB6 FD CB FF BC
07331   6ABA FD CB 00 BC         res  7,(iy+0),h         ; 6ABA FD CB 00 BC
07332   6ABE FD CB 00 BC         RES  7,(IY+0),H         ; 6ABE FD CB 00 BC
07333   6AC2 FD CB 7F BC         res  7,(iy+127),h       ; 6AC2 FD CB 7F BC
07334   6AC6 FD CB 7F BC         RES  7,(IY+127),H       ; 6AC6 FD CB 7F BC
07335   6ACA FD CB 80 BD         res  7,(iy+-128),l      ; 6ACA FD CB 80 BD
07336   6ACE FD CB 80 BD         RES  7,(IY+-128),L      ; 6ACE FD CB 80 BD
07337   6AD2 FD CB FF BD         res  7,(iy+-1),l        ; 6AD2 FD CB FF BD
07338   6AD6 FD CB FF BD         RES  7,(IY+-1),L        ; 6AD6 FD CB FF BD
07339   6ADA FD CB 00 BD         res  7,(iy+0),l         ; 6ADA FD CB 00 BD
07340   6ADE FD CB 00 BD         RES  7,(IY+0),L         ; 6ADE FD CB 00 BD
07341   6AE2 FD CB 7F BD         res  7,(iy+127),l       ; 6AE2 FD CB 7F BD
07342   6AE6 FD CB 7F BD         RES  7,(IY+127),L       ; 6AE6 FD CB 7F BD
07343   6AEA CB BE               res  7,[hl]             ; 6AEA CB BE
07344   6AEC CB BE               RES  7,[HL]             ; 6AEC CB BE
07345   6AEE DD CB 80 BE         res  7,[ix+-128]        ; 6AEE DD CB 80 BE
07346   6AF2 DD CB 80 BE         RES  7,[IX+-128]        ; 6AF2 DD CB 80 BE
07347   6AF6 DD CB FF BE         res  7,[ix+-1]          ; 6AF6 DD CB FF BE
07348   6AFA DD CB FF BE         RES  7,[IX+-1]          ; 6AFA DD CB FF BE
07349   6AFE DD CB 00 BE         res  7,[ix+0]           ; 6AFE DD CB 00 BE
07350   6B02 DD CB 00 BE         RES  7,[IX+0]           ; 6B02 DD CB 00 BE
07351   6B06 DD CB 7F BE         res  7,[ix+127]         ; 6B06 DD CB 7F BE
07352   6B0A DD CB 7F BE         RES  7,[IX+127]         ; 6B0A DD CB 7F BE
07353   6B0E DD CB 80 BF         res  7,[ix+-128],a      ; 6B0E DD CB 80 BF
07354   6B12 DD CB 80 BF         RES  7,[IX+-128],A      ; 6B12 DD CB 80 BF
07355   6B16 DD CB FF BF         res  7,[ix+-1],a        ; 6B16 DD CB FF BF
07356   6B1A DD CB FF BF         RES  7,[IX+-1],A        ; 6B1A DD CB FF BF
07357   6B1E DD CB 00 BF         res  7,[ix+0],a         ; 6B1E DD CB 00 BF
07358   6B22 DD CB 00 BF         RES  7,[IX+0],A         ; 6B22 DD CB 00 BF
07359   6B26 DD CB 7F BF         res  7,[ix+127],a       ; 6B26 DD CB 7F BF
07360   6B2A DD CB 7F BF         RES  7,[IX+127],A       ; 6B2A DD CB 7F BF
07361   6B2E DD CB 80 B8         res  7,[ix+-128],b      ; 6B2E DD CB 80 B8
07362   6B32 DD CB 80 B8         RES  7,[IX+-128],B      ; 6B32 DD CB 80 B8
07363   6B36 DD CB FF B8         res  7,[ix+-1],b        ; 6B36 DD CB FF B8
07364   6B3A DD CB FF B8         RES  7,[IX+-1],B        ; 6B3A DD CB FF B8
07365   6B3E DD CB 00 B8         res  7,[ix+0],b         ; 6B3E DD CB 00 B8
07366   6B42 DD CB 00 B8         RES  7,[IX+0],B         ; 6B42 DD CB 00 B8
07367   6B46 DD CB 7F B8         res  7,[ix+127],b       ; 6B46 DD CB 7F B8
07368   6B4A DD CB 7F B8         RES  7,[IX+127],B       ; 6B4A DD CB 7F B8
07369   6B4E DD CB 80 B9         res  7,[ix+-128],c      ; 6B4E DD CB 80 B9
07370   6B52 DD CB 80 B9         RES  7,[IX+-128],C      ; 6B52 DD CB 80 B9
07371   6B56 DD CB FF B9         res  7,[ix+-1],c        ; 6B56 DD CB FF B9
07372   6B5A DD CB FF B9         RES  7,[IX+-1],C        ; 6B5A DD CB FF B9
07373   6B5E DD CB 00 B9         res  7,[ix+0],c         ; 6B5E DD CB 00 B9
07374   6B62 DD CB 00 B9         RES  7,[IX+0],C         ; 6B62 DD CB 00 B9
07375   6B66 DD CB 7F B9         res  7,[ix+127],c       ; 6B66 DD CB 7F B9
07376   6B6A DD CB 7F B9         RES  7,[IX+127],C       ; 6B6A DD CB 7F B9
07377   6B6E DD CB 80 BA         res  7,[ix+-128],d      ; 6B6E DD CB 80 BA
07378   6B72 DD CB 80 BA         RES  7,[IX+-128],D      ; 6B72 DD CB 80 BA
07379   6B76 DD CB FF BA         res  7,[ix+-1],d        ; 6B76 DD CB FF BA
07380   6B7A DD CB FF BA         RES  7,[IX+-1],D        ; 6B7A DD CB FF BA
07381   6B7E DD CB 00 BA         res  7,[ix+0],d         ; 6B7E DD CB 00 BA
07382   6B82 DD CB 00 BA         RES  7,[IX+0],D         ; 6B82 DD CB 00 BA
07383   6B86 DD CB 7F BA         res  7,[ix+127],d       ; 6B86 DD CB 7F BA
07384   6B8A DD CB 7F BA         RES  7,[IX+127],D       ; 6B8A DD CB 7F BA
07385   6B8E DD CB 80 BB         res  7,[ix+-128],e      ; 6B8E DD CB 80 BB
07386   6B92 DD CB 80 BB         RES  7,[IX+-128],E      ; 6B92 DD CB 80 BB
07387   6B96 DD CB FF BB         res  7,[ix+-1],e        ; 6B96 DD CB FF BB
07388   6B9A DD CB FF BB         RES  7,[IX+-1],E        ; 6B9A DD CB FF BB
07389   6B9E DD CB 00 BB         res  7,[ix+0],e         ; 6B9E DD CB 00 BB
07390   6BA2 DD CB 00 BB         RES  7,[IX+0],E         ; 6BA2 DD CB 00 BB
07391   6BA6 DD CB 7F BB         res  7,[ix+127],e       ; 6BA6 DD CB 7F BB
07392   6BAA DD CB 7F BB         RES  7,[IX+127],E       ; 6BAA DD CB 7F BB
07393   6BAE DD CB 80 BC         res  7,[ix+-128],h      ; 6BAE DD CB 80 BC
07394   6BB2 DD CB 80 BC         RES  7,[IX+-128],H      ; 6BB2 DD CB 80 BC
07395   6BB6 DD CB FF BC         res  7,[ix+-1],h        ; 6BB6 DD CB FF BC
07396   6BBA DD CB FF BC         RES  7,[IX+-1],H        ; 6BBA DD CB FF BC
07397   6BBE DD CB 00 BC         res  7,[ix+0],h         ; 6BBE DD CB 00 BC
07398   6BC2 DD CB 00 BC         RES  7,[IX+0],H         ; 6BC2 DD CB 00 BC
07399   6BC6 DD CB 7F BC         res  7,[ix+127],h       ; 6BC6 DD CB 7F BC
07400   6BCA DD CB 7F BC         RES  7,[IX+127],H       ; 6BCA DD CB 7F BC
07401   6BCE DD CB 80 BD         res  7,[ix+-128],l      ; 6BCE DD CB 80 BD
07402   6BD2 DD CB 80 BD         RES  7,[IX+-128],L      ; 6BD2 DD CB 80 BD
07403   6BD6 DD CB FF BD         res  7,[ix+-1],l        ; 6BD6 DD CB FF BD
07404   6BDA DD CB FF BD         RES  7,[IX+-1],L        ; 6BDA DD CB FF BD
07405   6BDE DD CB 00 BD         res  7,[ix+0],l         ; 6BDE DD CB 00 BD
07406   6BE2 DD CB 00 BD         RES  7,[IX+0],L         ; 6BE2 DD CB 00 BD
07407   6BE6 DD CB 7F BD         res  7,[ix+127],l       ; 6BE6 DD CB 7F BD
07408   6BEA DD CB 7F BD         RES  7,[IX+127],L       ; 6BEA DD CB 7F BD
07409   6BEE FD CB 80 BE         res  7,[iy+-128]        ; 6BEE FD CB 80 BE
07410   6BF2 FD CB 80 BE         RES  7,[IY+-128]        ; 6BF2 FD CB 80 BE
07411   6BF6 FD CB FF BE         res  7,[iy+-1]          ; 6BF6 FD CB FF BE
07412   6BFA FD CB FF BE         RES  7,[IY+-1]          ; 6BFA FD CB FF BE
07413   6BFE FD CB 00 BE         res  7,[iy+0]           ; 6BFE FD CB 00 BE
07414   6C02 FD CB 00 BE         RES  7,[IY+0]           ; 6C02 FD CB 00 BE
07415   6C06 FD CB 7F BE         res  7,[iy+127]         ; 6C06 FD CB 7F BE
07416   6C0A FD CB 7F BE         RES  7,[IY+127]         ; 6C0A FD CB 7F BE
07417   6C0E FD CB 80 BF         res  7,[iy+-128],a      ; 6C0E FD CB 80 BF
07418   6C12 FD CB 80 BF         RES  7,[IY+-128],A      ; 6C12 FD CB 80 BF
07419   6C16 FD CB FF BF         res  7,[iy+-1],a        ; 6C16 FD CB FF BF
07420   6C1A FD CB FF BF         RES  7,[IY+-1],A        ; 6C1A FD CB FF BF
07421   6C1E FD CB 00 BF         res  7,[iy+0],a         ; 6C1E FD CB 00 BF
07422   6C22 FD CB 00 BF         RES  7,[IY+0],A         ; 6C22 FD CB 00 BF
07423   6C26 FD CB 7F BF         res  7,[iy+127],a       ; 6C26 FD CB 7F BF
07424   6C2A FD CB 7F BF         RES  7,[IY+127],A       ; 6C2A FD CB 7F BF
07425   6C2E FD CB 80 B8         res  7,[iy+-128],b      ; 6C2E FD CB 80 B8
07426   6C32 FD CB 80 B8         RES  7,[IY+-128],B      ; 6C32 FD CB 80 B8
07427   6C36 FD CB FF B8         res  7,[iy+-1],b        ; 6C36 FD CB FF B8
07428   6C3A FD CB FF B8         RES  7,[IY+-1],B        ; 6C3A FD CB FF B8
07429   6C3E FD CB 00 B8         res  7,[iy+0],b         ; 6C3E FD CB 00 B8
07430   6C42 FD CB 00 B8         RES  7,[IY+0],B         ; 6C42 FD CB 00 B8
07431   6C46 FD CB 7F B8         res  7,[iy+127],b       ; 6C46 FD CB 7F B8
07432   6C4A FD CB 7F B8         RES  7,[IY+127],B       ; 6C4A FD CB 7F B8
07433   6C4E FD CB 80 B9         res  7,[iy+-128],c      ; 6C4E FD CB 80 B9
07434   6C52 FD CB 80 B9         RES  7,[IY+-128],C      ; 6C52 FD CB 80 B9
07435   6C56 FD CB FF B9         res  7,[iy+-1],c        ; 6C56 FD CB FF B9
07436   6C5A FD CB FF B9         RES  7,[IY+-1],C        ; 6C5A FD CB FF B9
07437   6C5E FD CB 00 B9         res  7,[iy+0],c         ; 6C5E FD CB 00 B9
07438   6C62 FD CB 00 B9         RES  7,[IY+0],C         ; 6C62 FD CB 00 B9
07439   6C66 FD CB 7F B9         res  7,[iy+127],c       ; 6C66 FD CB 7F B9
07440   6C6A FD CB 7F B9         RES  7,[IY+127],C       ; 6C6A FD CB 7F B9
07441   6C6E FD CB 80 BA         res  7,[iy+-128],d      ; 6C6E FD CB 80 BA
07442   6C72 FD CB 80 BA         RES  7,[IY+-128],D      ; 6C72 FD CB 80 BA
07443   6C76 FD CB FF BA         res  7,[iy+-1],d        ; 6C76 FD CB FF BA
07444   6C7A FD CB FF BA         RES  7,[IY+-1],D        ; 6C7A FD CB FF BA
07445   6C7E FD CB 00 BA         res  7,[iy+0],d         ; 6C7E FD CB 00 BA
07446   6C82 FD CB 00 BA         RES  7,[IY+0],D         ; 6C82 FD CB 00 BA
07447   6C86 FD CB 7F BA         res  7,[iy+127],d       ; 6C86 FD CB 7F BA
07448   6C8A FD CB 7F BA         RES  7,[IY+127],D       ; 6C8A FD CB 7F BA
07449   6C8E FD CB 80 BB         res  7,[iy+-128],e      ; 6C8E FD CB 80 BB
07450   6C92 FD CB 80 BB         RES  7,[IY+-128],E      ; 6C92 FD CB 80 BB
07451   6C96 FD CB FF BB         res  7,[iy+-1],e        ; 6C96 FD CB FF BB
07452   6C9A FD CB FF BB         RES  7,[IY+-1],E        ; 6C9A FD CB FF BB
07453   6C9E FD CB 00 BB         res  7,[iy+0],e         ; 6C9E FD CB 00 BB
07454   6CA2 FD CB 00 BB         RES  7,[IY+0],E         ; 6CA2 FD CB 00 BB
07455   6CA6 FD CB 7F BB         res  7,[iy+127],e       ; 6CA6 FD CB 7F BB
07456   6CAA FD CB 7F BB         RES  7,[IY+127],E       ; 6CAA FD CB 7F BB
07457   6CAE FD CB 80 BC         res  7,[iy+-128],h      ; 6CAE FD CB 80 BC
07458   6CB2 FD CB 80 BC         RES  7,[IY+-128],H      ; 6CB2 FD CB 80 BC
07459   6CB6 FD CB FF BC         res  7,[iy+-1],h        ; 6CB6 FD CB FF BC
07460   6CBA FD CB FF BC         RES  7,[IY+-1],H        ; 6CBA FD CB FF BC
07461   6CBE FD CB 00 BC         res  7,[iy+0],h         ; 6CBE FD CB 00 BC
07462   6CC2 FD CB 00 BC         RES  7,[IY+0],H         ; 6CC2 FD CB 00 BC
07463   6CC6 FD CB 7F BC         res  7,[iy+127],h       ; 6CC6 FD CB 7F BC
07464   6CCA FD CB 7F BC         RES  7,[IY+127],H       ; 6CCA FD CB 7F BC
07465   6CCE FD CB 80 BD         res  7,[iy+-128],l      ; 6CCE FD CB 80 BD
07466   6CD2 FD CB 80 BD         RES  7,[IY+-128],L      ; 6CD2 FD CB 80 BD
07467   6CD6 FD CB FF BD         res  7,[iy+-1],l        ; 6CD6 FD CB FF BD
07468   6CDA FD CB FF BD         RES  7,[IY+-1],L        ; 6CDA FD CB FF BD
07469   6CDE FD CB 00 BD         res  7,[iy+0],l         ; 6CDE FD CB 00 BD
07470   6CE2 FD CB 00 BD         RES  7,[IY+0],L         ; 6CE2 FD CB 00 BD
07471   6CE6 FD CB 7F BD         res  7,[iy+127],l       ; 6CE6 FD CB 7F BD
07472   6CEA FD CB 7F BD         RES  7,[IY+127],L       ; 6CEA FD CB 7F BD
07473   6CEE CB BF               res  7,a                ; 6CEE CB BF
07474   6CF0 CB BF               RES  7,A                ; 6CF0 CB BF
07475   6CF2 CB B8               res  7,b                ; 6CF2 CB B8
07476   6CF4 CB B8               RES  7,B                ; 6CF4 CB B8
07477   6CF6 CB B9               res  7,c                ; 6CF6 CB B9
07478   6CF8 CB B9               RES  7,C                ; 6CF8 CB B9
07479   6CFA CB BA               res  7,d                ; 6CFA CB BA
07480   6CFC CB BA               RES  7,D                ; 6CFC CB BA
07481   6CFE CB BB               res  7,e                ; 6CFE CB BB
07482   6D00 CB BB               RES  7,E                ; 6D00 CB BB
07483   6D02 CB BC               res  7,h                ; 6D02 CB BC
07484   6D04 CB BC               RES  7,H                ; 6D04 CB BC
07485   6D06 CB BD               res  7,l                ; 6D06 CB BD
07486   6D08 CB BD               RES  7,L                ; 6D08 CB BD
07487   6D0A C9                  ret                     ; 6D0A C9
07488   6D0B C9                  RET                     ; 6D0B C9
07489   6D0C D8                  ret  c                  ; 6D0C D8
07490   6D0D D8                  RET  C                  ; 6D0D D8
07491   6D0E F8                  ret  m                  ; 6D0E F8
07492   6D0F F8                  RET  M                  ; 6D0F F8
07493   6D10 D0                  ret  nc                 ; 6D10 D0
07494   6D11 D0                  RET  NC                 ; 6D11 D0
07495   6D12 C0                  ret  nz                 ; 6D12 C0
07496   6D13 C0                  RET  NZ                 ; 6D13 C0
07497   6D14 F0                  ret  p                  ; 6D14 F0
07498   6D15 F0                  RET  P                  ; 6D15 F0
07499   6D16 E8                  ret  pe                 ; 6D16 E8
07500   6D17 E8                  RET  PE                 ; 6D17 E8
07501   6D18 E0                  ret  po                 ; 6D18 E0
07502   6D19 E0                  RET  PO                 ; 6D19 E0
07503   6D1A C8                  ret  z                  ; 6D1A C8
07504   6D1B C8                  RET  Z                  ; 6D1B C8
07505   6D1C ED 4D               reti                    ; 6D1C ED 4D
07506   6D1E ED 4D               RETI                    ; 6D1E ED 4D
07507   6D20 ED 45               retn                    ; 6D20 ED 45
07508   6D22 ED 45               RETN                    ; 6D22 ED 45
07509   6D24 CB 16               rl   (hl)               ; 6D24 CB 16
07510   6D26 CB 16               RL   (HL)               ; 6D26 CB 16
07511   6D28 DD CB 80 16         rl   (ix+-128)          ; 6D28 DD CB 80 16
07512   6D2C DD CB 80 16         RL   (IX+-128)          ; 6D2C DD CB 80 16
07513   6D30 DD CB FF 16         rl   (ix+-1)            ; 6D30 DD CB FF 16
07514   6D34 DD CB FF 16         RL   (IX+-1)            ; 6D34 DD CB FF 16
07515   6D38 DD CB 00 16         rl   (ix+0)             ; 6D38 DD CB 00 16
07516   6D3C DD CB 00 16         RL   (IX+0)             ; 6D3C DD CB 00 16
07517   6D40 DD CB 7F 16         rl   (ix+127)           ; 6D40 DD CB 7F 16
07518   6D44 DD CB 7F 16         RL   (IX+127)           ; 6D44 DD CB 7F 16
07519   6D48 DD CB 80 17         rl   (ix+-128),a        ; 6D48 DD CB 80 17
07520   6D4C DD CB 80 17         RL   (IX+-128),A        ; 6D4C DD CB 80 17
07521   6D50 DD CB FF 17         rl   (ix+-1),a          ; 6D50 DD CB FF 17
07522   6D54 DD CB FF 17         RL   (IX+-1),A          ; 6D54 DD CB FF 17
07523   6D58 DD CB 00 17         rl   (ix+0),a           ; 6D58 DD CB 00 17
07524   6D5C DD CB 00 17         RL   (IX+0),A           ; 6D5C DD CB 00 17
07525   6D60 DD CB 7F 17         rl   (ix+127),a         ; 6D60 DD CB 7F 17
07526   6D64 DD CB 7F 17         RL   (IX+127),A         ; 6D64 DD CB 7F 17
07527   6D68 DD CB 80 10         rl   (ix+-128),b        ; 6D68 DD CB 80 10
07528   6D6C DD CB 80 10         RL   (IX+-128),B        ; 6D6C DD CB 80 10
07529   6D70 DD CB FF 10         rl   (ix+-1),b          ; 6D70 DD CB FF 10
07530   6D74 DD CB FF 10         RL   (IX+-1),B          ; 6D74 DD CB FF 10
07531   6D78 DD CB 00 10         rl   (ix+0),b           ; 6D78 DD CB 00 10
07532   6D7C DD CB 00 10         RL   (IX+0),B           ; 6D7C DD CB 00 10
07533   6D80 DD CB 7F 10         rl   (ix+127),b         ; 6D80 DD CB 7F 10
07534   6D84 DD CB 7F 10         RL   (IX+127),B         ; 6D84 DD CB 7F 10
07535   6D88 DD CB 80 11         rl   (ix+-128),c        ; 6D88 DD CB 80 11
07536   6D8C DD CB 80 11         RL   (IX+-128),C        ; 6D8C DD CB 80 11
07537   6D90 DD CB FF 11         rl   (ix+-1),c          ; 6D90 DD CB FF 11
07538   6D94 DD CB FF 11         RL   (IX+-1),C          ; 6D94 DD CB FF 11
07539   6D98 DD CB 00 11         rl   (ix+0),c           ; 6D98 DD CB 00 11
07540   6D9C DD CB 00 11         RL   (IX+0),C           ; 6D9C DD CB 00 11
07541   6DA0 DD CB 7F 11         rl   (ix+127),c         ; 6DA0 DD CB 7F 11
07542   6DA4 DD CB 7F 11         RL   (IX+127),C         ; 6DA4 DD CB 7F 11
07543   6DA8 DD CB 80 12         rl   (ix+-128),d        ; 6DA8 DD CB 80 12
07544   6DAC DD CB 80 12         RL   (IX+-128),D        ; 6DAC DD CB 80 12
07545   6DB0 DD CB FF 12         rl   (ix+-1),d          ; 6DB0 DD CB FF 12
07546   6DB4 DD CB FF 12         RL   (IX+-1),D          ; 6DB4 DD CB FF 12
07547   6DB8 DD CB 00 12         rl   (ix+0),d           ; 6DB8 DD CB 00 12
07548   6DBC DD CB 00 12         RL   (IX+0),D           ; 6DBC DD CB 00 12
07549   6DC0 DD CB 7F 12         rl   (ix+127),d         ; 6DC0 DD CB 7F 12
07550   6DC4 DD CB 7F 12         RL   (IX+127),D         ; 6DC4 DD CB 7F 12
07551   6DC8 DD CB 80 13         rl   (ix+-128),e        ; 6DC8 DD CB 80 13
07552   6DCC DD CB 80 13         RL   (IX+-128),E        ; 6DCC DD CB 80 13
07553   6DD0 DD CB FF 13         rl   (ix+-1),e          ; 6DD0 DD CB FF 13
07554   6DD4 DD CB FF 13         RL   (IX+-1),E          ; 6DD4 DD CB FF 13
07555   6DD8 DD CB 00 13         rl   (ix+0),e           ; 6DD8 DD CB 00 13
07556   6DDC DD CB 00 13         RL   (IX+0),E           ; 6DDC DD CB 00 13
07557   6DE0 DD CB 7F 13         rl   (ix+127),e         ; 6DE0 DD CB 7F 13
07558   6DE4 DD CB 7F 13         RL   (IX+127),E         ; 6DE4 DD CB 7F 13
07559   6DE8 DD CB 80 14         rl   (ix+-128),h        ; 6DE8 DD CB 80 14
07560   6DEC DD CB 80 14         RL   (IX+-128),H        ; 6DEC DD CB 80 14
07561   6DF0 DD CB FF 14         rl   (ix+-1),h          ; 6DF0 DD CB FF 14
07562   6DF4 DD CB FF 14         RL   (IX+-1),H          ; 6DF4 DD CB FF 14
07563   6DF8 DD CB 00 14         rl   (ix+0),h           ; 6DF8 DD CB 00 14
07564   6DFC DD CB 00 14         RL   (IX+0),H           ; 6DFC DD CB 00 14
07565   6E00 DD CB 7F 14         rl   (ix+127),h         ; 6E00 DD CB 7F 14
07566   6E04 DD CB 7F 14         RL   (IX+127),H         ; 6E04 DD CB 7F 14
07567   6E08 DD CB 80 15         rl   (ix+-128),l        ; 6E08 DD CB 80 15
07568   6E0C DD CB 80 15         RL   (IX+-128),L        ; 6E0C DD CB 80 15
07569   6E10 DD CB FF 15         rl   (ix+-1),l          ; 6E10 DD CB FF 15
07570   6E14 DD CB FF 15         RL   (IX+-1),L          ; 6E14 DD CB FF 15
07571   6E18 DD CB 00 15         rl   (ix+0),l           ; 6E18 DD CB 00 15
07572   6E1C DD CB 00 15         RL   (IX+0),L           ; 6E1C DD CB 00 15
07573   6E20 DD CB 7F 15         rl   (ix+127),l         ; 6E20 DD CB 7F 15
07574   6E24 DD CB 7F 15         RL   (IX+127),L         ; 6E24 DD CB 7F 15
07575   6E28 FD CB 80 16         rl   (iy+-128)          ; 6E28 FD CB 80 16
07576   6E2C FD CB 80 16         RL   (IY+-128)          ; 6E2C FD CB 80 16
07577   6E30 FD CB FF 16         rl   (iy+-1)            ; 6E30 FD CB FF 16
07578   6E34 FD CB FF 16         RL   (IY+-1)            ; 6E34 FD CB FF 16
07579   6E38 FD CB 00 16         rl   (iy+0)             ; 6E38 FD CB 00 16
07580   6E3C FD CB 00 16         RL   (IY+0)             ; 6E3C FD CB 00 16
07581   6E40 FD CB 7F 16         rl   (iy+127)           ; 6E40 FD CB 7F 16
07582   6E44 FD CB 7F 16         RL   (IY+127)           ; 6E44 FD CB 7F 16
07583   6E48 FD CB 80 17         rl   (iy+-128),a        ; 6E48 FD CB 80 17
07584   6E4C FD CB 80 17         RL   (IY+-128),A        ; 6E4C FD CB 80 17
07585   6E50 FD CB FF 17         rl   (iy+-1),a          ; 6E50 FD CB FF 17
07586   6E54 FD CB FF 17         RL   (IY+-1),A          ; 6E54 FD CB FF 17
07587   6E58 FD CB 00 17         rl   (iy+0),a           ; 6E58 FD CB 00 17
07588   6E5C FD CB 00 17         RL   (IY+0),A           ; 6E5C FD CB 00 17
07589   6E60 FD CB 7F 17         rl   (iy+127),a         ; 6E60 FD CB 7F 17
07590   6E64 FD CB 7F 17         RL   (IY+127),A         ; 6E64 FD CB 7F 17
07591   6E68 FD CB 80 10         rl   (iy+-128),b        ; 6E68 FD CB 80 10
07592   6E6C FD CB 80 10         RL   (IY+-128),B        ; 6E6C FD CB 80 10
07593   6E70 FD CB FF 10         rl   (iy+-1),b          ; 6E70 FD CB FF 10
07594   6E74 FD CB FF 10         RL   (IY+-1),B          ; 6E74 FD CB FF 10
07595   6E78 FD CB 00 10         rl   (iy+0),b           ; 6E78 FD CB 00 10
07596   6E7C FD CB 00 10         RL   (IY+0),B           ; 6E7C FD CB 00 10
07597   6E80 FD CB 7F 10         rl   (iy+127),b         ; 6E80 FD CB 7F 10
07598   6E84 FD CB 7F 10         RL   (IY+127),B         ; 6E84 FD CB 7F 10
07599   6E88 FD CB 80 11         rl   (iy+-128),c        ; 6E88 FD CB 80 11
07600   6E8C FD CB 80 11         RL   (IY+-128),C        ; 6E8C FD CB 80 11
07601   6E90 FD CB FF 11         rl   (iy+-1),c          ; 6E90 FD CB FF 11
07602   6E94 FD CB FF 11         RL   (IY+-1),C          ; 6E94 FD CB FF 11
07603   6E98 FD CB 00 11         rl   (iy+0),c           ; 6E98 FD CB 00 11
07604   6E9C FD CB 00 11         RL   (IY+0),C           ; 6E9C FD CB 00 11
07605   6EA0 FD CB 7F 11         rl   (iy+127),c         ; 6EA0 FD CB 7F 11
07606   6EA4 FD CB 7F 11         RL   (IY+127),C         ; 6EA4 FD CB 7F 11
07607   6EA8 FD CB 80 12         rl   (iy+-128),d        ; 6EA8 FD CB 80 12
07608   6EAC FD CB 80 12         RL   (IY+-128),D        ; 6EAC FD CB 80 12
07609   6EB0 FD CB FF 12         rl   (iy+-1),d          ; 6EB0 FD CB FF 12
07610   6EB4 FD CB FF 12         RL   (IY+-1),D          ; 6EB4 FD CB FF 12
07611   6EB8 FD CB 00 12         rl   (iy+0),d           ; 6EB8 FD CB 00 12
07612   6EBC FD CB 00 12         RL   (IY+0),D           ; 6EBC FD CB 00 12
07613   6EC0 FD CB 7F 12         rl   (iy+127),d         ; 6EC0 FD CB 7F 12
07614   6EC4 FD CB 7F 12         RL   (IY+127),D         ; 6EC4 FD CB 7F 12
07615   6EC8 FD CB 80 13         rl   (iy+-128),e        ; 6EC8 FD CB 80 13
07616   6ECC FD CB 80 13         RL   (IY+-128),E        ; 6ECC FD CB 80 13
07617   6ED0 FD CB FF 13         rl   (iy+-1),e          ; 6ED0 FD CB FF 13
07618   6ED4 FD CB FF 13         RL   (IY+-1),E          ; 6ED4 FD CB FF 13
07619   6ED8 FD CB 00 13         rl   (iy+0),e           ; 6ED8 FD CB 00 13
07620   6EDC FD CB 00 13         RL   (IY+0),E           ; 6EDC FD CB 00 13
07621   6EE0 FD CB 7F 13         rl   (iy+127),e         ; 6EE0 FD CB 7F 13
07622   6EE4 FD CB 7F 13         RL   (IY+127),E         ; 6EE4 FD CB 7F 13
07623   6EE8 FD CB 80 14         rl   (iy+-128),h        ; 6EE8 FD CB 80 14
07624   6EEC FD CB 80 14         RL   (IY+-128),H        ; 6EEC FD CB 80 14
07625   6EF0 FD CB FF 14         rl   (iy+-1),h          ; 6EF0 FD CB FF 14
07626   6EF4 FD CB FF 14         RL   (IY+-1),H          ; 6EF4 FD CB FF 14
07627   6EF8 FD CB 00 14         rl   (iy+0),h           ; 6EF8 FD CB 00 14
07628   6EFC FD CB 00 14         RL   (IY+0),H           ; 6EFC FD CB 00 14
07629   6F00 FD CB 7F 14         rl   (iy+127),h         ; 6F00 FD CB 7F 14
07630   6F04 FD CB 7F 14         RL   (IY+127),H         ; 6F04 FD CB 7F 14
07631   6F08 FD CB 80 15         rl   (iy+-128),l        ; 6F08 FD CB 80 15
07632   6F0C FD CB 80 15         RL   (IY+-128),L        ; 6F0C FD CB 80 15
07633   6F10 FD CB FF 15         rl   (iy+-1),l          ; 6F10 FD CB FF 15
07634   6F14 FD CB FF 15         RL   (IY+-1),L          ; 6F14 FD CB FF 15
07635   6F18 FD CB 00 15         rl   (iy+0),l           ; 6F18 FD CB 00 15
07636   6F1C FD CB 00 15         RL   (IY+0),L           ; 6F1C FD CB 00 15
07637   6F20 FD CB 7F 15         rl   (iy+127),l         ; 6F20 FD CB 7F 15
07638   6F24 FD CB 7F 15         RL   (IY+127),L         ; 6F24 FD CB 7F 15
07639   6F28 CB 16               rl   [hl]               ; 6F28 CB 16
07640   6F2A CB 16               RL   [HL]               ; 6F2A CB 16
07641   6F2C DD CB 80 16         rl   [ix+-128]          ; 6F2C DD CB 80 16
07642   6F30 DD CB 80 16         RL   [IX+-128]          ; 6F30 DD CB 80 16
07643   6F34 DD CB FF 16         rl   [ix+-1]            ; 6F34 DD CB FF 16
07644   6F38 DD CB FF 16         RL   [IX+-1]            ; 6F38 DD CB FF 16
07645   6F3C DD CB 00 16         rl   [ix+0]             ; 6F3C DD CB 00 16
07646   6F40 DD CB 00 16         RL   [IX+0]             ; 6F40 DD CB 00 16
07647   6F44 DD CB 7F 16         rl   [ix+127]           ; 6F44 DD CB 7F 16
07648   6F48 DD CB 7F 16         RL   [IX+127]           ; 6F48 DD CB 7F 16
07649   6F4C DD CB 80 17         rl   [ix+-128],a        ; 6F4C DD CB 80 17
07650   6F50 DD CB 80 17         RL   [IX+-128],A        ; 6F50 DD CB 80 17
07651   6F54 DD CB FF 17         rl   [ix+-1],a          ; 6F54 DD CB FF 17
07652   6F58 DD CB FF 17         RL   [IX+-1],A          ; 6F58 DD CB FF 17
07653   6F5C DD CB 00 17         rl   [ix+0],a           ; 6F5C DD CB 00 17
07654   6F60 DD CB 00 17         RL   [IX+0],A           ; 6F60 DD CB 00 17
07655   6F64 DD CB 7F 17         rl   [ix+127],a         ; 6F64 DD CB 7F 17
07656   6F68 DD CB 7F 17         RL   [IX+127],A         ; 6F68 DD CB 7F 17
07657   6F6C DD CB 80 10         rl   [ix+-128],b        ; 6F6C DD CB 80 10
07658   6F70 DD CB 80 10         RL   [IX+-128],B        ; 6F70 DD CB 80 10
07659   6F74 DD CB FF 10         rl   [ix+-1],b          ; 6F74 DD CB FF 10
07660   6F78 DD CB FF 10         RL   [IX+-1],B          ; 6F78 DD CB FF 10
07661   6F7C DD CB 00 10         rl   [ix+0],b           ; 6F7C DD CB 00 10
07662   6F80 DD CB 00 10         RL   [IX+0],B           ; 6F80 DD CB 00 10
07663   6F84 DD CB 7F 10         rl   [ix+127],b         ; 6F84 DD CB 7F 10
07664   6F88 DD CB 7F 10         RL   [IX+127],B         ; 6F88 DD CB 7F 10
07665   6F8C DD CB 80 11         rl   [ix+-128],c        ; 6F8C DD CB 80 11
07666   6F90 DD CB 80 11         RL   [IX+-128],C        ; 6F90 DD CB 80 11
07667   6F94 DD CB FF 11         rl   [ix+-1],c          ; 6F94 DD CB FF 11
07668   6F98 DD CB FF 11         RL   [IX+-1],C          ; 6F98 DD CB FF 11
07669   6F9C DD CB 00 11         rl   [ix+0],c           ; 6F9C DD CB 00 11
07670   6FA0 DD CB 00 11         RL   [IX+0],C           ; 6FA0 DD CB 00 11
07671   6FA4 DD CB 7F 11         rl   [ix+127],c         ; 6FA4 DD CB 7F 11
07672   6FA8 DD CB 7F 11         RL   [IX+127],C         ; 6FA8 DD CB 7F 11
07673   6FAC DD CB 80 12         rl   [ix+-128],d        ; 6FAC DD CB 80 12
07674   6FB0 DD CB 80 12         RL   [IX+-128],D        ; 6FB0 DD CB 80 12
07675   6FB4 DD CB FF 12         rl   [ix+-1],d          ; 6FB4 DD CB FF 12
07676   6FB8 DD CB FF 12         RL   [IX+-1],D          ; 6FB8 DD CB FF 12
07677   6FBC DD CB 00 12         rl   [ix+0],d           ; 6FBC DD CB 00 12
07678   6FC0 DD CB 00 12         RL   [IX+0],D           ; 6FC0 DD CB 00 12
07679   6FC4 DD CB 7F 12         rl   [ix+127],d         ; 6FC4 DD CB 7F 12
07680   6FC8 DD CB 7F 12         RL   [IX+127],D         ; 6FC8 DD CB 7F 12
07681   6FCC DD CB 80 13         rl   [ix+-128],e        ; 6FCC DD CB 80 13
07682   6FD0 DD CB 80 13         RL   [IX+-128],E        ; 6FD0 DD CB 80 13
07683   6FD4 DD CB FF 13         rl   [ix+-1],e          ; 6FD4 DD CB FF 13
07684   6FD8 DD CB FF 13         RL   [IX+-1],E          ; 6FD8 DD CB FF 13
07685   6FDC DD CB 00 13         rl   [ix+0],e           ; 6FDC DD CB 00 13
07686   6FE0 DD CB 00 13         RL   [IX+0],E           ; 6FE0 DD CB 00 13
07687   6FE4 DD CB 7F 13         rl   [ix+127],e         ; 6FE4 DD CB 7F 13
07688   6FE8 DD CB 7F 13         RL   [IX+127],E         ; 6FE8 DD CB 7F 13
07689   6FEC DD CB 80 14         rl   [ix+-128],h        ; 6FEC DD CB 80 14
07690   6FF0 DD CB 80 14         RL   [IX+-128],H        ; 6FF0 DD CB 80 14
07691   6FF4 DD CB FF 14         rl   [ix+-1],h          ; 6FF4 DD CB FF 14
07692   6FF8 DD CB FF 14         RL   [IX+-1],H          ; 6FF8 DD CB FF 14
07693   6FFC DD CB 00 14         rl   [ix+0],h           ; 6FFC DD CB 00 14
07694   7000 DD CB 00 14         RL   [IX+0],H           ; 7000 DD CB 00 14
07695   7004 DD CB 7F 14         rl   [ix+127],h         ; 7004 DD CB 7F 14
07696   7008 DD CB 7F 14         RL   [IX+127],H         ; 7008 DD CB 7F 14
07697   700C DD CB 80 15         rl   [ix+-128],l        ; 700C DD CB 80 15
07698   7010 DD CB 80 15         RL   [IX+-128],L        ; 7010 DD CB 80 15
07699   7014 DD CB FF 15         rl   [ix+-1],l          ; 7014 DD CB FF 15
07700   7018 DD CB FF 15         RL   [IX+-1],L          ; 7018 DD CB FF 15
07701   701C DD CB 00 15         rl   [ix+0],l           ; 701C DD CB 00 15
07702   7020 DD CB 00 15         RL   [IX+0],L           ; 7020 DD CB 00 15
07703   7024 DD CB 7F 15         rl   [ix+127],l         ; 7024 DD CB 7F 15
07704   7028 DD CB 7F 15         RL   [IX+127],L         ; 7028 DD CB 7F 15
07705   702C FD CB 80 16         rl   [iy+-128]          ; 702C FD CB 80 16
07706   7030 FD CB 80 16         RL   [IY+-128]          ; 7030 FD CB 80 16
07707   7034 FD CB FF 16         rl   [iy+-1]            ; 7034 FD CB FF 16
07708   7038 FD CB FF 16         RL   [IY+-1]            ; 7038 FD CB FF 16
07709   703C FD CB 00 16         rl   [iy+0]             ; 703C FD CB 00 16
07710   7040 FD CB 00 16         RL   [IY+0]             ; 7040 FD CB 00 16
07711   7044 FD CB 7F 16         rl   [iy+127]           ; 7044 FD CB 7F 16
07712   7048 FD CB 7F 16         RL   [IY+127]           ; 7048 FD CB 7F 16
07713   704C FD CB 80 17         rl   [iy+-128],a        ; 704C FD CB 80 17
07714   7050 FD CB 80 17         RL   [IY+-128],A        ; 7050 FD CB 80 17
07715   7054 FD CB FF 17         rl   [iy+-1],a          ; 7054 FD CB FF 17
07716   7058 FD CB FF 17         RL   [IY+-1],A          ; 7058 FD CB FF 17
07717   705C FD CB 00 17         rl   [iy+0],a           ; 705C FD CB 00 17
07718   7060 FD CB 00 17         RL   [IY+0],A           ; 7060 FD CB 00 17
07719   7064 FD CB 7F 17         rl   [iy+127],a         ; 7064 FD CB 7F 17
07720   7068 FD CB 7F 17         RL   [IY+127],A         ; 7068 FD CB 7F 17
07721   706C FD CB 80 10         rl   [iy+-128],b        ; 706C FD CB 80 10
07722   7070 FD CB 80 10         RL   [IY+-128],B        ; 7070 FD CB 80 10
07723   7074 FD CB FF 10         rl   [iy+-1],b          ; 7074 FD CB FF 10
07724   7078 FD CB FF 10         RL   [IY+-1],B          ; 7078 FD CB FF 10
07725   707C FD CB 00 10         rl   [iy+0],b           ; 707C FD CB 00 10
07726   7080 FD CB 00 10         RL   [IY+0],B           ; 7080 FD CB 00 10
07727   7084 FD CB 7F 10         rl   [iy+127],b         ; 7084 FD CB 7F 10
07728   7088 FD CB 7F 10         RL   [IY+127],B         ; 7088 FD CB 7F 10
07729   708C FD CB 80 11         rl   [iy+-128],c        ; 708C FD CB 80 11
07730   7090 FD CB 80 11         RL   [IY+-128],C        ; 7090 FD CB 80 11
07731   7094 FD CB FF 11         rl   [iy+-1],c          ; 7094 FD CB FF 11
07732   7098 FD CB FF 11         RL   [IY+-1],C          ; 7098 FD CB FF 11
07733   709C FD CB 00 11         rl   [iy+0],c           ; 709C FD CB 00 11
07734   70A0 FD CB 00 11         RL   [IY+0],C           ; 70A0 FD CB 00 11
07735   70A4 FD CB 7F 11         rl   [iy+127],c         ; 70A4 FD CB 7F 11
07736   70A8 FD CB 7F 11         RL   [IY+127],C         ; 70A8 FD CB 7F 11
07737   70AC FD CB 80 12         rl   [iy+-128],d        ; 70AC FD CB 80 12
07738   70B0 FD CB 80 12         RL   [IY+-128],D        ; 70B0 FD CB 80 12
07739   70B4 FD CB FF 12         rl   [iy+-1],d          ; 70B4 FD CB FF 12
07740   70B8 FD CB FF 12         RL   [IY+-1],D          ; 70B8 FD CB FF 12
07741   70BC FD CB 00 12         rl   [iy+0],d           ; 70BC FD CB 00 12
07742   70C0 FD CB 00 12         RL   [IY+0],D           ; 70C0 FD CB 00 12
07743   70C4 FD CB 7F 12         rl   [iy+127],d         ; 70C4 FD CB 7F 12
07744   70C8 FD CB 7F 12         RL   [IY+127],D         ; 70C8 FD CB 7F 12
07745   70CC FD CB 80 13         rl   [iy+-128],e        ; 70CC FD CB 80 13
07746   70D0 FD CB 80 13         RL   [IY+-128],E        ; 70D0 FD CB 80 13
07747   70D4 FD CB FF 13         rl   [iy+-1],e          ; 70D4 FD CB FF 13
07748   70D8 FD CB FF 13         RL   [IY+-1],E          ; 70D8 FD CB FF 13
07749   70DC FD CB 00 13         rl   [iy+0],e           ; 70DC FD CB 00 13
07750   70E0 FD CB 00 13         RL   [IY+0],E           ; 70E0 FD CB 00 13
07751   70E4 FD CB 7F 13         rl   [iy+127],e         ; 70E4 FD CB 7F 13
07752   70E8 FD CB 7F 13         RL   [IY+127],E         ; 70E8 FD CB 7F 13
07753   70EC FD CB 80 14         rl   [iy+-128],h        ; 70EC FD CB 80 14
07754   70F0 FD CB 80 14         RL   [IY+-128],H        ; 70F0 FD CB 80 14
07755   70F4 FD CB FF 14         rl   [iy+-1],h          ; 70F4 FD CB FF 14
07756   70F8 FD CB FF 14         RL   [IY+-1],H          ; 70F8 FD CB FF 14
07757   70FC FD CB 00 14         rl   [iy+0],h           ; 70FC FD CB 00 14
07758   7100 FD CB 00 14         RL   [IY+0],H           ; 7100 FD CB 00 14
07759   7104 FD CB 7F 14         rl   [iy+127],h         ; 7104 FD CB 7F 14
07760   7108 FD CB 7F 14         RL   [IY+127],H         ; 7108 FD CB 7F 14
07761   710C FD CB 80 15         rl   [iy+-128],l        ; 710C FD CB 80 15
07762   7110 FD CB 80 15         RL   [IY+-128],L        ; 7110 FD CB 80 15
07763   7114 FD CB FF 15         rl   [iy+-1],l          ; 7114 FD CB FF 15
07764   7118 FD CB FF 15         RL   [IY+-1],L          ; 7118 FD CB FF 15
07765   711C FD CB 00 15         rl   [iy+0],l           ; 711C FD CB 00 15
07766   7120 FD CB 00 15         RL   [IY+0],L           ; 7120 FD CB 00 15
07767   7124 FD CB 7F 15         rl   [iy+127],l         ; 7124 FD CB 7F 15
07768   7128 FD CB 7F 15         RL   [IY+127],L         ; 7128 FD CB 7F 15
07769   712C CB 17               rl   a                  ; 712C CB 17
07770   712E CB 17               RL   A                  ; 712E CB 17
07771   7130 CB 10               rl   b                  ; 7130 CB 10
07772   7132 CB 10               RL   B                  ; 7132 CB 10
07773   7134 CB 11 CB 10         rl   bc                 ; 7134 CB 11 CB 10
07774   7138 CB 11 CB 10         RL   BC                 ; 7138 CB 11 CB 10
07775   713C CB 11               rl   c                  ; 713C CB 11
07776   713E CB 11               RL   C                  ; 713E CB 11
07777   7140 CB 12               rl   d                  ; 7140 CB 12
07778   7142 CB 12               RL   D                  ; 7142 CB 12
07779   7144 CB 13 CB 12         rl   de                 ; 7144 CB 13 CB 12
07780   7148 CB 13 CB 12         RL   DE                 ; 7148 CB 13 CB 12
07781   714C CB 13               rl   e                  ; 714C CB 13
07782   714E CB 13               RL   E                  ; 714E CB 13
07783   7150 CB 14               rl   h                  ; 7150 CB 14
07784   7152 CB 14               RL   H                  ; 7152 CB 14
07785   7154 CB 15 CB 14         rl   hl                 ; 7154 CB 15 CB 14
07786   7158 CB 15 CB 14         RL   HL                 ; 7158 CB 15 CB 14
07787   715C CB 15               rl   l                  ; 715C CB 15
07788   715E CB 15               RL   L                  ; 715E CB 15
07789   7160 17                  rla                     ; 7160 17
07790   7161 17                  RLA                     ; 7161 17
07791   7162 CB 06               rlc  (hl)               ; 7162 CB 06
07792   7164 CB 06               RLC  (HL)               ; 7164 CB 06
07793   7166 DD CB 80 06         rlc  (ix+-128)          ; 7166 DD CB 80 06
07794   716A DD CB 80 06         RLC  (IX+-128)          ; 716A DD CB 80 06
07795   716E DD CB FF 06         rlc  (ix+-1)            ; 716E DD CB FF 06
07796   7172 DD CB FF 06         RLC  (IX+-1)            ; 7172 DD CB FF 06
07797   7176 DD CB 00 06         rlc  (ix+0)             ; 7176 DD CB 00 06
07798   717A DD CB 00 06         RLC  (IX+0)             ; 717A DD CB 00 06
07799   717E DD CB 7F 06         rlc  (ix+127)           ; 717E DD CB 7F 06
07800   7182 DD CB 7F 06         RLC  (IX+127)           ; 7182 DD CB 7F 06
07801   7186 DD CB 80 07         rlc  (ix+-128),a        ; 7186 DD CB 80 07
07802   718A DD CB 80 07         RLC  (IX+-128),A        ; 718A DD CB 80 07
07803   718E DD CB FF 07         rlc  (ix+-1),a          ; 718E DD CB FF 07
07804   7192 DD CB FF 07         RLC  (IX+-1),A          ; 7192 DD CB FF 07
07805   7196 DD CB 00 07         rlc  (ix+0),a           ; 7196 DD CB 00 07
07806   719A DD CB 00 07         RLC  (IX+0),A           ; 719A DD CB 00 07
07807   719E DD CB 7F 07         rlc  (ix+127),a         ; 719E DD CB 7F 07
07808   71A2 DD CB 7F 07         RLC  (IX+127),A         ; 71A2 DD CB 7F 07
07809   71A6 DD CB 80 00         rlc  (ix+-128),b        ; 71A6 DD CB 80 00
07810   71AA DD CB 80 00         RLC  (IX+-128),B        ; 71AA DD CB 80 00
07811   71AE DD CB FF 00         rlc  (ix+-1),b          ; 71AE DD CB FF 00
07812   71B2 DD CB FF 00         RLC  (IX+-1),B          ; 71B2 DD CB FF 00
07813   71B6 DD CB 00 00         rlc  (ix+0),b           ; 71B6 DD CB 00 00
07814   71BA DD CB 00 00         RLC  (IX+0),B           ; 71BA DD CB 00 00
07815   71BE DD CB 7F 00         rlc  (ix+127),b         ; 71BE DD CB 7F 00
07816   71C2 DD CB 7F 00         RLC  (IX+127),B         ; 71C2 DD CB 7F 00
07817   71C6 DD CB 80 01         rlc  (ix+-128),c        ; 71C6 DD CB 80 01
07818   71CA DD CB 80 01         RLC  (IX+-128),C        ; 71CA DD CB 80 01
07819   71CE DD CB FF 01         rlc  (ix+-1),c          ; 71CE DD CB FF 01
07820   71D2 DD CB FF 01         RLC  (IX+-1),C          ; 71D2 DD CB FF 01
07821   71D6 DD CB 00 01         rlc  (ix+0),c           ; 71D6 DD CB 00 01
07822   71DA DD CB 00 01         RLC  (IX+0),C           ; 71DA DD CB 00 01
07823   71DE DD CB 7F 01         rlc  (ix+127),c         ; 71DE DD CB 7F 01
07824   71E2 DD CB 7F 01         RLC  (IX+127),C         ; 71E2 DD CB 7F 01
07825   71E6 DD CB 80 02         rlc  (ix+-128),d        ; 71E6 DD CB 80 02
07826   71EA DD CB 80 02         RLC  (IX+-128),D        ; 71EA DD CB 80 02
07827   71EE DD CB FF 02         rlc  (ix+-1),d          ; 71EE DD CB FF 02
07828   71F2 DD CB FF 02         RLC  (IX+-1),D          ; 71F2 DD CB FF 02
07829   71F6 DD CB 00 02         rlc  (ix+0),d           ; 71F6 DD CB 00 02
07830   71FA DD CB 00 02         RLC  (IX+0),D           ; 71FA DD CB 00 02
07831   71FE DD CB 7F 02         rlc  (ix+127),d         ; 71FE DD CB 7F 02
07832   7202 DD CB 7F 02         RLC  (IX+127),D         ; 7202 DD CB 7F 02
07833   7206 DD CB 80 03         rlc  (ix+-128),e        ; 7206 DD CB 80 03
07834   720A DD CB 80 03         RLC  (IX+-128),E        ; 720A DD CB 80 03
07835   720E DD CB FF 03         rlc  (ix+-1),e          ; 720E DD CB FF 03
07836   7212 DD CB FF 03         RLC  (IX+-1),E          ; 7212 DD CB FF 03
07837   7216 DD CB 00 03         rlc  (ix+0),e           ; 7216 DD CB 00 03
07838   721A DD CB 00 03         RLC  (IX+0),E           ; 721A DD CB 00 03
07839   721E DD CB 7F 03         rlc  (ix+127),e         ; 721E DD CB 7F 03
07840   7222 DD CB 7F 03         RLC  (IX+127),E         ; 7222 DD CB 7F 03
07841   7226 DD CB 80 04         rlc  (ix+-128),h        ; 7226 DD CB 80 04
07842   722A DD CB 80 04         RLC  (IX+-128),H        ; 722A DD CB 80 04
07843   722E DD CB FF 04         rlc  (ix+-1),h          ; 722E DD CB FF 04
07844   7232 DD CB FF 04         RLC  (IX+-1),H          ; 7232 DD CB FF 04
07845   7236 DD CB 00 04         rlc  (ix+0),h           ; 7236 DD CB 00 04
07846   723A DD CB 00 04         RLC  (IX+0),H           ; 723A DD CB 00 04
07847   723E DD CB 7F 04         rlc  (ix+127),h         ; 723E DD CB 7F 04
07848   7242 DD CB 7F 04         RLC  (IX+127),H         ; 7242 DD CB 7F 04
07849   7246 DD CB 80 05         rlc  (ix+-128),l        ; 7246 DD CB 80 05
07850   724A DD CB 80 05         RLC  (IX+-128),L        ; 724A DD CB 80 05
07851   724E DD CB FF 05         rlc  (ix+-1),l          ; 724E DD CB FF 05
07852   7252 DD CB FF 05         RLC  (IX+-1),L          ; 7252 DD CB FF 05
07853   7256 DD CB 00 05         rlc  (ix+0),l           ; 7256 DD CB 00 05
07854   725A DD CB 00 05         RLC  (IX+0),L           ; 725A DD CB 00 05
07855   725E DD CB 7F 05         rlc  (ix+127),l         ; 725E DD CB 7F 05
07856   7262 DD CB 7F 05         RLC  (IX+127),L         ; 7262 DD CB 7F 05
07857   7266 FD CB 80 06         rlc  (iy+-128)          ; 7266 FD CB 80 06
07858   726A FD CB 80 06         RLC  (IY+-128)          ; 726A FD CB 80 06
07859   726E FD CB FF 06         rlc  (iy+-1)            ; 726E FD CB FF 06
07860   7272 FD CB FF 06         RLC  (IY+-1)            ; 7272 FD CB FF 06
07861   7276 FD CB 00 06         rlc  (iy+0)             ; 7276 FD CB 00 06
07862   727A FD CB 00 06         RLC  (IY+0)             ; 727A FD CB 00 06
07863   727E FD CB 7F 06         rlc  (iy+127)           ; 727E FD CB 7F 06
07864   7282 FD CB 7F 06         RLC  (IY+127)           ; 7282 FD CB 7F 06
07865   7286 FD CB 80 07         rlc  (iy+-128),a        ; 7286 FD CB 80 07
07866   728A FD CB 80 07         RLC  (IY+-128),A        ; 728A FD CB 80 07
07867   728E FD CB FF 07         rlc  (iy+-1),a          ; 728E FD CB FF 07
07868   7292 FD CB FF 07         RLC  (IY+-1),A          ; 7292 FD CB FF 07
07869   7296 FD CB 00 07         rlc  (iy+0),a           ; 7296 FD CB 00 07
07870   729A FD CB 00 07         RLC  (IY+0),A           ; 729A FD CB 00 07
07871   729E FD CB 7F 07         rlc  (iy+127),a         ; 729E FD CB 7F 07
07872   72A2 FD CB 7F 07         RLC  (IY+127),A         ; 72A2 FD CB 7F 07
07873   72A6 FD CB 80 00         rlc  (iy+-128),b        ; 72A6 FD CB 80 00
07874   72AA FD CB 80 00         RLC  (IY+-128),B        ; 72AA FD CB 80 00
07875   72AE FD CB FF 00         rlc  (iy+-1),b          ; 72AE FD CB FF 00
07876   72B2 FD CB FF 00         RLC  (IY+-1),B          ; 72B2 FD CB FF 00
07877   72B6 FD CB 00 00         rlc  (iy+0),b           ; 72B6 FD CB 00 00
07878   72BA FD CB 00 00         RLC  (IY+0),B           ; 72BA FD CB 00 00
07879   72BE FD CB 7F 00         rlc  (iy+127),b         ; 72BE FD CB 7F 00
07880   72C2 FD CB 7F 00         RLC  (IY+127),B         ; 72C2 FD CB 7F 00
07881   72C6 FD CB 80 01         rlc  (iy+-128),c        ; 72C6 FD CB 80 01
07882   72CA FD CB 80 01         RLC  (IY+-128),C        ; 72CA FD CB 80 01
07883   72CE FD CB FF 01         rlc  (iy+-1),c          ; 72CE FD CB FF 01
07884   72D2 FD CB FF 01         RLC  (IY+-1),C          ; 72D2 FD CB FF 01
07885   72D6 FD CB 00 01         rlc  (iy+0),c           ; 72D6 FD CB 00 01
07886   72DA FD CB 00 01         RLC  (IY+0),C           ; 72DA FD CB 00 01
07887   72DE FD CB 7F 01         rlc  (iy+127),c         ; 72DE FD CB 7F 01
07888   72E2 FD CB 7F 01         RLC  (IY+127),C         ; 72E2 FD CB 7F 01
07889   72E6 FD CB 80 02         rlc  (iy+-128),d        ; 72E6 FD CB 80 02
07890   72EA FD CB 80 02         RLC  (IY+-128),D        ; 72EA FD CB 80 02
07891   72EE FD CB FF 02         rlc  (iy+-1),d          ; 72EE FD CB FF 02
07892   72F2 FD CB FF 02         RLC  (IY+-1),D          ; 72F2 FD CB FF 02
07893   72F6 FD CB 00 02         rlc  (iy+0),d           ; 72F6 FD CB 00 02
07894   72FA FD CB 00 02         RLC  (IY+0),D           ; 72FA FD CB 00 02
07895   72FE FD CB 7F 02         rlc  (iy+127),d         ; 72FE FD CB 7F 02
07896   7302 FD CB 7F 02         RLC  (IY+127),D         ; 7302 FD CB 7F 02
07897   7306 FD CB 80 03         rlc  (iy+-128),e        ; 7306 FD CB 80 03
07898   730A FD CB 80 03         RLC  (IY+-128),E        ; 730A FD CB 80 03
07899   730E FD CB FF 03         rlc  (iy+-1),e          ; 730E FD CB FF 03
07900   7312 FD CB FF 03         RLC  (IY+-1),E          ; 7312 FD CB FF 03
07901   7316 FD CB 00 03         rlc  (iy+0),e           ; 7316 FD CB 00 03
07902   731A FD CB 00 03         RLC  (IY+0),E           ; 731A FD CB 00 03
07903   731E FD CB 7F 03         rlc  (iy+127),e         ; 731E FD CB 7F 03
07904   7322 FD CB 7F 03         RLC  (IY+127),E         ; 7322 FD CB 7F 03
07905   7326 FD CB 80 04         rlc  (iy+-128),h        ; 7326 FD CB 80 04
07906   732A FD CB 80 04         RLC  (IY+-128),H        ; 732A FD CB 80 04
07907   732E FD CB FF 04         rlc  (iy+-1),h          ; 732E FD CB FF 04
07908   7332 FD CB FF 04         RLC  (IY+-1),H          ; 7332 FD CB FF 04
07909   7336 FD CB 00 04         rlc  (iy+0),h           ; 7336 FD CB 00 04
07910   733A FD CB 00 04         RLC  (IY+0),H           ; 733A FD CB 00 04
07911   733E FD CB 7F 04         rlc  (iy+127),h         ; 733E FD CB 7F 04
07912   7342 FD CB 7F 04         RLC  (IY+127),H         ; 7342 FD CB 7F 04
07913   7346 FD CB 80 05         rlc  (iy+-128),l        ; 7346 FD CB 80 05
07914   734A FD CB 80 05         RLC  (IY+-128),L        ; 734A FD CB 80 05
07915   734E FD CB FF 05         rlc  (iy+-1),l          ; 734E FD CB FF 05
07916   7352 FD CB FF 05         RLC  (IY+-1),L          ; 7352 FD CB FF 05
07917   7356 FD CB 00 05         rlc  (iy+0),l           ; 7356 FD CB 00 05
07918   735A FD CB 00 05         RLC  (IY+0),L           ; 735A FD CB 00 05
07919   735E FD CB 7F 05         rlc  (iy+127),l         ; 735E FD CB 7F 05
07920   7362 FD CB 7F 05         RLC  (IY+127),L         ; 7362 FD CB 7F 05
07921   7366 CB 06               rlc  [hl]               ; 7366 CB 06
07922   7368 CB 06               RLC  [HL]               ; 7368 CB 06
07923   736A DD CB 80 06         rlc  [ix+-128]          ; 736A DD CB 80 06
07924   736E DD CB 80 06         RLC  [IX+-128]          ; 736E DD CB 80 06
07925   7372 DD CB FF 06         rlc  [ix+-1]            ; 7372 DD CB FF 06
07926   7376 DD CB FF 06         RLC  [IX+-1]            ; 7376 DD CB FF 06
07927   737A DD CB 00 06         rlc  [ix+0]             ; 737A DD CB 00 06
07928   737E DD CB 00 06         RLC  [IX+0]             ; 737E DD CB 00 06
07929   7382 DD CB 7F 06         rlc  [ix+127]           ; 7382 DD CB 7F 06
07930   7386 DD CB 7F 06         RLC  [IX+127]           ; 7386 DD CB 7F 06
07931   738A DD CB 80 07         rlc  [ix+-128],a        ; 738A DD CB 80 07
07932   738E DD CB 80 07         RLC  [IX+-128],A        ; 738E DD CB 80 07
07933   7392 DD CB FF 07         rlc  [ix+-1],a          ; 7392 DD CB FF 07
07934   7396 DD CB FF 07         RLC  [IX+-1],A          ; 7396 DD CB FF 07
07935   739A DD CB 00 07         rlc  [ix+0],a           ; 739A DD CB 00 07
07936   739E DD CB 00 07         RLC  [IX+0],A           ; 739E DD CB 00 07
07937   73A2 DD CB 7F 07         rlc  [ix+127],a         ; 73A2 DD CB 7F 07
07938   73A6 DD CB 7F 07         RLC  [IX+127],A         ; 73A6 DD CB 7F 07
07939   73AA DD CB 80 00         rlc  [ix+-128],b        ; 73AA DD CB 80 00
07940   73AE DD CB 80 00         RLC  [IX+-128],B        ; 73AE DD CB 80 00
07941   73B2 DD CB FF 00         rlc  [ix+-1],b          ; 73B2 DD CB FF 00
07942   73B6 DD CB FF 00         RLC  [IX+-1],B          ; 73B6 DD CB FF 00
07943   73BA DD CB 00 00         rlc  [ix+0],b           ; 73BA DD CB 00 00
07944   73BE DD CB 00 00         RLC  [IX+0],B           ; 73BE DD CB 00 00
07945   73C2 DD CB 7F 00         rlc  [ix+127],b         ; 73C2 DD CB 7F 00
07946   73C6 DD CB 7F 00         RLC  [IX+127],B         ; 73C6 DD CB 7F 00
07947   73CA DD CB 80 01         rlc  [ix+-128],c        ; 73CA DD CB 80 01
07948   73CE DD CB 80 01         RLC  [IX+-128],C        ; 73CE DD CB 80 01
07949   73D2 DD CB FF 01         rlc  [ix+-1],c          ; 73D2 DD CB FF 01
07950   73D6 DD CB FF 01         RLC  [IX+-1],C          ; 73D6 DD CB FF 01
07951   73DA DD CB 00 01         rlc  [ix+0],c           ; 73DA DD CB 00 01
07952   73DE DD CB 00 01         RLC  [IX+0],C           ; 73DE DD CB 00 01
07953   73E2 DD CB 7F 01         rlc  [ix+127],c         ; 73E2 DD CB 7F 01
07954   73E6 DD CB 7F 01         RLC  [IX+127],C         ; 73E6 DD CB 7F 01
07955   73EA DD CB 80 02         rlc  [ix+-128],d        ; 73EA DD CB 80 02
07956   73EE DD CB 80 02         RLC  [IX+-128],D        ; 73EE DD CB 80 02
07957   73F2 DD CB FF 02         rlc  [ix+-1],d          ; 73F2 DD CB FF 02
07958   73F6 DD CB FF 02         RLC  [IX+-1],D          ; 73F6 DD CB FF 02
07959   73FA DD CB 00 02         rlc  [ix+0],d           ; 73FA DD CB 00 02
07960   73FE DD CB 00 02         RLC  [IX+0],D           ; 73FE DD CB 00 02
07961   7402 DD CB 7F 02         rlc  [ix+127],d         ; 7402 DD CB 7F 02
07962   7406 DD CB 7F 02         RLC  [IX+127],D         ; 7406 DD CB 7F 02
07963   740A DD CB 80 03         rlc  [ix+-128],e        ; 740A DD CB 80 03
07964   740E DD CB 80 03         RLC  [IX+-128],E        ; 740E DD CB 80 03
07965   7412 DD CB FF 03         rlc  [ix+-1],e          ; 7412 DD CB FF 03
07966   7416 DD CB FF 03         RLC  [IX+-1],E          ; 7416 DD CB FF 03
07967   741A DD CB 00 03         rlc  [ix+0],e           ; 741A DD CB 00 03
07968   741E DD CB 00 03         RLC  [IX+0],E           ; 741E DD CB 00 03
07969   7422 DD CB 7F 03         rlc  [ix+127],e         ; 7422 DD CB 7F 03
07970   7426 DD CB 7F 03         RLC  [IX+127],E         ; 7426 DD CB 7F 03
07971   742A DD CB 80 04         rlc  [ix+-128],h        ; 742A DD CB 80 04
07972   742E DD CB 80 04         RLC  [IX+-128],H        ; 742E DD CB 80 04
07973   7432 DD CB FF 04         rlc  [ix+-1],h          ; 7432 DD CB FF 04
07974   7436 DD CB FF 04         RLC  [IX+-1],H          ; 7436 DD CB FF 04
07975   743A DD CB 00 04         rlc  [ix+0],h           ; 743A DD CB 00 04
07976   743E DD CB 00 04         RLC  [IX+0],H           ; 743E DD CB 00 04
07977   7442 DD CB 7F 04         rlc  [ix+127],h         ; 7442 DD CB 7F 04
07978   7446 DD CB 7F 04         RLC  [IX+127],H         ; 7446 DD CB 7F 04
07979   744A DD CB 80 05         rlc  [ix+-128],l        ; 744A DD CB 80 05
07980   744E DD CB 80 05         RLC  [IX+-128],L        ; 744E DD CB 80 05
07981   7452 DD CB FF 05         rlc  [ix+-1],l          ; 7452 DD CB FF 05
07982   7456 DD CB FF 05         RLC  [IX+-1],L          ; 7456 DD CB FF 05
07983   745A DD CB 00 05         rlc  [ix+0],l           ; 745A DD CB 00 05
07984   745E DD CB 00 05         RLC  [IX+0],L           ; 745E DD CB 00 05
07985   7462 DD CB 7F 05         rlc  [ix+127],l         ; 7462 DD CB 7F 05
07986   7466 DD CB 7F 05         RLC  [IX+127],L         ; 7466 DD CB 7F 05
07987   746A FD CB 80 06         rlc  [iy+-128]          ; 746A FD CB 80 06
07988   746E FD CB 80 06         RLC  [IY+-128]          ; 746E FD CB 80 06
07989   7472 FD CB FF 06         rlc  [iy+-1]            ; 7472 FD CB FF 06
07990   7476 FD CB FF 06         RLC  [IY+-1]            ; 7476 FD CB FF 06
07991   747A FD CB 00 06         rlc  [iy+0]             ; 747A FD CB 00 06
07992   747E FD CB 00 06         RLC  [IY+0]             ; 747E FD CB 00 06
07993   7482 FD CB 7F 06         rlc  [iy+127]           ; 7482 FD CB 7F 06
07994   7486 FD CB 7F 06         RLC  [IY+127]           ; 7486 FD CB 7F 06
07995   748A FD CB 80 07         rlc  [iy+-128],a        ; 748A FD CB 80 07
07996   748E FD CB 80 07         RLC  [IY+-128],A        ; 748E FD CB 80 07
07997   7492 FD CB FF 07         rlc  [iy+-1],a          ; 7492 FD CB FF 07
07998   7496 FD CB FF 07         RLC  [IY+-1],A          ; 7496 FD CB FF 07
07999   749A FD CB 00 07         rlc  [iy+0],a           ; 749A FD CB 00 07
08000   749E FD CB 00 07         RLC  [IY+0],A           ; 749E FD CB 00 07
08001   74A2 FD CB 7F 07         rlc  [iy+127],a         ; 74A2 FD CB 7F 07
08002   74A6 FD CB 7F 07         RLC  [IY+127],A         ; 74A6 FD CB 7F 07
08003   74AA FD CB 80 00         rlc  [iy+-128],b        ; 74AA FD CB 80 00
08004   74AE FD CB 80 00         RLC  [IY+-128],B        ; 74AE FD CB 80 00
08005   74B2 FD CB FF 00         rlc  [iy+-1],b          ; 74B2 FD CB FF 00
08006   74B6 FD CB FF 00         RLC  [IY+-1],B          ; 74B6 FD CB FF 00
08007   74BA FD CB 00 00         rlc  [iy+0],b           ; 74BA FD CB 00 00
08008   74BE FD CB 00 00         RLC  [IY+0],B           ; 74BE FD CB 00 00
08009   74C2 FD CB 7F 00         rlc  [iy+127],b         ; 74C2 FD CB 7F 00
08010   74C6 FD CB 7F 00         RLC  [IY+127],B         ; 74C6 FD CB 7F 00
08011   74CA FD CB 80 01         rlc  [iy+-128],c        ; 74CA FD CB 80 01
08012   74CE FD CB 80 01         RLC  [IY+-128],C        ; 74CE FD CB 80 01
08013   74D2 FD CB FF 01         rlc  [iy+-1],c          ; 74D2 FD CB FF 01
08014   74D6 FD CB FF 01         RLC  [IY+-1],C          ; 74D6 FD CB FF 01
08015   74DA FD CB 00 01         rlc  [iy+0],c           ; 74DA FD CB 00 01
08016   74DE FD CB 00 01         RLC  [IY+0],C           ; 74DE FD CB 00 01
08017   74E2 FD CB 7F 01         rlc  [iy+127],c         ; 74E2 FD CB 7F 01
08018   74E6 FD CB 7F 01         RLC  [IY+127],C         ; 74E6 FD CB 7F 01
08019   74EA FD CB 80 02         rlc  [iy+-128],d        ; 74EA FD CB 80 02
08020   74EE FD CB 80 02         RLC  [IY+-128],D        ; 74EE FD CB 80 02
08021   74F2 FD CB FF 02         rlc  [iy+-1],d          ; 74F2 FD CB FF 02
08022   74F6 FD CB FF 02         RLC  [IY+-1],D          ; 74F6 FD CB FF 02
08023   74FA FD CB 00 02         rlc  [iy+0],d           ; 74FA FD CB 00 02
08024   74FE FD CB 00 02         RLC  [IY+0],D           ; 74FE FD CB 00 02
08025   7502 FD CB 7F 02         rlc  [iy+127],d         ; 7502 FD CB 7F 02
08026   7506 FD CB 7F 02         RLC  [IY+127],D         ; 7506 FD CB 7F 02
08027   750A FD CB 80 03         rlc  [iy+-128],e        ; 750A FD CB 80 03
08028   750E FD CB 80 03         RLC  [IY+-128],E        ; 750E FD CB 80 03
08029   7512 FD CB FF 03         rlc  [iy+-1],e          ; 7512 FD CB FF 03
08030   7516 FD CB FF 03         RLC  [IY+-1],E          ; 7516 FD CB FF 03
08031   751A FD CB 00 03         rlc  [iy+0],e           ; 751A FD CB 00 03
08032   751E FD CB 00 03         RLC  [IY+0],E           ; 751E FD CB 00 03
08033   7522 FD CB 7F 03         rlc  [iy+127],e         ; 7522 FD CB 7F 03
08034   7526 FD CB 7F 03         RLC  [IY+127],E         ; 7526 FD CB 7F 03
08035   752A FD CB 80 04         rlc  [iy+-128],h        ; 752A FD CB 80 04
08036   752E FD CB 80 04         RLC  [IY+-128],H        ; 752E FD CB 80 04
08037   7532 FD CB FF 04         rlc  [iy+-1],h          ; 7532 FD CB FF 04
08038   7536 FD CB FF 04         RLC  [IY+-1],H          ; 7536 FD CB FF 04
08039   753A FD CB 00 04         rlc  [iy+0],h           ; 753A FD CB 00 04
08040   753E FD CB 00 04         RLC  [IY+0],H           ; 753E FD CB 00 04
08041   7542 FD CB 7F 04         rlc  [iy+127],h         ; 7542 FD CB 7F 04
08042   7546 FD CB 7F 04         RLC  [IY+127],H         ; 7546 FD CB 7F 04
08043   754A FD CB 80 05         rlc  [iy+-128],l        ; 754A FD CB 80 05
08044   754E FD CB 80 05         RLC  [IY+-128],L        ; 754E FD CB 80 05
08045   7552 FD CB FF 05         rlc  [iy+-1],l          ; 7552 FD CB FF 05
08046   7556 FD CB FF 05         RLC  [IY+-1],L          ; 7556 FD CB FF 05
08047   755A FD CB 00 05         rlc  [iy+0],l           ; 755A FD CB 00 05
08048   755E FD CB 00 05         RLC  [IY+0],L           ; 755E FD CB 00 05
08049   7562 FD CB 7F 05         rlc  [iy+127],l         ; 7562 FD CB 7F 05
08050   7566 FD CB 7F 05         RLC  [IY+127],L         ; 7566 FD CB 7F 05
08051   756A CB 07               rlc  a                  ; 756A CB 07
08052   756C CB 07               RLC  A                  ; 756C CB 07
08053   756E CB 00               rlc  b                  ; 756E CB 00
08054   7570 CB 00               RLC  B                  ; 7570 CB 00
08055   7572 CB 01               rlc  c                  ; 7572 CB 01
08056   7574 CB 01               RLC  C                  ; 7574 CB 01
08057   7576 CB 02               rlc  d                  ; 7576 CB 02
08058   7578 CB 02               RLC  D                  ; 7578 CB 02
08059   757A CB 03               rlc  e                  ; 757A CB 03
08060   757C CB 03               RLC  E                  ; 757C CB 03
08061   757E CB 04               rlc  h                  ; 757E CB 04
08062   7580 CB 04               RLC  H                  ; 7580 CB 04
08063   7582 CB 05               rlc  l                  ; 7582 CB 05
08064   7584 CB 05               RLC  L                  ; 7584 CB 05
08065   7586 07                  rlca                    ; 7586 07
08066   7587 07                  RLCA                    ; 7587 07
08067   7588 ED 6F               rld                     ; 7588 ED 6F
08068   758A ED 6F               RLD                     ; 758A ED 6F
08069   758C CB 1E               rr   (hl)               ; 758C CB 1E
08070   758E CB 1E               RR   (HL)               ; 758E CB 1E
08071   7590 DD CB 80 1E         rr   (ix+-128)          ; 7590 DD CB 80 1E
08072   7594 DD CB 80 1E         RR   (IX+-128)          ; 7594 DD CB 80 1E
08073   7598 DD CB FF 1E         rr   (ix+-1)            ; 7598 DD CB FF 1E
08074   759C DD CB FF 1E         RR   (IX+-1)            ; 759C DD CB FF 1E
08075   75A0 DD CB 00 1E         rr   (ix+0)             ; 75A0 DD CB 00 1E
08076   75A4 DD CB 00 1E         RR   (IX+0)             ; 75A4 DD CB 00 1E
08077   75A8 DD CB 7F 1E         rr   (ix+127)           ; 75A8 DD CB 7F 1E
08078   75AC DD CB 7F 1E         RR   (IX+127)           ; 75AC DD CB 7F 1E
08079   75B0 DD CB 80 1F         rr   (ix+-128),a        ; 75B0 DD CB 80 1F
08080   75B4 DD CB 80 1F         RR   (IX+-128),A        ; 75B4 DD CB 80 1F
08081   75B8 DD CB FF 1F         rr   (ix+-1),a          ; 75B8 DD CB FF 1F
08082   75BC DD CB FF 1F         RR   (IX+-1),A          ; 75BC DD CB FF 1F
08083   75C0 DD CB 00 1F         rr   (ix+0),a           ; 75C0 DD CB 00 1F
08084   75C4 DD CB 00 1F         RR   (IX+0),A           ; 75C4 DD CB 00 1F
08085   75C8 DD CB 7F 1F         rr   (ix+127),a         ; 75C8 DD CB 7F 1F
08086   75CC DD CB 7F 1F         RR   (IX+127),A         ; 75CC DD CB 7F 1F
08087   75D0 DD CB 80 18         rr   (ix+-128),b        ; 75D0 DD CB 80 18
08088   75D4 DD CB 80 18         RR   (IX+-128),B        ; 75D4 DD CB 80 18
08089   75D8 DD CB FF 18         rr   (ix+-1),b          ; 75D8 DD CB FF 18
08090   75DC DD CB FF 18         RR   (IX+-1),B          ; 75DC DD CB FF 18
08091   75E0 DD CB 00 18         rr   (ix+0),b           ; 75E0 DD CB 00 18
08092   75E4 DD CB 00 18         RR   (IX+0),B           ; 75E4 DD CB 00 18
08093   75E8 DD CB 7F 18         rr   (ix+127),b         ; 75E8 DD CB 7F 18
08094   75EC DD CB 7F 18         RR   (IX+127),B         ; 75EC DD CB 7F 18
08095   75F0 DD CB 80 19         rr   (ix+-128),c        ; 75F0 DD CB 80 19
08096   75F4 DD CB 80 19         RR   (IX+-128),C        ; 75F4 DD CB 80 19
08097   75F8 DD CB FF 19         rr   (ix+-1),c          ; 75F8 DD CB FF 19
08098   75FC DD CB FF 19         RR   (IX+-1),C          ; 75FC DD CB FF 19
08099   7600 DD CB 00 19         rr   (ix+0),c           ; 7600 DD CB 00 19
08100   7604 DD CB 00 19         RR   (IX+0),C           ; 7604 DD CB 00 19
08101   7608 DD CB 7F 19         rr   (ix+127),c         ; 7608 DD CB 7F 19
08102   760C DD CB 7F 19         RR   (IX+127),C         ; 760C DD CB 7F 19
08103   7610 DD CB 80 1A         rr   (ix+-128),d        ; 7610 DD CB 80 1A
08104   7614 DD CB 80 1A         RR   (IX+-128),D        ; 7614 DD CB 80 1A
08105   7618 DD CB FF 1A         rr   (ix+-1),d          ; 7618 DD CB FF 1A
08106   761C DD CB FF 1A         RR   (IX+-1),D          ; 761C DD CB FF 1A
08107   7620 DD CB 00 1A         rr   (ix+0),d           ; 7620 DD CB 00 1A
08108   7624 DD CB 00 1A         RR   (IX+0),D           ; 7624 DD CB 00 1A
08109   7628 DD CB 7F 1A         rr   (ix+127),d         ; 7628 DD CB 7F 1A
08110   762C DD CB 7F 1A         RR   (IX+127),D         ; 762C DD CB 7F 1A
08111   7630 DD CB 80 1B         rr   (ix+-128),e        ; 7630 DD CB 80 1B
08112   7634 DD CB 80 1B         RR   (IX+-128),E        ; 7634 DD CB 80 1B
08113   7638 DD CB FF 1B         rr   (ix+-1),e          ; 7638 DD CB FF 1B
08114   763C DD CB FF 1B         RR   (IX+-1),E          ; 763C DD CB FF 1B
08115   7640 DD CB 00 1B         rr   (ix+0),e           ; 7640 DD CB 00 1B
08116   7644 DD CB 00 1B         RR   (IX+0),E           ; 7644 DD CB 00 1B
08117   7648 DD CB 7F 1B         rr   (ix+127),e         ; 7648 DD CB 7F 1B
08118   764C DD CB 7F 1B         RR   (IX+127),E         ; 764C DD CB 7F 1B
08119   7650 DD CB 80 1C         rr   (ix+-128),h        ; 7650 DD CB 80 1C
08120   7654 DD CB 80 1C         RR   (IX+-128),H        ; 7654 DD CB 80 1C
08121   7658 DD CB FF 1C         rr   (ix+-1),h          ; 7658 DD CB FF 1C
08122   765C DD CB FF 1C         RR   (IX+-1),H          ; 765C DD CB FF 1C
08123   7660 DD CB 00 1C         rr   (ix+0),h           ; 7660 DD CB 00 1C
08124   7664 DD CB 00 1C         RR   (IX+0),H           ; 7664 DD CB 00 1C
08125   7668 DD CB 7F 1C         rr   (ix+127),h         ; 7668 DD CB 7F 1C
08126   766C DD CB 7F 1C         RR   (IX+127),H         ; 766C DD CB 7F 1C
08127   7670 DD CB 80 1D         rr   (ix+-128),l        ; 7670 DD CB 80 1D
08128   7674 DD CB 80 1D         RR   (IX+-128),L        ; 7674 DD CB 80 1D
08129   7678 DD CB FF 1D         rr   (ix+-1),l          ; 7678 DD CB FF 1D
08130   767C DD CB FF 1D         RR   (IX+-1),L          ; 767C DD CB FF 1D
08131   7680 DD CB 00 1D         rr   (ix+0),l           ; 7680 DD CB 00 1D
08132   7684 DD CB 00 1D         RR   (IX+0),L           ; 7684 DD CB 00 1D
08133   7688 DD CB 7F 1D         rr   (ix+127),l         ; 7688 DD CB 7F 1D
08134   768C DD CB 7F 1D         RR   (IX+127),L         ; 768C DD CB 7F 1D
08135   7690 FD CB 80 1E         rr   (iy+-128)          ; 7690 FD CB 80 1E
08136   7694 FD CB 80 1E         RR   (IY+-128)          ; 7694 FD CB 80 1E
08137   7698 FD CB FF 1E         rr   (iy+-1)            ; 7698 FD CB FF 1E
08138   769C FD CB FF 1E         RR   (IY+-1)            ; 769C FD CB FF 1E
08139   76A0 FD CB 00 1E         rr   (iy+0)             ; 76A0 FD CB 00 1E
08140   76A4 FD CB 00 1E         RR   (IY+0)             ; 76A4 FD CB 00 1E
08141   76A8 FD CB 7F 1E         rr   (iy+127)           ; 76A8 FD CB 7F 1E
08142   76AC FD CB 7F 1E         RR   (IY+127)           ; 76AC FD CB 7F 1E
08143   76B0 FD CB 80 1F         rr   (iy+-128),a        ; 76B0 FD CB 80 1F
08144   76B4 FD CB 80 1F         RR   (IY+-128),A        ; 76B4 FD CB 80 1F
08145   76B8 FD CB FF 1F         rr   (iy+-1),a          ; 76B8 FD CB FF 1F
08146   76BC FD CB FF 1F         RR   (IY+-1),A          ; 76BC FD CB FF 1F
08147   76C0 FD CB 00 1F         rr   (iy+0),a           ; 76C0 FD CB 00 1F
08148   76C4 FD CB 00 1F         RR   (IY+0),A           ; 76C4 FD CB 00 1F
08149   76C8 FD CB 7F 1F         rr   (iy+127),a         ; 76C8 FD CB 7F 1F
08150   76CC FD CB 7F 1F         RR   (IY+127),A         ; 76CC FD CB 7F 1F
08151   76D0 FD CB 80 18         rr   (iy+-128),b        ; 76D0 FD CB 80 18
08152   76D4 FD CB 80 18         RR   (IY+-128),B        ; 76D4 FD CB 80 18
08153   76D8 FD CB FF 18         rr   (iy+-1),b          ; 76D8 FD CB FF 18
08154   76DC FD CB FF 18         RR   (IY+-1),B          ; 76DC FD CB FF 18
08155   76E0 FD CB 00 18         rr   (iy+0),b           ; 76E0 FD CB 00 18
08156   76E4 FD CB 00 18         RR   (IY+0),B           ; 76E4 FD CB 00 18
08157   76E8 FD CB 7F 18         rr   (iy+127),b         ; 76E8 FD CB 7F 18
08158   76EC FD CB 7F 18         RR   (IY+127),B         ; 76EC FD CB 7F 18
08159   76F0 FD CB 80 19         rr   (iy+-128),c        ; 76F0 FD CB 80 19
08160   76F4 FD CB 80 19         RR   (IY+-128),C        ; 76F4 FD CB 80 19
08161   76F8 FD CB FF 19         rr   (iy+-1),c          ; 76F8 FD CB FF 19
08162   76FC FD CB FF 19         RR   (IY+-1),C          ; 76FC FD CB FF 19
08163   7700 FD CB 00 19         rr   (iy+0),c           ; 7700 FD CB 00 19
08164   7704 FD CB 00 19         RR   (IY+0),C           ; 7704 FD CB 00 19
08165   7708 FD CB 7F 19         rr   (iy+127),c         ; 7708 FD CB 7F 19
08166   770C FD CB 7F 19         RR   (IY+127),C         ; 770C FD CB 7F 19
08167   7710 FD CB 80 1A         rr   (iy+-128),d        ; 7710 FD CB 80 1A
08168   7714 FD CB 80 1A         RR   (IY+-128),D        ; 7714 FD CB 80 1A
08169   7718 FD CB FF 1A         rr   (iy+-1),d          ; 7718 FD CB FF 1A
08170   771C FD CB FF 1A         RR   (IY+-1),D          ; 771C FD CB FF 1A
08171   7720 FD CB 00 1A         rr   (iy+0),d           ; 7720 FD CB 00 1A
08172   7724 FD CB 00 1A         RR   (IY+0),D           ; 7724 FD CB 00 1A
08173   7728 FD CB 7F 1A         rr   (iy+127),d         ; 7728 FD CB 7F 1A
08174   772C FD CB 7F 1A         RR   (IY+127),D         ; 772C FD CB 7F 1A
08175   7730 FD CB 80 1B         rr   (iy+-128),e        ; 7730 FD CB 80 1B
08176   7734 FD CB 80 1B         RR   (IY+-128),E        ; 7734 FD CB 80 1B
08177   7738 FD CB FF 1B         rr   (iy+-1),e          ; 7738 FD CB FF 1B
08178   773C FD CB FF 1B         RR   (IY+-1),E          ; 773C FD CB FF 1B
08179   7740 FD CB 00 1B         rr   (iy+0),e           ; 7740 FD CB 00 1B
08180   7744 FD CB 00 1B         RR   (IY+0),E           ; 7744 FD CB 00 1B
08181   7748 FD CB 7F 1B         rr   (iy+127),e         ; 7748 FD CB 7F 1B
08182   774C FD CB 7F 1B         RR   (IY+127),E         ; 774C FD CB 7F 1B
08183   7750 FD CB 80 1C         rr   (iy+-128),h        ; 7750 FD CB 80 1C
08184   7754 FD CB 80 1C         RR   (IY+-128),H        ; 7754 FD CB 80 1C
08185   7758 FD CB FF 1C         rr   (iy+-1),h          ; 7758 FD CB FF 1C
08186   775C FD CB FF 1C         RR   (IY+-1),H          ; 775C FD CB FF 1C
08187   7760 FD CB 00 1C         rr   (iy+0),h           ; 7760 FD CB 00 1C
08188   7764 FD CB 00 1C         RR   (IY+0),H           ; 7764 FD CB 00 1C
08189   7768 FD CB 7F 1C         rr   (iy+127),h         ; 7768 FD CB 7F 1C
08190   776C FD CB 7F 1C         RR   (IY+127),H         ; 776C FD CB 7F 1C
08191   7770 FD CB 80 1D         rr   (iy+-128),l        ; 7770 FD CB 80 1D
08192   7774 FD CB 80 1D         RR   (IY+-128),L        ; 7774 FD CB 80 1D
08193   7778 FD CB FF 1D         rr   (iy+-1),l          ; 7778 FD CB FF 1D
08194   777C FD CB FF 1D         RR   (IY+-1),L          ; 777C FD CB FF 1D
08195   7780 FD CB 00 1D         rr   (iy+0),l           ; 7780 FD CB 00 1D
08196   7784 FD CB 00 1D         RR   (IY+0),L           ; 7784 FD CB 00 1D
08197   7788 FD CB 7F 1D         rr   (iy+127),l         ; 7788 FD CB 7F 1D
08198   778C FD CB 7F 1D         RR   (IY+127),L         ; 778C FD CB 7F 1D
08199   7790 CB 1E               rr   [hl]               ; 7790 CB 1E
08200   7792 CB 1E               RR   [HL]               ; 7792 CB 1E
08201   7794 DD CB 80 1E         rr   [ix+-128]          ; 7794 DD CB 80 1E
08202   7798 DD CB 80 1E         RR   [IX+-128]          ; 7798 DD CB 80 1E
08203   779C DD CB FF 1E         rr   [ix+-1]            ; 779C DD CB FF 1E
08204   77A0 DD CB FF 1E         RR   [IX+-1]            ; 77A0 DD CB FF 1E
08205   77A4 DD CB 00 1E         rr   [ix+0]             ; 77A4 DD CB 00 1E
08206   77A8 DD CB 00 1E         RR   [IX+0]             ; 77A8 DD CB 00 1E
08207   77AC DD CB 7F 1E         rr   [ix+127]           ; 77AC DD CB 7F 1E
08208   77B0 DD CB 7F 1E         RR   [IX+127]           ; 77B0 DD CB 7F 1E
08209   77B4 DD CB 80 1F         rr   [ix+-128],a        ; 77B4 DD CB 80 1F
08210   77B8 DD CB 80 1F         RR   [IX+-128],A        ; 77B8 DD CB 80 1F
08211   77BC DD CB FF 1F         rr   [ix+-1],a          ; 77BC DD CB FF 1F
08212   77C0 DD CB FF 1F         RR   [IX+-1],A          ; 77C0 DD CB FF 1F
08213   77C4 DD CB 00 1F         rr   [ix+0],a           ; 77C4 DD CB 00 1F
08214   77C8 DD CB 00 1F         RR   [IX+0],A           ; 77C8 DD CB 00 1F
08215   77CC DD CB 7F 1F         rr   [ix+127],a         ; 77CC DD CB 7F 1F
08216   77D0 DD CB 7F 1F         RR   [IX+127],A         ; 77D0 DD CB 7F 1F
08217   77D4 DD CB 80 18         rr   [ix+-128],b        ; 77D4 DD CB 80 18
08218   77D8 DD CB 80 18         RR   [IX+-128],B        ; 77D8 DD CB 80 18
08219   77DC DD CB FF 18         rr   [ix+-1],b          ; 77DC DD CB FF 18
08220   77E0 DD CB FF 18         RR   [IX+-1],B          ; 77E0 DD CB FF 18
08221   77E4 DD CB 00 18         rr   [ix+0],b           ; 77E4 DD CB 00 18
08222   77E8 DD CB 00 18         RR   [IX+0],B           ; 77E8 DD CB 00 18
08223   77EC DD CB 7F 18         rr   [ix+127],b         ; 77EC DD CB 7F 18
08224   77F0 DD CB 7F 18         RR   [IX+127],B         ; 77F0 DD CB 7F 18
08225   77F4 DD CB 80 19         rr   [ix+-128],c        ; 77F4 DD CB 80 19
08226   77F8 DD CB 80 19         RR   [IX+-128],C        ; 77F8 DD CB 80 19
08227   77FC DD CB FF 19         rr   [ix+-1],c          ; 77FC DD CB FF 19
08228   7800 DD CB FF 19         RR   [IX+-1],C          ; 7800 DD CB FF 19
08229   7804 DD CB 00 19         rr   [ix+0],c           ; 7804 DD CB 00 19
08230   7808 DD CB 00 19         RR   [IX+0],C           ; 7808 DD CB 00 19
08231   780C DD CB 7F 19         rr   [ix+127],c         ; 780C DD CB 7F 19
08232   7810 DD CB 7F 19         RR   [IX+127],C         ; 7810 DD CB 7F 19
08233   7814 DD CB 80 1A         rr   [ix+-128],d        ; 7814 DD CB 80 1A
08234   7818 DD CB 80 1A         RR   [IX+-128],D        ; 7818 DD CB 80 1A
08235   781C DD CB FF 1A         rr   [ix+-1],d          ; 781C DD CB FF 1A
08236   7820 DD CB FF 1A         RR   [IX+-1],D          ; 7820 DD CB FF 1A
08237   7824 DD CB 00 1A         rr   [ix+0],d           ; 7824 DD CB 00 1A
08238   7828 DD CB 00 1A         RR   [IX+0],D           ; 7828 DD CB 00 1A
08239   782C DD CB 7F 1A         rr   [ix+127],d         ; 782C DD CB 7F 1A
08240   7830 DD CB 7F 1A         RR   [IX+127],D         ; 7830 DD CB 7F 1A
08241   7834 DD CB 80 1B         rr   [ix+-128],e        ; 7834 DD CB 80 1B
08242   7838 DD CB 80 1B         RR   [IX+-128],E        ; 7838 DD CB 80 1B
08243   783C DD CB FF 1B         rr   [ix+-1],e          ; 783C DD CB FF 1B
08244   7840 DD CB FF 1B         RR   [IX+-1],E          ; 7840 DD CB FF 1B
08245   7844 DD CB 00 1B         rr   [ix+0],e           ; 7844 DD CB 00 1B
08246   7848 DD CB 00 1B         RR   [IX+0],E           ; 7848 DD CB 00 1B
08247   784C DD CB 7F 1B         rr   [ix+127],e         ; 784C DD CB 7F 1B
08248   7850 DD CB 7F 1B         RR   [IX+127],E         ; 7850 DD CB 7F 1B
08249   7854 DD CB 80 1C         rr   [ix+-128],h        ; 7854 DD CB 80 1C
08250   7858 DD CB 80 1C         RR   [IX+-128],H        ; 7858 DD CB 80 1C
08251   785C DD CB FF 1C         rr   [ix+-1],h          ; 785C DD CB FF 1C
08252   7860 DD CB FF 1C         RR   [IX+-1],H          ; 7860 DD CB FF 1C
08253   7864 DD CB 00 1C         rr   [ix+0],h           ; 7864 DD CB 00 1C
08254   7868 DD CB 00 1C         RR   [IX+0],H           ; 7868 DD CB 00 1C
08255   786C DD CB 7F 1C         rr   [ix+127],h         ; 786C DD CB 7F 1C
08256   7870 DD CB 7F 1C         RR   [IX+127],H         ; 7870 DD CB 7F 1C
08257   7874 DD CB 80 1D         rr   [ix+-128],l        ; 7874 DD CB 80 1D
08258   7878 DD CB 80 1D         RR   [IX+-128],L        ; 7878 DD CB 80 1D
08259   787C DD CB FF 1D         rr   [ix+-1],l          ; 787C DD CB FF 1D
08260   7880 DD CB FF 1D         RR   [IX+-1],L          ; 7880 DD CB FF 1D
08261   7884 DD CB 00 1D         rr   [ix+0],l           ; 7884 DD CB 00 1D
08262   7888 DD CB 00 1D         RR   [IX+0],L           ; 7888 DD CB 00 1D
08263   788C DD CB 7F 1D         rr   [ix+127],l         ; 788C DD CB 7F 1D
08264   7890 DD CB 7F 1D         RR   [IX+127],L         ; 7890 DD CB 7F 1D
08265   7894 FD CB 80 1E         rr   [iy+-128]          ; 7894 FD CB 80 1E
08266   7898 FD CB 80 1E         RR   [IY+-128]          ; 7898 FD CB 80 1E
08267   789C FD CB FF 1E         rr   [iy+-1]            ; 789C FD CB FF 1E
08268   78A0 FD CB FF 1E         RR   [IY+-1]            ; 78A0 FD CB FF 1E
08269   78A4 FD CB 00 1E         rr   [iy+0]             ; 78A4 FD CB 00 1E
08270   78A8 FD CB 00 1E         RR   [IY+0]             ; 78A8 FD CB 00 1E
08271   78AC FD CB 7F 1E         rr   [iy+127]           ; 78AC FD CB 7F 1E
08272   78B0 FD CB 7F 1E         RR   [IY+127]           ; 78B0 FD CB 7F 1E
08273   78B4 FD CB 80 1F         rr   [iy+-128],a        ; 78B4 FD CB 80 1F
08274   78B8 FD CB 80 1F         RR   [IY+-128],A        ; 78B8 FD CB 80 1F
08275   78BC FD CB FF 1F         rr   [iy+-1],a          ; 78BC FD CB FF 1F
08276   78C0 FD CB FF 1F         RR   [IY+-1],A          ; 78C0 FD CB FF 1F
08277   78C4 FD CB 00 1F         rr   [iy+0],a           ; 78C4 FD CB 00 1F
08278   78C8 FD CB 00 1F         RR   [IY+0],A           ; 78C8 FD CB 00 1F
08279   78CC FD CB 7F 1F         rr   [iy+127],a         ; 78CC FD CB 7F 1F
08280   78D0 FD CB 7F 1F         RR   [IY+127],A         ; 78D0 FD CB 7F 1F
08281   78D4 FD CB 80 18         rr   [iy+-128],b        ; 78D4 FD CB 80 18
08282   78D8 FD CB 80 18         RR   [IY+-128],B        ; 78D8 FD CB 80 18
08283   78DC FD CB FF 18         rr   [iy+-1],b          ; 78DC FD CB FF 18
08284   78E0 FD CB FF 18         RR   [IY+-1],B          ; 78E0 FD CB FF 18
08285   78E4 FD CB 00 18         rr   [iy+0],b           ; 78E4 FD CB 00 18
08286   78E8 FD CB 00 18         RR   [IY+0],B           ; 78E8 FD CB 00 18
08287   78EC FD CB 7F 18         rr   [iy+127],b         ; 78EC FD CB 7F 18
08288   78F0 FD CB 7F 18         RR   [IY+127],B         ; 78F0 FD CB 7F 18
08289   78F4 FD CB 80 19         rr   [iy+-128],c        ; 78F4 FD CB 80 19
08290   78F8 FD CB 80 19         RR   [IY+-128],C        ; 78F8 FD CB 80 19
08291   78FC FD CB FF 19         rr   [iy+-1],c          ; 78FC FD CB FF 19
08292   7900 FD CB FF 19         RR   [IY+-1],C          ; 7900 FD CB FF 19
08293   7904 FD CB 00 19         rr   [iy+0],c           ; 7904 FD CB 00 19
08294   7908 FD CB 00 19         RR   [IY+0],C           ; 7908 FD CB 00 19
08295   790C FD CB 7F 19         rr   [iy+127],c         ; 790C FD CB 7F 19
08296   7910 FD CB 7F 19         RR   [IY+127],C         ; 7910 FD CB 7F 19
08297   7914 FD CB 80 1A         rr   [iy+-128],d        ; 7914 FD CB 80 1A
08298   7918 FD CB 80 1A         RR   [IY+-128],D        ; 7918 FD CB 80 1A
08299   791C FD CB FF 1A         rr   [iy+-1],d          ; 791C FD CB FF 1A
08300   7920 FD CB FF 1A         RR   [IY+-1],D          ; 7920 FD CB FF 1A
08301   7924 FD CB 00 1A         rr   [iy+0],d           ; 7924 FD CB 00 1A
08302   7928 FD CB 00 1A         RR   [IY+0],D           ; 7928 FD CB 00 1A
08303   792C FD CB 7F 1A         rr   [iy+127],d         ; 792C FD CB 7F 1A
08304   7930 FD CB 7F 1A         RR   [IY+127],D         ; 7930 FD CB 7F 1A
08305   7934 FD CB 80 1B         rr   [iy+-128],e        ; 7934 FD CB 80 1B
08306   7938 FD CB 80 1B         RR   [IY+-128],E        ; 7938 FD CB 80 1B
08307   793C FD CB FF 1B         rr   [iy+-1],e          ; 793C FD CB FF 1B
08308   7940 FD CB FF 1B         RR   [IY+-1],E          ; 7940 FD CB FF 1B
08309   7944 FD CB 00 1B         rr   [iy+0],e           ; 7944 FD CB 00 1B
08310   7948 FD CB 00 1B         RR   [IY+0],E           ; 7948 FD CB 00 1B
08311   794C FD CB 7F 1B         rr   [iy+127],e         ; 794C FD CB 7F 1B
08312   7950 FD CB 7F 1B         RR   [IY+127],E         ; 7950 FD CB 7F 1B
08313   7954 FD CB 80 1C         rr   [iy+-128],h        ; 7954 FD CB 80 1C
08314   7958 FD CB 80 1C         RR   [IY+-128],H        ; 7958 FD CB 80 1C
08315   795C FD CB FF 1C         rr   [iy+-1],h          ; 795C FD CB FF 1C
08316   7960 FD CB FF 1C         RR   [IY+-1],H          ; 7960 FD CB FF 1C
08317   7964 FD CB 00 1C         rr   [iy+0],h           ; 7964 FD CB 00 1C
08318   7968 FD CB 00 1C         RR   [IY+0],H           ; 7968 FD CB 00 1C
08319   796C FD CB 7F 1C         rr   [iy+127],h         ; 796C FD CB 7F 1C
08320   7970 FD CB 7F 1C         RR   [IY+127],H         ; 7970 FD CB 7F 1C
08321   7974 FD CB 80 1D         rr   [iy+-128],l        ; 7974 FD CB 80 1D
08322   7978 FD CB 80 1D         RR   [IY+-128],L        ; 7978 FD CB 80 1D
08323   797C FD CB FF 1D         rr   [iy+-1],l          ; 797C FD CB FF 1D
08324   7980 FD CB FF 1D         RR   [IY+-1],L          ; 7980 FD CB FF 1D
08325   7984 FD CB 00 1D         rr   [iy+0],l           ; 7984 FD CB 00 1D
08326   7988 FD CB 00 1D         RR   [IY+0],L           ; 7988 FD CB 00 1D
08327   798C FD CB 7F 1D         rr   [iy+127],l         ; 798C FD CB 7F 1D
08328   7990 FD CB 7F 1D         RR   [IY+127],L         ; 7990 FD CB 7F 1D
08329   7994 CB 1F               rr   a                  ; 7994 CB 1F
08330   7996 CB 1F               RR   A                  ; 7996 CB 1F
08331   7998 CB 18               rr   b                  ; 7998 CB 18
08332   799A CB 18               RR   B                  ; 799A CB 18
08333   799C CB 18 CB 19         rr   bc                 ; 799C CB 18 CB 19
08334   79A0 CB 18 CB 19         RR   BC                 ; 79A0 CB 18 CB 19
08335   79A4 CB 19               rr   c                  ; 79A4 CB 19
08336   79A6 CB 19               RR   C                  ; 79A6 CB 19
08337   79A8 CB 1A               rr   d                  ; 79A8 CB 1A
08338   79AA CB 1A               RR   D                  ; 79AA CB 1A
08339   79AC CB 1A CB 1B         rr   de                 ; 79AC CB 1A CB 1B
08340   79B0 CB 1A CB 1B         RR   DE                 ; 79B0 CB 1A CB 1B
08341   79B4 CB 1B               rr   e                  ; 79B4 CB 1B
08342   79B6 CB 1B               RR   E                  ; 79B6 CB 1B
08343   79B8 CB 1C               rr   h                  ; 79B8 CB 1C
08344   79BA CB 1C               RR   H                  ; 79BA CB 1C
08345   79BC CB 1C CB 1D         rr   hl                 ; 79BC CB 1C CB 1D
08346   79C0 CB 1C CB 1D         RR   HL                 ; 79C0 CB 1C CB 1D
08347   79C4 CB 1D               rr   l                  ; 79C4 CB 1D
08348   79C6 CB 1D               RR   L                  ; 79C6 CB 1D
08349   79C8 1F                  rra                     ; 79C8 1F
08350   79C9 1F                  RRA                     ; 79C9 1F
08351   79CA CB 0E               rrc  (hl)               ; 79CA CB 0E
08352   79CC CB 0E               RRC  (HL)               ; 79CC CB 0E
08353   79CE DD CB 80 0E         rrc  (ix+-128)          ; 79CE DD CB 80 0E
08354   79D2 DD CB 80 0E         RRC  (IX+-128)          ; 79D2 DD CB 80 0E
08355   79D6 DD CB FF 0E         rrc  (ix+-1)            ; 79D6 DD CB FF 0E
08356   79DA DD CB FF 0E         RRC  (IX+-1)            ; 79DA DD CB FF 0E
08357   79DE DD CB 00 0E         rrc  (ix+0)             ; 79DE DD CB 00 0E
08358   79E2 DD CB 00 0E         RRC  (IX+0)             ; 79E2 DD CB 00 0E
08359   79E6 DD CB 7F 0E         rrc  (ix+127)           ; 79E6 DD CB 7F 0E
08360   79EA DD CB 7F 0E         RRC  (IX+127)           ; 79EA DD CB 7F 0E
08361   79EE DD CB 80 0F         rrc  (ix+-128),a        ; 79EE DD CB 80 0F
08362   79F2 DD CB 80 0F         RRC  (IX+-128),A        ; 79F2 DD CB 80 0F
08363   79F6 DD CB FF 0F         rrc  (ix+-1),a          ; 79F6 DD CB FF 0F
08364   79FA DD CB FF 0F         RRC  (IX+-1),A          ; 79FA DD CB FF 0F
08365   79FE DD CB 00 0F         rrc  (ix+0),a           ; 79FE DD CB 00 0F
08366   7A02 DD CB 00 0F         RRC  (IX+0),A           ; 7A02 DD CB 00 0F
08367   7A06 DD CB 7F 0F         rrc  (ix+127),a         ; 7A06 DD CB 7F 0F
08368   7A0A DD CB 7F 0F         RRC  (IX+127),A         ; 7A0A DD CB 7F 0F
08369   7A0E DD CB 80 08         rrc  (ix+-128),b        ; 7A0E DD CB 80 08
08370   7A12 DD CB 80 08         RRC  (IX+-128),B        ; 7A12 DD CB 80 08
08371   7A16 DD CB FF 08         rrc  (ix+-1),b          ; 7A16 DD CB FF 08
08372   7A1A DD CB FF 08         RRC  (IX+-1),B          ; 7A1A DD CB FF 08
08373   7A1E DD CB 00 08         rrc  (ix+0),b           ; 7A1E DD CB 00 08
08374   7A22 DD CB 00 08         RRC  (IX+0),B           ; 7A22 DD CB 00 08
08375   7A26 DD CB 7F 08         rrc  (ix+127),b         ; 7A26 DD CB 7F 08
08376   7A2A DD CB 7F 08         RRC  (IX+127),B         ; 7A2A DD CB 7F 08
08377   7A2E DD CB 80 09         rrc  (ix+-128),c        ; 7A2E DD CB 80 09
08378   7A32 DD CB 80 09         RRC  (IX+-128),C        ; 7A32 DD CB 80 09
08379   7A36 DD CB FF 09         rrc  (ix+-1),c          ; 7A36 DD CB FF 09
08380   7A3A DD CB FF 09         RRC  (IX+-1),C          ; 7A3A DD CB FF 09
08381   7A3E DD CB 00 09         rrc  (ix+0),c           ; 7A3E DD CB 00 09
08382   7A42 DD CB 00 09         RRC  (IX+0),C           ; 7A42 DD CB 00 09
08383   7A46 DD CB 7F 09         rrc  (ix+127),c         ; 7A46 DD CB 7F 09
08384   7A4A DD CB 7F 09         RRC  (IX+127),C         ; 7A4A DD CB 7F 09
08385   7A4E DD CB 80 0A         rrc  (ix+-128),d        ; 7A4E DD CB 80 0A
08386   7A52 DD CB 80 0A         RRC  (IX+-128),D        ; 7A52 DD CB 80 0A
08387   7A56 DD CB FF 0A         rrc  (ix+-1),d          ; 7A56 DD CB FF 0A
08388   7A5A DD CB FF 0A         RRC  (IX+-1),D          ; 7A5A DD CB FF 0A
08389   7A5E DD CB 00 0A         rrc  (ix+0),d           ; 7A5E DD CB 00 0A
08390   7A62 DD CB 00 0A         RRC  (IX+0),D           ; 7A62 DD CB 00 0A
08391   7A66 DD CB 7F 0A         rrc  (ix+127),d         ; 7A66 DD CB 7F 0A
08392   7A6A DD CB 7F 0A         RRC  (IX+127),D         ; 7A6A DD CB 7F 0A
08393   7A6E DD CB 80 0B         rrc  (ix+-128),e        ; 7A6E DD CB 80 0B
08394   7A72 DD CB 80 0B         RRC  (IX+-128),E        ; 7A72 DD CB 80 0B
08395   7A76 DD CB FF 0B         rrc  (ix+-1),e          ; 7A76 DD CB FF 0B
08396   7A7A DD CB FF 0B         RRC  (IX+-1),E          ; 7A7A DD CB FF 0B
08397   7A7E DD CB 00 0B         rrc  (ix+0),e           ; 7A7E DD CB 00 0B
08398   7A82 DD CB 00 0B         RRC  (IX+0),E           ; 7A82 DD CB 00 0B
08399   7A86 DD CB 7F 0B         rrc  (ix+127),e         ; 7A86 DD CB 7F 0B
08400   7A8A DD CB 7F 0B         RRC  (IX+127),E         ; 7A8A DD CB 7F 0B
08401   7A8E DD CB 80 0C         rrc  (ix+-128),h        ; 7A8E DD CB 80 0C
08402   7A92 DD CB 80 0C         RRC  (IX+-128),H        ; 7A92 DD CB 80 0C
08403   7A96 DD CB FF 0C         rrc  (ix+-1),h          ; 7A96 DD CB FF 0C
08404   7A9A DD CB FF 0C         RRC  (IX+-1),H          ; 7A9A DD CB FF 0C
08405   7A9E DD CB 00 0C         rrc  (ix+0),h           ; 7A9E DD CB 00 0C
08406   7AA2 DD CB 00 0C         RRC  (IX+0),H           ; 7AA2 DD CB 00 0C
08407   7AA6 DD CB 7F 0C         rrc  (ix+127),h         ; 7AA6 DD CB 7F 0C
08408   7AAA DD CB 7F 0C         RRC  (IX+127),H         ; 7AAA DD CB 7F 0C
08409   7AAE DD CB 80 0D         rrc  (ix+-128),l        ; 7AAE DD CB 80 0D
08410   7AB2 DD CB 80 0D         RRC  (IX+-128),L        ; 7AB2 DD CB 80 0D
08411   7AB6 DD CB FF 0D         rrc  (ix+-1),l          ; 7AB6 DD CB FF 0D
08412   7ABA DD CB FF 0D         RRC  (IX+-1),L          ; 7ABA DD CB FF 0D
08413   7ABE DD CB 00 0D         rrc  (ix+0),l           ; 7ABE DD CB 00 0D
08414   7AC2 DD CB 00 0D         RRC  (IX+0),L           ; 7AC2 DD CB 00 0D
08415   7AC6 DD CB 7F 0D         rrc  (ix+127),l         ; 7AC6 DD CB 7F 0D
08416   7ACA DD CB 7F 0D         RRC  (IX+127),L         ; 7ACA DD CB 7F 0D
08417   7ACE FD CB 80 0E         rrc  (iy+-128)          ; 7ACE FD CB 80 0E
08418   7AD2 FD CB 80 0E         RRC  (IY+-128)          ; 7AD2 FD CB 80 0E
08419   7AD6 FD CB FF 0E         rrc  (iy+-1)            ; 7AD6 FD CB FF 0E
08420   7ADA FD CB FF 0E         RRC  (IY+-1)            ; 7ADA FD CB FF 0E
08421   7ADE FD CB 00 0E         rrc  (iy+0)             ; 7ADE FD CB 00 0E
08422   7AE2 FD CB 00 0E         RRC  (IY+0)             ; 7AE2 FD CB 00 0E
08423   7AE6 FD CB 7F 0E         rrc  (iy+127)           ; 7AE6 FD CB 7F 0E
08424   7AEA FD CB 7F 0E         RRC  (IY+127)           ; 7AEA FD CB 7F 0E
08425   7AEE FD CB 80 0F         rrc  (iy+-128),a        ; 7AEE FD CB 80 0F
08426   7AF2 FD CB 80 0F         RRC  (IY+-128),A        ; 7AF2 FD CB 80 0F
08427   7AF6 FD CB FF 0F         rrc  (iy+-1),a          ; 7AF6 FD CB FF 0F
08428   7AFA FD CB FF 0F         RRC  (IY+-1),A          ; 7AFA FD CB FF 0F
08429   7AFE FD CB 00 0F         rrc  (iy+0),a           ; 7AFE FD CB 00 0F
08430   7B02 FD CB 00 0F         RRC  (IY+0),A           ; 7B02 FD CB 00 0F
08431   7B06 FD CB 7F 0F         rrc  (iy+127),a         ; 7B06 FD CB 7F 0F
08432   7B0A FD CB 7F 0F         RRC  (IY+127),A         ; 7B0A FD CB 7F 0F
08433   7B0E FD CB 80 08         rrc  (iy+-128),b        ; 7B0E FD CB 80 08
08434   7B12 FD CB 80 08         RRC  (IY+-128),B        ; 7B12 FD CB 80 08
08435   7B16 FD CB FF 08         rrc  (iy+-1),b          ; 7B16 FD CB FF 08
08436   7B1A FD CB FF 08         RRC  (IY+-1),B          ; 7B1A FD CB FF 08
08437   7B1E FD CB 00 08         rrc  (iy+0),b           ; 7B1E FD CB 00 08
08438   7B22 FD CB 00 08         RRC  (IY+0),B           ; 7B22 FD CB 00 08
08439   7B26 FD CB 7F 08         rrc  (iy+127),b         ; 7B26 FD CB 7F 08
08440   7B2A FD CB 7F 08         RRC  (IY+127),B         ; 7B2A FD CB 7F 08
08441   7B2E FD CB 80 09         rrc  (iy+-128),c        ; 7B2E FD CB 80 09
08442   7B32 FD CB 80 09         RRC  (IY+-128),C        ; 7B32 FD CB 80 09
08443   7B36 FD CB FF 09         rrc  (iy+-1),c          ; 7B36 FD CB FF 09
08444   7B3A FD CB FF 09         RRC  (IY+-1),C          ; 7B3A FD CB FF 09
08445   7B3E FD CB 00 09         rrc  (iy+0),c           ; 7B3E FD CB 00 09
08446   7B42 FD CB 00 09         RRC  (IY+0),C           ; 7B42 FD CB 00 09
08447   7B46 FD CB 7F 09         rrc  (iy+127),c         ; 7B46 FD CB 7F 09
08448   7B4A FD CB 7F 09         RRC  (IY+127),C         ; 7B4A FD CB 7F 09
08449   7B4E FD CB 80 0A         rrc  (iy+-128),d        ; 7B4E FD CB 80 0A
08450   7B52 FD CB 80 0A         RRC  (IY+-128),D        ; 7B52 FD CB 80 0A
08451   7B56 FD CB FF 0A         rrc  (iy+-1),d          ; 7B56 FD CB FF 0A
08452   7B5A FD CB FF 0A         RRC  (IY+-1),D          ; 7B5A FD CB FF 0A
08453   7B5E FD CB 00 0A         rrc  (iy+0),d           ; 7B5E FD CB 00 0A
08454   7B62 FD CB 00 0A         RRC  (IY+0),D           ; 7B62 FD CB 00 0A
08455   7B66 FD CB 7F 0A         rrc  (iy+127),d         ; 7B66 FD CB 7F 0A
08456   7B6A FD CB 7F 0A         RRC  (IY+127),D         ; 7B6A FD CB 7F 0A
08457   7B6E FD CB 80 0B         rrc  (iy+-128),e        ; 7B6E FD CB 80 0B
08458   7B72 FD CB 80 0B         RRC  (IY+-128),E        ; 7B72 FD CB 80 0B
08459   7B76 FD CB FF 0B         rrc  (iy+-1),e          ; 7B76 FD CB FF 0B
08460   7B7A FD CB FF 0B         RRC  (IY+-1),E          ; 7B7A FD CB FF 0B
08461   7B7E FD CB 00 0B         rrc  (iy+0),e           ; 7B7E FD CB 00 0B
08462   7B82 FD CB 00 0B         RRC  (IY+0),E           ; 7B82 FD CB 00 0B
08463   7B86 FD CB 7F 0B         rrc  (iy+127),e         ; 7B86 FD CB 7F 0B
08464   7B8A FD CB 7F 0B         RRC  (IY+127),E         ; 7B8A FD CB 7F 0B
08465   7B8E FD CB 80 0C         rrc  (iy+-128),h        ; 7B8E FD CB 80 0C
08466   7B92 FD CB 80 0C         RRC  (IY+-128),H        ; 7B92 FD CB 80 0C
08467   7B96 FD CB FF 0C         rrc  (iy+-1),h          ; 7B96 FD CB FF 0C
08468   7B9A FD CB FF 0C         RRC  (IY+-1),H          ; 7B9A FD CB FF 0C
08469   7B9E FD CB 00 0C         rrc  (iy+0),h           ; 7B9E FD CB 00 0C
08470   7BA2 FD CB 00 0C         RRC  (IY+0),H           ; 7BA2 FD CB 00 0C
08471   7BA6 FD CB 7F 0C         rrc  (iy+127),h         ; 7BA6 FD CB 7F 0C
08472   7BAA FD CB 7F 0C         RRC  (IY+127),H         ; 7BAA FD CB 7F 0C
08473   7BAE FD CB 80 0D         rrc  (iy+-128),l        ; 7BAE FD CB 80 0D
08474   7BB2 FD CB 80 0D         RRC  (IY+-128),L        ; 7BB2 FD CB 80 0D
08475   7BB6 FD CB FF 0D         rrc  (iy+-1),l          ; 7BB6 FD CB FF 0D
08476   7BBA FD CB FF 0D         RRC  (IY+-1),L          ; 7BBA FD CB FF 0D
08477   7BBE FD CB 00 0D         rrc  (iy+0),l           ; 7BBE FD CB 00 0D
08478   7BC2 FD CB 00 0D         RRC  (IY+0),L           ; 7BC2 FD CB 00 0D
08479   7BC6 FD CB 7F 0D         rrc  (iy+127),l         ; 7BC6 FD CB 7F 0D
08480   7BCA FD CB 7F 0D         RRC  (IY+127),L         ; 7BCA FD CB 7F 0D
08481   7BCE CB 0E               rrc  [hl]               ; 7BCE CB 0E
08482   7BD0 CB 0E               RRC  [HL]               ; 7BD0 CB 0E
08483   7BD2 DD CB 80 0E         rrc  [ix+-128]          ; 7BD2 DD CB 80 0E
08484   7BD6 DD CB 80 0E         RRC  [IX+-128]          ; 7BD6 DD CB 80 0E
08485   7BDA DD CB FF 0E         rrc  [ix+-1]            ; 7BDA DD CB FF 0E
08486   7BDE DD CB FF 0E         RRC  [IX+-1]            ; 7BDE DD CB FF 0E
08487   7BE2 DD CB 00 0E         rrc  [ix+0]             ; 7BE2 DD CB 00 0E
08488   7BE6 DD CB 00 0E         RRC  [IX+0]             ; 7BE6 DD CB 00 0E
08489   7BEA DD CB 7F 0E         rrc  [ix+127]           ; 7BEA DD CB 7F 0E
08490   7BEE DD CB 7F 0E         RRC  [IX+127]           ; 7BEE DD CB 7F 0E
08491   7BF2 DD CB 80 0F         rrc  [ix+-128],a        ; 7BF2 DD CB 80 0F
08492   7BF6 DD CB 80 0F         RRC  [IX+-128],A        ; 7BF6 DD CB 80 0F
08493   7BFA DD CB FF 0F         rrc  [ix+-1],a          ; 7BFA DD CB FF 0F
08494   7BFE DD CB FF 0F         RRC  [IX+-1],A          ; 7BFE DD CB FF 0F
08495   7C02 DD CB 00 0F         rrc  [ix+0],a           ; 7C02 DD CB 00 0F
08496   7C06 DD CB 00 0F         RRC  [IX+0],A           ; 7C06 DD CB 00 0F
08497   7C0A DD CB 7F 0F         rrc  [ix+127],a         ; 7C0A DD CB 7F 0F
08498   7C0E DD CB 7F 0F         RRC  [IX+127],A         ; 7C0E DD CB 7F 0F
08499   7C12 DD CB 80 08         rrc  [ix+-128],b        ; 7C12 DD CB 80 08
08500   7C16 DD CB 80 08         RRC  [IX+-128],B        ; 7C16 DD CB 80 08
08501   7C1A DD CB FF 08         rrc  [ix+-1],b          ; 7C1A DD CB FF 08
08502   7C1E DD CB FF 08         RRC  [IX+-1],B          ; 7C1E DD CB FF 08
08503   7C22 DD CB 00 08         rrc  [ix+0],b           ; 7C22 DD CB 00 08
08504   7C26 DD CB 00 08         RRC  [IX+0],B           ; 7C26 DD CB 00 08
08505   7C2A DD CB 7F 08         rrc  [ix+127],b         ; 7C2A DD CB 7F 08
08506   7C2E DD CB 7F 08         RRC  [IX+127],B         ; 7C2E DD CB 7F 08
08507   7C32 DD CB 80 09         rrc  [ix+-128],c        ; 7C32 DD CB 80 09
08508   7C36 DD CB 80 09         RRC  [IX+-128],C        ; 7C36 DD CB 80 09
08509   7C3A DD CB FF 09         rrc  [ix+-1],c          ; 7C3A DD CB FF 09
08510   7C3E DD CB FF 09         RRC  [IX+-1],C          ; 7C3E DD CB FF 09
08511   7C42 DD CB 00 09         rrc  [ix+0],c           ; 7C42 DD CB 00 09
08512   7C46 DD CB 00 09         RRC  [IX+0],C           ; 7C46 DD CB 00 09
08513   7C4A DD CB 7F 09         rrc  [ix+127],c         ; 7C4A DD CB 7F 09
08514   7C4E DD CB 7F 09         RRC  [IX+127],C         ; 7C4E DD CB 7F 09
08515   7C52 DD CB 80 0A         rrc  [ix+-128],d        ; 7C52 DD CB 80 0A
08516   7C56 DD CB 80 0A         RRC  [IX+-128],D        ; 7C56 DD CB 80 0A
08517   7C5A DD CB FF 0A         rrc  [ix+-1],d          ; 7C5A DD CB FF 0A
08518   7C5E DD CB FF 0A         RRC  [IX+-1],D          ; 7C5E DD CB FF 0A
08519   7C62 DD CB 00 0A         rrc  [ix+0],d           ; 7C62 DD CB 00 0A
08520   7C66 DD CB 00 0A         RRC  [IX+0],D           ; 7C66 DD CB 00 0A
08521   7C6A DD CB 7F 0A         rrc  [ix+127],d         ; 7C6A DD CB 7F 0A
08522   7C6E DD CB 7F 0A         RRC  [IX+127],D         ; 7C6E DD CB 7F 0A
08523   7C72 DD CB 80 0B         rrc  [ix+-128],e        ; 7C72 DD CB 80 0B
08524   7C76 DD CB 80 0B         RRC  [IX+-128],E        ; 7C76 DD CB 80 0B
08525   7C7A DD CB FF 0B         rrc  [ix+-1],e          ; 7C7A DD CB FF 0B
08526   7C7E DD CB FF 0B         RRC  [IX+-1],E          ; 7C7E DD CB FF 0B
08527   7C82 DD CB 00 0B         rrc  [ix+0],e           ; 7C82 DD CB 00 0B
08528   7C86 DD CB 00 0B         RRC  [IX+0],E           ; 7C86 DD CB 00 0B
08529   7C8A DD CB 7F 0B         rrc  [ix+127],e         ; 7C8A DD CB 7F 0B
08530   7C8E DD CB 7F 0B         RRC  [IX+127],E         ; 7C8E DD CB 7F 0B
08531   7C92 DD CB 80 0C         rrc  [ix+-128],h        ; 7C92 DD CB 80 0C
08532   7C96 DD CB 80 0C         RRC  [IX+-128],H        ; 7C96 DD CB 80 0C
08533   7C9A DD CB FF 0C         rrc  [ix+-1],h          ; 7C9A DD CB FF 0C
08534   7C9E DD CB FF 0C         RRC  [IX+-1],H          ; 7C9E DD CB FF 0C
08535   7CA2 DD CB 00 0C         rrc  [ix+0],h           ; 7CA2 DD CB 00 0C
08536   7CA6 DD CB 00 0C         RRC  [IX+0],H           ; 7CA6 DD CB 00 0C
08537   7CAA DD CB 7F 0C         rrc  [ix+127],h         ; 7CAA DD CB 7F 0C
08538   7CAE DD CB 7F 0C         RRC  [IX+127],H         ; 7CAE DD CB 7F 0C
08539   7CB2 DD CB 80 0D         rrc  [ix+-128],l        ; 7CB2 DD CB 80 0D
08540   7CB6 DD CB 80 0D         RRC  [IX+-128],L        ; 7CB6 DD CB 80 0D
08541   7CBA DD CB FF 0D         rrc  [ix+-1],l          ; 7CBA DD CB FF 0D
08542   7CBE DD CB FF 0D         RRC  [IX+-1],L          ; 7CBE DD CB FF 0D
08543   7CC2 DD CB 00 0D         rrc  [ix+0],l           ; 7CC2 DD CB 00 0D
08544   7CC6 DD CB 00 0D         RRC  [IX+0],L           ; 7CC6 DD CB 00 0D
08545   7CCA DD CB 7F 0D         rrc  [ix+127],l         ; 7CCA DD CB 7F 0D
08546   7CCE DD CB 7F 0D         RRC  [IX+127],L         ; 7CCE DD CB 7F 0D
08547   7CD2 FD CB 80 0E         rrc  [iy+-128]          ; 7CD2 FD CB 80 0E
08548   7CD6 FD CB 80 0E         RRC  [IY+-128]          ; 7CD6 FD CB 80 0E
08549   7CDA FD CB FF 0E         rrc  [iy+-1]            ; 7CDA FD CB FF 0E
08550   7CDE FD CB FF 0E         RRC  [IY+-1]            ; 7CDE FD CB FF 0E
08551   7CE2 FD CB 00 0E         rrc  [iy+0]             ; 7CE2 FD CB 00 0E
08552   7CE6 FD CB 00 0E         RRC  [IY+0]             ; 7CE6 FD CB 00 0E
08553   7CEA FD CB 7F 0E         rrc  [iy+127]           ; 7CEA FD CB 7F 0E
08554   7CEE FD CB 7F 0E         RRC  [IY+127]           ; 7CEE FD CB 7F 0E
08555   7CF2 FD CB 80 0F         rrc  [iy+-128],a        ; 7CF2 FD CB 80 0F
08556   7CF6 FD CB 80 0F         RRC  [IY+-128],A        ; 7CF6 FD CB 80 0F
08557   7CFA FD CB FF 0F         rrc  [iy+-1],a          ; 7CFA FD CB FF 0F
08558   7CFE FD CB FF 0F         RRC  [IY+-1],A          ; 7CFE FD CB FF 0F
08559   7D02 FD CB 00 0F         rrc  [iy+0],a           ; 7D02 FD CB 00 0F
08560   7D06 FD CB 00 0F         RRC  [IY+0],A           ; 7D06 FD CB 00 0F
08561   7D0A FD CB 7F 0F         rrc  [iy+127],a         ; 7D0A FD CB 7F 0F
08562   7D0E FD CB 7F 0F         RRC  [IY+127],A         ; 7D0E FD CB 7F 0F
08563   7D12 FD CB 80 08         rrc  [iy+-128],b        ; 7D12 FD CB 80 08
08564   7D16 FD CB 80 08         RRC  [IY+-128],B        ; 7D16 FD CB 80 08
08565   7D1A FD CB FF 08         rrc  [iy+-1],b          ; 7D1A FD CB FF 08
08566   7D1E FD CB FF 08         RRC  [IY+-1],B          ; 7D1E FD CB FF 08
08567   7D22 FD CB 00 08         rrc  [iy+0],b           ; 7D22 FD CB 00 08
08568   7D26 FD CB 00 08         RRC  [IY+0],B           ; 7D26 FD CB 00 08
08569   7D2A FD CB 7F 08         rrc  [iy+127],b         ; 7D2A FD CB 7F 08
08570   7D2E FD CB 7F 08         RRC  [IY+127],B         ; 7D2E FD CB 7F 08
08571   7D32 FD CB 80 09         rrc  [iy+-128],c        ; 7D32 FD CB 80 09
08572   7D36 FD CB 80 09         RRC  [IY+-128],C        ; 7D36 FD CB 80 09
08573   7D3A FD CB FF 09         rrc  [iy+-1],c          ; 7D3A FD CB FF 09
08574   7D3E FD CB FF 09         RRC  [IY+-1],C          ; 7D3E FD CB FF 09
08575   7D42 FD CB 00 09         rrc  [iy+0],c           ; 7D42 FD CB 00 09
08576   7D46 FD CB 00 09         RRC  [IY+0],C           ; 7D46 FD CB 00 09
08577   7D4A FD CB 7F 09         rrc  [iy+127],c         ; 7D4A FD CB 7F 09
08578   7D4E FD CB 7F 09         RRC  [IY+127],C         ; 7D4E FD CB 7F 09
08579   7D52 FD CB 80 0A         rrc  [iy+-128],d        ; 7D52 FD CB 80 0A
08580   7D56 FD CB 80 0A         RRC  [IY+-128],D        ; 7D56 FD CB 80 0A
08581   7D5A FD CB FF 0A         rrc  [iy+-1],d          ; 7D5A FD CB FF 0A
08582   7D5E FD CB FF 0A         RRC  [IY+-1],D          ; 7D5E FD CB FF 0A
08583   7D62 FD CB 00 0A         rrc  [iy+0],d           ; 7D62 FD CB 00 0A
08584   7D66 FD CB 00 0A         RRC  [IY+0],D           ; 7D66 FD CB 00 0A
08585   7D6A FD CB 7F 0A         rrc  [iy+127],d         ; 7D6A FD CB 7F 0A
08586   7D6E FD CB 7F 0A         RRC  [IY+127],D         ; 7D6E FD CB 7F 0A
08587   7D72 FD CB 80 0B         rrc  [iy+-128],e        ; 7D72 FD CB 80 0B
08588   7D76 FD CB 80 0B         RRC  [IY+-128],E        ; 7D76 FD CB 80 0B
08589   7D7A FD CB FF 0B         rrc  [iy+-1],e          ; 7D7A FD CB FF 0B
08590   7D7E FD CB FF 0B         RRC  [IY+-1],E          ; 7D7E FD CB FF 0B
08591   7D82 FD CB 00 0B         rrc  [iy+0],e           ; 7D82 FD CB 00 0B
08592   7D86 FD CB 00 0B         RRC  [IY+0],E           ; 7D86 FD CB 00 0B
08593   7D8A FD CB 7F 0B         rrc  [iy+127],e         ; 7D8A FD CB 7F 0B
08594   7D8E FD CB 7F 0B         RRC  [IY+127],E         ; 7D8E FD CB 7F 0B
08595   7D92 FD CB 80 0C         rrc  [iy+-128],h        ; 7D92 FD CB 80 0C
08596   7D96 FD CB 80 0C         RRC  [IY+-128],H        ; 7D96 FD CB 80 0C
08597   7D9A FD CB FF 0C         rrc  [iy+-1],h          ; 7D9A FD CB FF 0C
08598   7D9E FD CB FF 0C         RRC  [IY+-1],H          ; 7D9E FD CB FF 0C
08599   7DA2 FD CB 00 0C         rrc  [iy+0],h           ; 7DA2 FD CB 00 0C
08600   7DA6 FD CB 00 0C         RRC  [IY+0],H           ; 7DA6 FD CB 00 0C
08601   7DAA FD CB 7F 0C         rrc  [iy+127],h         ; 7DAA FD CB 7F 0C
08602   7DAE FD CB 7F 0C         RRC  [IY+127],H         ; 7DAE FD CB 7F 0C
08603   7DB2 FD CB 80 0D         rrc  [iy+-128],l        ; 7DB2 FD CB 80 0D
08604   7DB6 FD CB 80 0D         RRC  [IY+-128],L        ; 7DB6 FD CB 80 0D
08605   7DBA FD CB FF 0D         rrc  [iy+-1],l          ; 7DBA FD CB FF 0D
08606   7DBE FD CB FF 0D         RRC  [IY+-1],L          ; 7DBE FD CB FF 0D
08607   7DC2 FD CB 00 0D         rrc  [iy+0],l           ; 7DC2 FD CB 00 0D
08608   7DC6 FD CB 00 0D         RRC  [IY+0],L           ; 7DC6 FD CB 00 0D
08609   7DCA FD CB 7F 0D         rrc  [iy+127],l         ; 7DCA FD CB 7F 0D
08610   7DCE FD CB 7F 0D         RRC  [IY+127],L         ; 7DCE FD CB 7F 0D
08611   7DD2 CB 0F               rrc  a                  ; 7DD2 CB 0F
08612   7DD4 CB 0F               RRC  A                  ; 7DD4 CB 0F
08613   7DD6 CB 08               rrc  b                  ; 7DD6 CB 08
08614   7DD8 CB 08               RRC  B                  ; 7DD8 CB 08
08615   7DDA CB 09               rrc  c                  ; 7DDA CB 09
08616   7DDC CB 09               RRC  C                  ; 7DDC CB 09
08617   7DDE CB 0A               rrc  d                  ; 7DDE CB 0A
08618   7DE0 CB 0A               RRC  D                  ; 7DE0 CB 0A
08619   7DE2 CB 0B               rrc  e                  ; 7DE2 CB 0B
08620   7DE4 CB 0B               RRC  E                  ; 7DE4 CB 0B
08621   7DE6 CB 0C               rrc  h                  ; 7DE6 CB 0C
08622   7DE8 CB 0C               RRC  H                  ; 7DE8 CB 0C
08623   7DEA CB 0D               rrc  l                  ; 7DEA CB 0D
08624   7DEC CB 0D               RRC  L                  ; 7DEC CB 0D
08625   7DEE 0F                  rrca                    ; 7DEE 0F
08626   7DEF 0F                  RRCA                    ; 7DEF 0F
08627   7DF0 ED 67               rrd                     ; 7DF0 ED 67
08628   7DF2 ED 67               RRD                     ; 7DF2 ED 67
08629   7DF4 C7                  rst  0                  ; 7DF4 C7
08630   7DF5 C7                  RST  0                  ; 7DF5 C7
08631   7DF6 CF                  rst  1                  ; 7DF6 CF
08632   7DF7 CF                  RST  1                  ; 7DF7 CF
08633   7DF8 D7                  rst  16                 ; 7DF8 D7
08634   7DF9 D7                  RST  16                 ; 7DF9 D7
08635   7DFA D7                  rst  2                  ; 7DFA D7
08636   7DFB D7                  RST  2                  ; 7DFB D7
08637   7DFC DF                  rst  24                 ; 7DFC DF
08638   7DFD DF                  RST  24                 ; 7DFD DF
08639   7DFE DF                  rst  3                  ; 7DFE DF
08640   7DFF DF                  RST  3                  ; 7DFF DF
08641   7E00 E7                  rst  32                 ; 7E00 E7
08642   7E01 E7                  RST  32                 ; 7E01 E7
08643   7E02 E7                  rst  4                  ; 7E02 E7
08644   7E03 E7                  RST  4                  ; 7E03 E7
08645   7E04 EF                  rst  40                 ; 7E04 EF
08646   7E05 EF                  RST  40                 ; 7E05 EF
08647   7E06 F7                  rst  48                 ; 7E06 F7
08648   7E07 F7                  RST  48                 ; 7E07 F7
08649   7E08 EF                  rst  5                  ; 7E08 EF
08650   7E09 EF                  RST  5                  ; 7E09 EF
08651   7E0A FF                  rst  56                 ; 7E0A FF
08652   7E0B FF                  RST  56                 ; 7E0B FF
08653   7E0C F7                  rst  6                  ; 7E0C F7
08654   7E0D F7                  RST  6                  ; 7E0D F7
08655   7E0E FF                  rst  7                  ; 7E0E FF
08656   7E0F FF                  RST  7                  ; 7E0F FF
08657   7E10 CF                  rst  8                  ; 7E10 CF
08658   7E11 CF                  RST  8                  ; 7E11 CF
08659   7E12 9E                  sbc  a,(hl)             ; 7E12 9E
08660   7E13 9E                  SBC  A,(HL)             ; 7E13 9E
08661   7E14 DD 9E 80            sbc  a,(ix+-128)        ; 7E14 DD 9E 80
08662   7E17 DD 9E 80            SBC  A,(IX+-128)        ; 7E17 DD 9E 80
08663   7E1A DD 9E FF            sbc  a,(ix+-1)          ; 7E1A DD 9E FF
08664   7E1D DD 9E FF            SBC  A,(IX+-1)          ; 7E1D DD 9E FF
08665   7E20 DD 9E 00            sbc  a,(ix+0)           ; 7E20 DD 9E 00
08666   7E23 DD 9E 00            SBC  A,(IX+0)           ; 7E23 DD 9E 00
08667   7E26 DD 9E 7F            sbc  a,(ix+127)         ; 7E26 DD 9E 7F
08668   7E29 DD 9E 7F            SBC  A,(IX+127)         ; 7E29 DD 9E 7F
08669   7E2C FD 9E 80            sbc  a,(iy+-128)        ; 7E2C FD 9E 80
08670   7E2F FD 9E 80            SBC  A,(IY+-128)        ; 7E2F FD 9E 80
08671   7E32 FD 9E FF            sbc  a,(iy+-1)          ; 7E32 FD 9E FF
08672   7E35 FD 9E FF            SBC  A,(IY+-1)          ; 7E35 FD 9E FF
08673   7E38 FD 9E 00            sbc  a,(iy+0)           ; 7E38 FD 9E 00
08674   7E3B FD 9E 00            SBC  A,(IY+0)           ; 7E3B FD 9E 00
08675   7E3E FD 9E 7F            sbc  a,(iy+127)         ; 7E3E FD 9E 7F
08676   7E41 FD 9E 7F            SBC  A,(IY+127)         ; 7E41 FD 9E 7F
08677   7E44 DE 80               sbc  a,-128             ; 7E44 DE 80
08678   7E46 DE 80               SBC  A,-128             ; 7E46 DE 80
08679   7E48 DE FF               sbc  a,-1               ; 7E48 DE FF
08680   7E4A DE FF               SBC  A,-1               ; 7E4A DE FF
08681   7E4C DE 00               sbc  a,0                ; 7E4C DE 00
08682   7E4E DE 00               SBC  A,0                ; 7E4E DE 00
08683   7E50 DE 7F               sbc  a,127              ; 7E50 DE 7F
08684   7E52 DE 7F               SBC  A,127              ; 7E52 DE 7F
08685   7E54 DE FF               sbc  a,255              ; 7E54 DE FF
08686   7E56 DE FF               SBC  A,255              ; 7E56 DE FF
08687   7E58 9E                  sbc  a,[hl]             ; 7E58 9E
08688   7E59 9E                  SBC  A,[HL]             ; 7E59 9E
08689   7E5A DD 9E 80            sbc  a,[ix+-128]        ; 7E5A DD 9E 80
08690   7E5D DD 9E 80            SBC  A,[IX+-128]        ; 7E5D DD 9E 80
08691   7E60 DD 9E FF            sbc  a,[ix+-1]          ; 7E60 DD 9E FF
08692   7E63 DD 9E FF            SBC  A,[IX+-1]          ; 7E63 DD 9E FF
08693   7E66 DD 9E 00            sbc  a,[ix+0]           ; 7E66 DD 9E 00
08694   7E69 DD 9E 00            SBC  A,[IX+0]           ; 7E69 DD 9E 00
08695   7E6C DD 9E 7F            sbc  a,[ix+127]         ; 7E6C DD 9E 7F
08696   7E6F DD 9E 7F            SBC  A,[IX+127]         ; 7E6F DD 9E 7F
08697   7E72 FD 9E 80            sbc  a,[iy+-128]        ; 7E72 FD 9E 80
08698   7E75 FD 9E 80            SBC  A,[IY+-128]        ; 7E75 FD 9E 80
08699   7E78 FD 9E FF            sbc  a,[iy+-1]          ; 7E78 FD 9E FF
08700   7E7B FD 9E FF            SBC  A,[IY+-1]          ; 7E7B FD 9E FF
08701   7E7E FD 9E 00            sbc  a,[iy+0]           ; 7E7E FD 9E 00
08702   7E81 FD 9E 00            SBC  A,[IY+0]           ; 7E81 FD 9E 00
08703   7E84 FD 9E 7F            sbc  a,[iy+127]         ; 7E84 FD 9E 7F
08704   7E87 FD 9E 7F            SBC  A,[IY+127]         ; 7E87 FD 9E 7F
08705   7E8A 9F                  sbc  a,a                ; 7E8A 9F
08706   7E8B 9F                  SBC  A,A                ; 7E8B 9F
08707   7E8C 98                  sbc  a,b                ; 7E8C 98
08708   7E8D 98                  SBC  A,B                ; 7E8D 98
08709   7E8E 99                  sbc  a,c                ; 7E8E 99
08710   7E8F 99                  SBC  A,C                ; 7E8F 99
08711   7E90 9A                  sbc  a,d                ; 7E90 9A
08712   7E91 9A                  SBC  A,D                ; 7E91 9A
08713   7E92 9B                  sbc  a,e                ; 7E92 9B
08714   7E93 9B                  SBC  A,E                ; 7E93 9B
08715   7E94 9C                  sbc  a,h                ; 7E94 9C
08716   7E95 9C                  SBC  A,H                ; 7E95 9C
08717   7E96 DD 9C               sbc  a,hx               ; 7E96 DD 9C
08718   7E98 DD 9C               SBC  A,HX               ; 7E98 DD 9C
08719   7E9A FD 9C               sbc  a,hy               ; 7E9A FD 9C
08720   7E9C FD 9C               SBC  A,HY               ; 7E9C FD 9C
08721   7E9E DD 9C               sbc  a,ixh              ; 7E9E DD 9C
08722   7EA0 DD 9C               SBC  A,IXH              ; 7EA0 DD 9C
08723   7EA2 DD 9D               sbc  a,ixl              ; 7EA2 DD 9D
08724   7EA4 DD 9D               SBC  A,IXL              ; 7EA4 DD 9D
08725   7EA6 FD 9C               sbc  a,iyh              ; 7EA6 FD 9C
08726   7EA8 FD 9C               SBC  A,IYH              ; 7EA8 FD 9C
08727   7EAA FD 9D               sbc  a,iyl              ; 7EAA FD 9D
08728   7EAC FD 9D               SBC  A,IYL              ; 7EAC FD 9D
08729   7EAE 9D                  sbc  a,l                ; 7EAE 9D
08730   7EAF 9D                  SBC  A,L                ; 7EAF 9D
08731   7EB0 DD 9D               sbc  a,lx               ; 7EB0 DD 9D
08732   7EB2 DD 9D               SBC  A,LX               ; 7EB2 DD 9D
08733   7EB4 FD 9D               sbc  a,ly               ; 7EB4 FD 9D
08734   7EB6 FD 9D               SBC  A,LY               ; 7EB6 FD 9D
08735   7EB8 DD 9C               sbc  a,xh               ; 7EB8 DD 9C
08736   7EBA DD 9C               SBC  A,XH               ; 7EBA DD 9C
08737   7EBC DD 9D               sbc  a,xl               ; 7EBC DD 9D
08738   7EBE DD 9D               SBC  A,XL               ; 7EBE DD 9D
08739   7EC0 FD 9C               sbc  a,yh               ; 7EC0 FD 9C
08740   7EC2 FD 9C               SBC  A,YH               ; 7EC2 FD 9C
08741   7EC4 FD 9D               sbc  a,yl               ; 7EC4 FD 9D
08742   7EC6 FD 9D               SBC  A,YL               ; 7EC6 FD 9D
08743   7EC8 ED 42               sbc  hl,bc              ; 7EC8 ED 42
08744   7ECA ED 42               SBC  HL,BC              ; 7ECA ED 42
08745   7ECC ED 52               sbc  hl,de              ; 7ECC ED 52
08746   7ECE ED 52               SBC  HL,DE              ; 7ECE ED 52
08747   7ED0 ED 62               sbc  hl,hl              ; 7ED0 ED 62
08748   7ED2 ED 62               SBC  HL,HL              ; 7ED2 ED 62
08749   7ED4 ED 72               sbc  hl,sp              ; 7ED4 ED 72
08750   7ED6 ED 72               SBC  HL,SP              ; 7ED6 ED 72
08751   7ED8 37                  scf                     ; 7ED8 37
08752   7ED9 37                  SCF                     ; 7ED9 37
08753   7EDA CB C6               set  0,(hl)             ; 7EDA CB C6
08754   7EDC CB C6               SET  0,(HL)             ; 7EDC CB C6
08755   7EDE DD CB 80 C6         set  0,(ix+-128)        ; 7EDE DD CB 80 C6
08756   7EE2 DD CB 80 C6         SET  0,(IX+-128)        ; 7EE2 DD CB 80 C6
08757   7EE6 DD CB FF C6         set  0,(ix+-1)          ; 7EE6 DD CB FF C6
08758   7EEA DD CB FF C6         SET  0,(IX+-1)          ; 7EEA DD CB FF C6
08759   7EEE DD CB 00 C6         set  0,(ix+0)           ; 7EEE DD CB 00 C6
08760   7EF2 DD CB 00 C6         SET  0,(IX+0)           ; 7EF2 DD CB 00 C6
08761   7EF6 DD CB 7F C6         set  0,(ix+127)         ; 7EF6 DD CB 7F C6
08762   7EFA DD CB 7F C6         SET  0,(IX+127)         ; 7EFA DD CB 7F C6
08763   7EFE DD CB 80 C7         set  0,(ix+-128),a      ; 7EFE DD CB 80 C7
08764   7F02 DD CB 80 C7         SET  0,(IX+-128),A      ; 7F02 DD CB 80 C7
08765   7F06 DD CB FF C7         set  0,(ix+-1),a        ; 7F06 DD CB FF C7
08766   7F0A DD CB FF C7         SET  0,(IX+-1),A        ; 7F0A DD CB FF C7
08767   7F0E DD CB 00 C7         set  0,(ix+0),a         ; 7F0E DD CB 00 C7
08768   7F12 DD CB 00 C7         SET  0,(IX+0),A         ; 7F12 DD CB 00 C7
08769   7F16 DD CB 7F C7         set  0,(ix+127),a       ; 7F16 DD CB 7F C7
08770   7F1A DD CB 7F C7         SET  0,(IX+127),A       ; 7F1A DD CB 7F C7
08771   7F1E DD CB 80 C0         set  0,(ix+-128),b      ; 7F1E DD CB 80 C0
08772   7F22 DD CB 80 C0         SET  0,(IX+-128),B      ; 7F22 DD CB 80 C0
08773   7F26 DD CB FF C0         set  0,(ix+-1),b        ; 7F26 DD CB FF C0
08774   7F2A DD CB FF C0         SET  0,(IX+-1),B        ; 7F2A DD CB FF C0
08775   7F2E DD CB 00 C0         set  0,(ix+0),b         ; 7F2E DD CB 00 C0
08776   7F32 DD CB 00 C0         SET  0,(IX+0),B         ; 7F32 DD CB 00 C0
08777   7F36 DD CB 7F C0         set  0,(ix+127),b       ; 7F36 DD CB 7F C0
08778   7F3A DD CB 7F C0         SET  0,(IX+127),B       ; 7F3A DD CB 7F C0
08779   7F3E DD CB 80 C1         set  0,(ix+-128),c      ; 7F3E DD CB 80 C1
08780   7F42 DD CB 80 C1         SET  0,(IX+-128),C      ; 7F42 DD CB 80 C1
08781   7F46 DD CB FF C1         set  0,(ix+-1),c        ; 7F46 DD CB FF C1
08782   7F4A DD CB FF C1         SET  0,(IX+-1),C        ; 7F4A DD CB FF C1
08783   7F4E DD CB 00 C1         set  0,(ix+0),c         ; 7F4E DD CB 00 C1
08784   7F52 DD CB 00 C1         SET  0,(IX+0),C         ; 7F52 DD CB 00 C1
08785   7F56 DD CB 7F C1         set  0,(ix+127),c       ; 7F56 DD CB 7F C1
08786   7F5A DD CB 7F C1         SET  0,(IX+127),C       ; 7F5A DD CB 7F C1
08787   7F5E DD CB 80 C2         set  0,(ix+-128),d      ; 7F5E DD CB 80 C2
08788   7F62 DD CB 80 C2         SET  0,(IX+-128),D      ; 7F62 DD CB 80 C2
08789   7F66 DD CB FF C2         set  0,(ix+-1),d        ; 7F66 DD CB FF C2
08790   7F6A DD CB FF C2         SET  0,(IX+-1),D        ; 7F6A DD CB FF C2
08791   7F6E DD CB 00 C2         set  0,(ix+0),d         ; 7F6E DD CB 00 C2
08792   7F72 DD CB 00 C2         SET  0,(IX+0),D         ; 7F72 DD CB 00 C2
08793   7F76 DD CB 7F C2         set  0,(ix+127),d       ; 7F76 DD CB 7F C2
08794   7F7A DD CB 7F C2         SET  0,(IX+127),D       ; 7F7A DD CB 7F C2
08795   7F7E DD CB 80 C3         set  0,(ix+-128),e      ; 7F7E DD CB 80 C3
08796   7F82 DD CB 80 C3         SET  0,(IX+-128),E      ; 7F82 DD CB 80 C3
08797   7F86 DD CB FF C3         set  0,(ix+-1),e        ; 7F86 DD CB FF C3
08798   7F8A DD CB FF C3         SET  0,(IX+-1),E        ; 7F8A DD CB FF C3
08799   7F8E DD CB 00 C3         set  0,(ix+0),e         ; 7F8E DD CB 00 C3
08800   7F92 DD CB 00 C3         SET  0,(IX+0),E         ; 7F92 DD CB 00 C3
08801   7F96 DD CB 7F C3         set  0,(ix+127),e       ; 7F96 DD CB 7F C3
08802   7F9A DD CB 7F C3         SET  0,(IX+127),E       ; 7F9A DD CB 7F C3
08803   7F9E DD CB 80 C4         set  0,(ix+-128),h      ; 7F9E DD CB 80 C4
08804   7FA2 DD CB 80 C4         SET  0,(IX+-128),H      ; 7FA2 DD CB 80 C4
08805   7FA6 DD CB FF C4         set  0,(ix+-1),h        ; 7FA6 DD CB FF C4
08806   7FAA DD CB FF C4         SET  0,(IX+-1),H        ; 7FAA DD CB FF C4
08807   7FAE DD CB 00 C4         set  0,(ix+0),h         ; 7FAE DD CB 00 C4
08808   7FB2 DD CB 00 C4         SET  0,(IX+0),H         ; 7FB2 DD CB 00 C4
08809   7FB6 DD CB 7F C4         set  0,(ix+127),h       ; 7FB6 DD CB 7F C4
08810   7FBA DD CB 7F C4         SET  0,(IX+127),H       ; 7FBA DD CB 7F C4
08811   7FBE DD CB 80 C5         set  0,(ix+-128),l      ; 7FBE DD CB 80 C5
08812   7FC2 DD CB 80 C5         SET  0,(IX+-128),L      ; 7FC2 DD CB 80 C5
08813   7FC6 DD CB FF C5         set  0,(ix+-1),l        ; 7FC6 DD CB FF C5
08814   7FCA DD CB FF C5         SET  0,(IX+-1),L        ; 7FCA DD CB FF C5
08815   7FCE DD CB 00 C5         set  0,(ix+0),l         ; 7FCE DD CB 00 C5
08816   7FD2 DD CB 00 C5         SET  0,(IX+0),L         ; 7FD2 DD CB 00 C5
08817   7FD6 DD CB 7F C5         set  0,(ix+127),l       ; 7FD6 DD CB 7F C5
08818   7FDA DD CB 7F C5         SET  0,(IX+127),L       ; 7FDA DD CB 7F C5
08819   7FDE FD CB 80 C6         set  0,(iy+-128)        ; 7FDE FD CB 80 C6
08820   7FE2 FD CB 80 C6         SET  0,(IY+-128)        ; 7FE2 FD CB 80 C6
08821   7FE6 FD CB FF C6         set  0,(iy+-1)          ; 7FE6 FD CB FF C6
08822   7FEA FD CB FF C6         SET  0,(IY+-1)          ; 7FEA FD CB FF C6
08823   7FEE FD CB 00 C6         set  0,(iy+0)           ; 7FEE FD CB 00 C6
08824   7FF2 FD CB 00 C6         SET  0,(IY+0)           ; 7FF2 FD CB 00 C6
08825   7FF6 FD CB 7F C6         set  0,(iy+127)         ; 7FF6 FD CB 7F C6
08826   7FFA FD CB 7F C6         SET  0,(IY+127)         ; 7FFA FD CB 7F C6
08827   7FFE FD CB 80 C7         set  0,(iy+-128),a      ; 7FFE FD CB 80 C7
08828   8002 FD CB 80 C7         SET  0,(IY+-128),A      ; 8002 FD CB 80 C7
08829   8006 FD CB FF C7         set  0,(iy+-1),a        ; 8006 FD CB FF C7
08830   800A FD CB FF C7         SET  0,(IY+-1),A        ; 800A FD CB FF C7
08831   800E FD CB 00 C7         set  0,(iy+0),a         ; 800E FD CB 00 C7
08832   8012 FD CB 00 C7         SET  0,(IY+0),A         ; 8012 FD CB 00 C7
08833   8016 FD CB 7F C7         set  0,(iy+127),a       ; 8016 FD CB 7F C7
08834   801A FD CB 7F C7         SET  0,(IY+127),A       ; 801A FD CB 7F C7
08835   801E FD CB 80 C0         set  0,(iy+-128),b      ; 801E FD CB 80 C0
08836   8022 FD CB 80 C0         SET  0,(IY+-128),B      ; 8022 FD CB 80 C0
08837   8026 FD CB FF C0         set  0,(iy+-1),b        ; 8026 FD CB FF C0
08838   802A FD CB FF C0         SET  0,(IY+-1),B        ; 802A FD CB FF C0
08839   802E FD CB 00 C0         set  0,(iy+0),b         ; 802E FD CB 00 C0
08840   8032 FD CB 00 C0         SET  0,(IY+0),B         ; 8032 FD CB 00 C0
08841   8036 FD CB 7F C0         set  0,(iy+127),b       ; 8036 FD CB 7F C0
08842   803A FD CB 7F C0         SET  0,(IY+127),B       ; 803A FD CB 7F C0
08843   803E FD CB 80 C1         set  0,(iy+-128),c      ; 803E FD CB 80 C1
08844   8042 FD CB 80 C1         SET  0,(IY+-128),C      ; 8042 FD CB 80 C1
08845   8046 FD CB FF C1         set  0,(iy+-1),c        ; 8046 FD CB FF C1
08846   804A FD CB FF C1         SET  0,(IY+-1),C        ; 804A FD CB FF C1
08847   804E FD CB 00 C1         set  0,(iy+0),c         ; 804E FD CB 00 C1
08848   8052 FD CB 00 C1         SET  0,(IY+0),C         ; 8052 FD CB 00 C1
08849   8056 FD CB 7F C1         set  0,(iy+127),c       ; 8056 FD CB 7F C1
08850   805A FD CB 7F C1         SET  0,(IY+127),C       ; 805A FD CB 7F C1
08851   805E FD CB 80 C2         set  0,(iy+-128),d      ; 805E FD CB 80 C2
08852   8062 FD CB 80 C2         SET  0,(IY+-128),D      ; 8062 FD CB 80 C2
08853   8066 FD CB FF C2         set  0,(iy+-1),d        ; 8066 FD CB FF C2
08854   806A FD CB FF C2         SET  0,(IY+-1),D        ; 806A FD CB FF C2
08855   806E FD CB 00 C2         set  0,(iy+0),d         ; 806E FD CB 00 C2
08856   8072 FD CB 00 C2         SET  0,(IY+0),D         ; 8072 FD CB 00 C2
08857   8076 FD CB 7F C2         set  0,(iy+127),d       ; 8076 FD CB 7F C2
08858   807A FD CB 7F C2         SET  0,(IY+127),D       ; 807A FD CB 7F C2
08859   807E FD CB 80 C3         set  0,(iy+-128),e      ; 807E FD CB 80 C3
08860   8082 FD CB 80 C3         SET  0,(IY+-128),E      ; 8082 FD CB 80 C3
08861   8086 FD CB FF C3         set  0,(iy+-1),e        ; 8086 FD CB FF C3
08862   808A FD CB FF C3         SET  0,(IY+-1),E        ; 808A FD CB FF C3
08863   808E FD CB 00 C3         set  0,(iy+0),e         ; 808E FD CB 00 C3
08864   8092 FD CB 00 C3         SET  0,(IY+0),E         ; 8092 FD CB 00 C3
08865   8096 FD CB 7F C3         set  0,(iy+127),e       ; 8096 FD CB 7F C3
08866   809A FD CB 7F C3         SET  0,(IY+127),E       ; 809A FD CB 7F C3
08867   809E FD CB 80 C4         set  0,(iy+-128),h      ; 809E FD CB 80 C4
08868   80A2 FD CB 80 C4         SET  0,(IY+-128),H      ; 80A2 FD CB 80 C4
08869   80A6 FD CB FF C4         set  0,(iy+-1),h        ; 80A6 FD CB FF C4
08870   80AA FD CB FF C4         SET  0,(IY+-1),H        ; 80AA FD CB FF C4
08871   80AE FD CB 00 C4         set  0,(iy+0),h         ; 80AE FD CB 00 C4
08872   80B2 FD CB 00 C4         SET  0,(IY+0),H         ; 80B2 FD CB 00 C4
08873   80B6 FD CB 7F C4         set  0,(iy+127),h       ; 80B6 FD CB 7F C4
08874   80BA FD CB 7F C4         SET  0,(IY+127),H       ; 80BA FD CB 7F C4
08875   80BE FD CB 80 C5         set  0,(iy+-128),l      ; 80BE FD CB 80 C5
08876   80C2 FD CB 80 C5         SET  0,(IY+-128),L      ; 80C2 FD CB 80 C5
08877   80C6 FD CB FF C5         set  0,(iy+-1),l        ; 80C6 FD CB FF C5
08878   80CA FD CB FF C5         SET  0,(IY+-1),L        ; 80CA FD CB FF C5
08879   80CE FD CB 00 C5         set  0,(iy+0),l         ; 80CE FD CB 00 C5
08880   80D2 FD CB 00 C5         SET  0,(IY+0),L         ; 80D2 FD CB 00 C5
08881   80D6 FD CB 7F C5         set  0,(iy+127),l       ; 80D6 FD CB 7F C5
08882   80DA FD CB 7F C5         SET  0,(IY+127),L       ; 80DA FD CB 7F C5
08883   80DE CB C6               set  0,[hl]             ; 80DE CB C6
08884   80E0 CB C6               SET  0,[HL]             ; 80E0 CB C6
08885   80E2 DD CB 80 C6         set  0,[ix+-128]        ; 80E2 DD CB 80 C6
08886   80E6 DD CB 80 C6         SET  0,[IX+-128]        ; 80E6 DD CB 80 C6
08887   80EA DD CB FF C6         set  0,[ix+-1]          ; 80EA DD CB FF C6
08888   80EE DD CB FF C6         SET  0,[IX+-1]          ; 80EE DD CB FF C6
08889   80F2 DD CB 00 C6         set  0,[ix+0]           ; 80F2 DD CB 00 C6
08890   80F6 DD CB 00 C6         SET  0,[IX+0]           ; 80F6 DD CB 00 C6
08891   80FA DD CB 7F C6         set  0,[ix+127]         ; 80FA DD CB 7F C6
08892   80FE DD CB 7F C6         SET  0,[IX+127]         ; 80FE DD CB 7F C6
08893   8102 DD CB 80 C7         set  0,[ix+-128],a      ; 8102 DD CB 80 C7
08894   8106 DD CB 80 C7         SET  0,[IX+-128],A      ; 8106 DD CB 80 C7
08895   810A DD CB FF C7         set  0,[ix+-1],a        ; 810A DD CB FF C7
08896   810E DD CB FF C7         SET  0,[IX+-1],A        ; 810E DD CB FF C7
08897   8112 DD CB 00 C7         set  0,[ix+0],a         ; 8112 DD CB 00 C7
08898   8116 DD CB 00 C7         SET  0,[IX+0],A         ; 8116 DD CB 00 C7
08899   811A DD CB 7F C7         set  0,[ix+127],a       ; 811A DD CB 7F C7
08900   811E DD CB 7F C7         SET  0,[IX+127],A       ; 811E DD CB 7F C7
08901   8122 DD CB 80 C0         set  0,[ix+-128],b      ; 8122 DD CB 80 C0
08902   8126 DD CB 80 C0         SET  0,[IX+-128],B      ; 8126 DD CB 80 C0
08903   812A DD CB FF C0         set  0,[ix+-1],b        ; 812A DD CB FF C0
08904   812E DD CB FF C0         SET  0,[IX+-1],B        ; 812E DD CB FF C0
08905   8132 DD CB 00 C0         set  0,[ix+0],b         ; 8132 DD CB 00 C0
08906   8136 DD CB 00 C0         SET  0,[IX+0],B         ; 8136 DD CB 00 C0
08907   813A DD CB 7F C0         set  0,[ix+127],b       ; 813A DD CB 7F C0
08908   813E DD CB 7F C0         SET  0,[IX+127],B       ; 813E DD CB 7F C0
08909   8142 DD CB 80 C1         set  0,[ix+-128],c      ; 8142 DD CB 80 C1
08910   8146 DD CB 80 C1         SET  0,[IX+-128],C      ; 8146 DD CB 80 C1
08911   814A DD CB FF C1         set  0,[ix+-1],c        ; 814A DD CB FF C1
08912   814E DD CB FF C1         SET  0,[IX+-1],C        ; 814E DD CB FF C1
08913   8152 DD CB 00 C1         set  0,[ix+0],c         ; 8152 DD CB 00 C1
08914   8156 DD CB 00 C1         SET  0,[IX+0],C         ; 8156 DD CB 00 C1
08915   815A DD CB 7F C1         set  0,[ix+127],c       ; 815A DD CB 7F C1
08916   815E DD CB 7F C1         SET  0,[IX+127],C       ; 815E DD CB 7F C1
08917   8162 DD CB 80 C2         set  0,[ix+-128],d      ; 8162 DD CB 80 C2
08918   8166 DD CB 80 C2         SET  0,[IX+-128],D      ; 8166 DD CB 80 C2
08919   816A DD CB FF C2         set  0,[ix+-1],d        ; 816A DD CB FF C2
08920   816E DD CB FF C2         SET  0,[IX+-1],D        ; 816E DD CB FF C2
08921   8172 DD CB 00 C2         set  0,[ix+0],d         ; 8172 DD CB 00 C2
08922   8176 DD CB 00 C2         SET  0,[IX+0],D         ; 8176 DD CB 00 C2
08923   817A DD CB 7F C2         set  0,[ix+127],d       ; 817A DD CB 7F C2
08924   817E DD CB 7F C2         SET  0,[IX+127],D       ; 817E DD CB 7F C2
08925   8182 DD CB 80 C3         set  0,[ix+-128],e      ; 8182 DD CB 80 C3
08926   8186 DD CB 80 C3         SET  0,[IX+-128],E      ; 8186 DD CB 80 C3
08927   818A DD CB FF C3         set  0,[ix+-1],e        ; 818A DD CB FF C3
08928   818E DD CB FF C3         SET  0,[IX+-1],E        ; 818E DD CB FF C3
08929   8192 DD CB 00 C3         set  0,[ix+0],e         ; 8192 DD CB 00 C3
08930   8196 DD CB 00 C3         SET  0,[IX+0],E         ; 8196 DD CB 00 C3
08931   819A DD CB 7F C3         set  0,[ix+127],e       ; 819A DD CB 7F C3
08932   819E DD CB 7F C3         SET  0,[IX+127],E       ; 819E DD CB 7F C3
08933   81A2 DD CB 80 C4         set  0,[ix+-128],h      ; 81A2 DD CB 80 C4
08934   81A6 DD CB 80 C4         SET  0,[IX+-128],H      ; 81A6 DD CB 80 C4
08935   81AA DD CB FF C4         set  0,[ix+-1],h        ; 81AA DD CB FF C4
08936   81AE DD CB FF C4         SET  0,[IX+-1],H        ; 81AE DD CB FF C4
08937   81B2 DD CB 00 C4         set  0,[ix+0],h         ; 81B2 DD CB 00 C4
08938   81B6 DD CB 00 C4         SET  0,[IX+0],H         ; 81B6 DD CB 00 C4
08939   81BA DD CB 7F C4         set  0,[ix+127],h       ; 81BA DD CB 7F C4
08940   81BE DD CB 7F C4         SET  0,[IX+127],H       ; 81BE DD CB 7F C4
08941   81C2 DD CB 80 C5         set  0,[ix+-128],l      ; 81C2 DD CB 80 C5
08942   81C6 DD CB 80 C5         SET  0,[IX+-128],L      ; 81C6 DD CB 80 C5
08943   81CA DD CB FF C5         set  0,[ix+-1],l        ; 81CA DD CB FF C5
08944   81CE DD CB FF C5         SET  0,[IX+-1],L        ; 81CE DD CB FF C5
08945   81D2 DD CB 00 C5         set  0,[ix+0],l         ; 81D2 DD CB 00 C5
08946   81D6 DD CB 00 C5         SET  0,[IX+0],L         ; 81D6 DD CB 00 C5
08947   81DA DD CB 7F C5         set  0,[ix+127],l       ; 81DA DD CB 7F C5
08948   81DE DD CB 7F C5         SET  0,[IX+127],L       ; 81DE DD CB 7F C5
08949   81E2 FD CB 80 C6         set  0,[iy+-128]        ; 81E2 FD CB 80 C6
08950   81E6 FD CB 80 C6         SET  0,[IY+-128]        ; 81E6 FD CB 80 C6
08951   81EA FD CB FF C6         set  0,[iy+-1]          ; 81EA FD CB FF C6
08952   81EE FD CB FF C6         SET  0,[IY+-1]          ; 81EE FD CB FF C6
08953   81F2 FD CB 00 C6         set  0,[iy+0]           ; 81F2 FD CB 00 C6
08954   81F6 FD CB 00 C6         SET  0,[IY+0]           ; 81F6 FD CB 00 C6
08955   81FA FD CB 7F C6         set  0,[iy+127]         ; 81FA FD CB 7F C6
08956   81FE FD CB 7F C6         SET  0,[IY+127]         ; 81FE FD CB 7F C6
08957   8202 FD CB 80 C7         set  0,[iy+-128],a      ; 8202 FD CB 80 C7
08958   8206 FD CB 80 C7         SET  0,[IY+-128],A      ; 8206 FD CB 80 C7
08959   820A FD CB FF C7         set  0,[iy+-1],a        ; 820A FD CB FF C7
08960   820E FD CB FF C7         SET  0,[IY+-1],A        ; 820E FD CB FF C7
08961   8212 FD CB 00 C7         set  0,[iy+0],a         ; 8212 FD CB 00 C7
08962   8216 FD CB 00 C7         SET  0,[IY+0],A         ; 8216 FD CB 00 C7
08963   821A FD CB 7F C7         set  0,[iy+127],a       ; 821A FD CB 7F C7
08964   821E FD CB 7F C7         SET  0,[IY+127],A       ; 821E FD CB 7F C7
08965   8222 FD CB 80 C0         set  0,[iy+-128],b      ; 8222 FD CB 80 C0
08966   8226 FD CB 80 C0         SET  0,[IY+-128],B      ; 8226 FD CB 80 C0
08967   822A FD CB FF C0         set  0,[iy+-1],b        ; 822A FD CB FF C0
08968   822E FD CB FF C0         SET  0,[IY+-1],B        ; 822E FD CB FF C0
08969   8232 FD CB 00 C0         set  0,[iy+0],b         ; 8232 FD CB 00 C0
08970   8236 FD CB 00 C0         SET  0,[IY+0],B         ; 8236 FD CB 00 C0
08971   823A FD CB 7F C0         set  0,[iy+127],b       ; 823A FD CB 7F C0
08972   823E FD CB 7F C0         SET  0,[IY+127],B       ; 823E FD CB 7F C0
08973   8242 FD CB 80 C1         set  0,[iy+-128],c      ; 8242 FD CB 80 C1
08974   8246 FD CB 80 C1         SET  0,[IY+-128],C      ; 8246 FD CB 80 C1
08975   824A FD CB FF C1         set  0,[iy+-1],c        ; 824A FD CB FF C1
08976   824E FD CB FF C1         SET  0,[IY+-1],C        ; 824E FD CB FF C1
08977   8252 FD CB 00 C1         set  0,[iy+0],c         ; 8252 FD CB 00 C1
08978   8256 FD CB 00 C1         SET  0,[IY+0],C         ; 8256 FD CB 00 C1
08979   825A FD CB 7F C1         set  0,[iy+127],c       ; 825A FD CB 7F C1
08980   825E FD CB 7F C1         SET  0,[IY+127],C       ; 825E FD CB 7F C1
08981   8262 FD CB 80 C2         set  0,[iy+-128],d      ; 8262 FD CB 80 C2
08982   8266 FD CB 80 C2         SET  0,[IY+-128],D      ; 8266 FD CB 80 C2
08983   826A FD CB FF C2         set  0,[iy+-1],d        ; 826A FD CB FF C2
08984   826E FD CB FF C2         SET  0,[IY+-1],D        ; 826E FD CB FF C2
08985   8272 FD CB 00 C2         set  0,[iy+0],d         ; 8272 FD CB 00 C2
08986   8276 FD CB 00 C2         SET  0,[IY+0],D         ; 8276 FD CB 00 C2
08987   827A FD CB 7F C2         set  0,[iy+127],d       ; 827A FD CB 7F C2
08988   827E FD CB 7F C2         SET  0,[IY+127],D       ; 827E FD CB 7F C2
08989   8282 FD CB 80 C3         set  0,[iy+-128],e      ; 8282 FD CB 80 C3
08990   8286 FD CB 80 C3         SET  0,[IY+-128],E      ; 8286 FD CB 80 C3
08991   828A FD CB FF C3         set  0,[iy+-1],e        ; 828A FD CB FF C3
08992   828E FD CB FF C3         SET  0,[IY+-1],E        ; 828E FD CB FF C3
08993   8292 FD CB 00 C3         set  0,[iy+0],e         ; 8292 FD CB 00 C3
08994   8296 FD CB 00 C3         SET  0,[IY+0],E         ; 8296 FD CB 00 C3
08995   829A FD CB 7F C3         set  0,[iy+127],e       ; 829A FD CB 7F C3
08996   829E FD CB 7F C3         SET  0,[IY+127],E       ; 829E FD CB 7F C3
08997   82A2 FD CB 80 C4         set  0,[iy+-128],h      ; 82A2 FD CB 80 C4
08998   82A6 FD CB 80 C4         SET  0,[IY+-128],H      ; 82A6 FD CB 80 C4
08999   82AA FD CB FF C4         set  0,[iy+-1],h        ; 82AA FD CB FF C4
09000   82AE FD CB FF C4         SET  0,[IY+-1],H        ; 82AE FD CB FF C4
09001   82B2 FD CB 00 C4         set  0,[iy+0],h         ; 82B2 FD CB 00 C4
09002   82B6 FD CB 00 C4         SET  0,[IY+0],H         ; 82B6 FD CB 00 C4
09003   82BA FD CB 7F C4         set  0,[iy+127],h       ; 82BA FD CB 7F C4
09004   82BE FD CB 7F C4         SET  0,[IY+127],H       ; 82BE FD CB 7F C4
09005   82C2 FD CB 80 C5         set  0,[iy+-128],l      ; 82C2 FD CB 80 C5
09006   82C6 FD CB 80 C5         SET  0,[IY+-128],L      ; 82C6 FD CB 80 C5
09007   82CA FD CB FF C5         set  0,[iy+-1],l        ; 82CA FD CB FF C5
09008   82CE FD CB FF C5         SET  0,[IY+-1],L        ; 82CE FD CB FF C5
09009   82D2 FD CB 00 C5         set  0,[iy+0],l         ; 82D2 FD CB 00 C5
09010   82D6 FD CB 00 C5         SET  0,[IY+0],L         ; 82D6 FD CB 00 C5
09011   82DA FD CB 7F C5         set  0,[iy+127],l       ; 82DA FD CB 7F C5
09012   82DE FD CB 7F C5         SET  0,[IY+127],L       ; 82DE FD CB 7F C5
09013   82E2 CB C7               set  0,a                ; 82E2 CB C7
09014   82E4 CB C7               SET  0,A                ; 82E4 CB C7
09015   82E6 CB C0               set  0,b                ; 82E6 CB C0
09016   82E8 CB C0               SET  0,B                ; 82E8 CB C0
09017   82EA CB C1               set  0,c                ; 82EA CB C1
09018   82EC CB C1               SET  0,C                ; 82EC CB C1
09019   82EE CB C2               set  0,d                ; 82EE CB C2
09020   82F0 CB C2               SET  0,D                ; 82F0 CB C2
09021   82F2 CB C3               set  0,e                ; 82F2 CB C3
09022   82F4 CB C3               SET  0,E                ; 82F4 CB C3
09023   82F6 CB C4               set  0,h                ; 82F6 CB C4
09024   82F8 CB C4               SET  0,H                ; 82F8 CB C4
09025   82FA CB C5               set  0,l                ; 82FA CB C5
09026   82FC CB C5               SET  0,L                ; 82FC CB C5
09027   82FE CB CE               set  1,(hl)             ; 82FE CB CE
09028   8300 CB CE               SET  1,(HL)             ; 8300 CB CE
09029   8302 DD CB 80 CE         set  1,(ix+-128)        ; 8302 DD CB 80 CE
09030   8306 DD CB 80 CE         SET  1,(IX+-128)        ; 8306 DD CB 80 CE
09031   830A DD CB FF CE         set  1,(ix+-1)          ; 830A DD CB FF CE
09032   830E DD CB FF CE         SET  1,(IX+-1)          ; 830E DD CB FF CE
09033   8312 DD CB 00 CE         set  1,(ix+0)           ; 8312 DD CB 00 CE
09034   8316 DD CB 00 CE         SET  1,(IX+0)           ; 8316 DD CB 00 CE
09035   831A DD CB 7F CE         set  1,(ix+127)         ; 831A DD CB 7F CE
09036   831E DD CB 7F CE         SET  1,(IX+127)         ; 831E DD CB 7F CE
09037   8322 DD CB 80 CF         set  1,(ix+-128),a      ; 8322 DD CB 80 CF
09038   8326 DD CB 80 CF         SET  1,(IX+-128),A      ; 8326 DD CB 80 CF
09039   832A DD CB FF CF         set  1,(ix+-1),a        ; 832A DD CB FF CF
09040   832E DD CB FF CF         SET  1,(IX+-1),A        ; 832E DD CB FF CF
09041   8332 DD CB 00 CF         set  1,(ix+0),a         ; 8332 DD CB 00 CF
09042   8336 DD CB 00 CF         SET  1,(IX+0),A         ; 8336 DD CB 00 CF
09043   833A DD CB 7F CF         set  1,(ix+127),a       ; 833A DD CB 7F CF
09044   833E DD CB 7F CF         SET  1,(IX+127),A       ; 833E DD CB 7F CF
09045   8342 DD CB 80 C8         set  1,(ix+-128),b      ; 8342 DD CB 80 C8
09046   8346 DD CB 80 C8         SET  1,(IX+-128),B      ; 8346 DD CB 80 C8
09047   834A DD CB FF C8         set  1,(ix+-1),b        ; 834A DD CB FF C8
09048   834E DD CB FF C8         SET  1,(IX+-1),B        ; 834E DD CB FF C8
09049   8352 DD CB 00 C8         set  1,(ix+0),b         ; 8352 DD CB 00 C8
09050   8356 DD CB 00 C8         SET  1,(IX+0),B         ; 8356 DD CB 00 C8
09051   835A DD CB 7F C8         set  1,(ix+127),b       ; 835A DD CB 7F C8
09052   835E DD CB 7F C8         SET  1,(IX+127),B       ; 835E DD CB 7F C8
09053   8362 DD CB 80 C9         set  1,(ix+-128),c      ; 8362 DD CB 80 C9
09054   8366 DD CB 80 C9         SET  1,(IX+-128),C      ; 8366 DD CB 80 C9
09055   836A DD CB FF C9         set  1,(ix+-1),c        ; 836A DD CB FF C9
09056   836E DD CB FF C9         SET  1,(IX+-1),C        ; 836E DD CB FF C9
09057   8372 DD CB 00 C9         set  1,(ix+0),c         ; 8372 DD CB 00 C9
09058   8376 DD CB 00 C9         SET  1,(IX+0),C         ; 8376 DD CB 00 C9
09059   837A DD CB 7F C9         set  1,(ix+127),c       ; 837A DD CB 7F C9
09060   837E DD CB 7F C9         SET  1,(IX+127),C       ; 837E DD CB 7F C9
09061   8382 DD CB 80 CA         set  1,(ix+-128),d      ; 8382 DD CB 80 CA
09062   8386 DD CB 80 CA         SET  1,(IX+-128),D      ; 8386 DD CB 80 CA
09063   838A DD CB FF CA         set  1,(ix+-1),d        ; 838A DD CB FF CA
09064   838E DD CB FF CA         SET  1,(IX+-1),D        ; 838E DD CB FF CA
09065   8392 DD CB 00 CA         set  1,(ix+0),d         ; 8392 DD CB 00 CA
09066   8396 DD CB 00 CA         SET  1,(IX+0),D         ; 8396 DD CB 00 CA
09067   839A DD CB 7F CA         set  1,(ix+127),d       ; 839A DD CB 7F CA
09068   839E DD CB 7F CA         SET  1,(IX+127),D       ; 839E DD CB 7F CA
09069   83A2 DD CB 80 CB         set  1,(ix+-128),e      ; 83A2 DD CB 80 CB
09070   83A6 DD CB 80 CB         SET  1,(IX+-128),E      ; 83A6 DD CB 80 CB
09071   83AA DD CB FF CB         set  1,(ix+-1),e        ; 83AA DD CB FF CB
09072   83AE DD CB FF CB         SET  1,(IX+-1),E        ; 83AE DD CB FF CB
09073   83B2 DD CB 00 CB         set  1,(ix+0),e         ; 83B2 DD CB 00 CB
09074   83B6 DD CB 00 CB         SET  1,(IX+0),E         ; 83B6 DD CB 00 CB
09075   83BA DD CB 7F CB         set  1,(ix+127),e       ; 83BA DD CB 7F CB
09076   83BE DD CB 7F CB         SET  1,(IX+127),E       ; 83BE DD CB 7F CB
09077   83C2 DD CB 80 CC         set  1,(ix+-128),h      ; 83C2 DD CB 80 CC
09078   83C6 DD CB 80 CC         SET  1,(IX+-128),H      ; 83C6 DD CB 80 CC
09079   83CA DD CB FF CC         set  1,(ix+-1),h        ; 83CA DD CB FF CC
09080   83CE DD CB FF CC         SET  1,(IX+-1),H        ; 83CE DD CB FF CC
09081   83D2 DD CB 00 CC         set  1,(ix+0),h         ; 83D2 DD CB 00 CC
09082   83D6 DD CB 00 CC         SET  1,(IX+0),H         ; 83D6 DD CB 00 CC
09083   83DA DD CB 7F CC         set  1,(ix+127),h       ; 83DA DD CB 7F CC
09084   83DE DD CB 7F CC         SET  1,(IX+127),H       ; 83DE DD CB 7F CC
09085   83E2 DD CB 80 CD         set  1,(ix+-128),l      ; 83E2 DD CB 80 CD
09086   83E6 DD CB 80 CD         SET  1,(IX+-128),L      ; 83E6 DD CB 80 CD
09087   83EA DD CB FF CD         set  1,(ix+-1),l        ; 83EA DD CB FF CD
09088   83EE DD CB FF CD         SET  1,(IX+-1),L        ; 83EE DD CB FF CD
09089   83F2 DD CB 00 CD         set  1,(ix+0),l         ; 83F2 DD CB 00 CD
09090   83F6 DD CB 00 CD         SET  1,(IX+0),L         ; 83F6 DD CB 00 CD
09091   83FA DD CB 7F CD         set  1,(ix+127),l       ; 83FA DD CB 7F CD
09092   83FE DD CB 7F CD         SET  1,(IX+127),L       ; 83FE DD CB 7F CD
09093   8402 FD CB 80 CE         set  1,(iy+-128)        ; 8402 FD CB 80 CE
09094   8406 FD CB 80 CE         SET  1,(IY+-128)        ; 8406 FD CB 80 CE
09095   840A FD CB FF CE         set  1,(iy+-1)          ; 840A FD CB FF CE
09096   840E FD CB FF CE         SET  1,(IY+-1)          ; 840E FD CB FF CE
09097   8412 FD CB 00 CE         set  1,(iy+0)           ; 8412 FD CB 00 CE
09098   8416 FD CB 00 CE         SET  1,(IY+0)           ; 8416 FD CB 00 CE
09099   841A FD CB 7F CE         set  1,(iy+127)         ; 841A FD CB 7F CE
09100   841E FD CB 7F CE         SET  1,(IY+127)         ; 841E FD CB 7F CE
09101   8422 FD CB 80 CF         set  1,(iy+-128),a      ; 8422 FD CB 80 CF
09102   8426 FD CB 80 CF         SET  1,(IY+-128),A      ; 8426 FD CB 80 CF
09103   842A FD CB FF CF         set  1,(iy+-1),a        ; 842A FD CB FF CF
09104   842E FD CB FF CF         SET  1,(IY+-1),A        ; 842E FD CB FF CF
09105   8432 FD CB 00 CF         set  1,(iy+0),a         ; 8432 FD CB 00 CF
09106   8436 FD CB 00 CF         SET  1,(IY+0),A         ; 8436 FD CB 00 CF
09107   843A FD CB 7F CF         set  1,(iy+127),a       ; 843A FD CB 7F CF
09108   843E FD CB 7F CF         SET  1,(IY+127),A       ; 843E FD CB 7F CF
09109   8442 FD CB 80 C8         set  1,(iy+-128),b      ; 8442 FD CB 80 C8
09110   8446 FD CB 80 C8         SET  1,(IY+-128),B      ; 8446 FD CB 80 C8
09111   844A FD CB FF C8         set  1,(iy+-1),b        ; 844A FD CB FF C8
09112   844E FD CB FF C8         SET  1,(IY+-1),B        ; 844E FD CB FF C8
09113   8452 FD CB 00 C8         set  1,(iy+0),b         ; 8452 FD CB 00 C8
09114   8456 FD CB 00 C8         SET  1,(IY+0),B         ; 8456 FD CB 00 C8
09115   845A FD CB 7F C8         set  1,(iy+127),b       ; 845A FD CB 7F C8
09116   845E FD CB 7F C8         SET  1,(IY+127),B       ; 845E FD CB 7F C8
09117   8462 FD CB 80 C9         set  1,(iy+-128),c      ; 8462 FD CB 80 C9
09118   8466 FD CB 80 C9         SET  1,(IY+-128),C      ; 8466 FD CB 80 C9
09119   846A FD CB FF C9         set  1,(iy+-1),c        ; 846A FD CB FF C9
09120   846E FD CB FF C9         SET  1,(IY+-1),C        ; 846E FD CB FF C9
09121   8472 FD CB 00 C9         set  1,(iy+0),c         ; 8472 FD CB 00 C9
09122   8476 FD CB 00 C9         SET  1,(IY+0),C         ; 8476 FD CB 00 C9
09123   847A FD CB 7F C9         set  1,(iy+127),c       ; 847A FD CB 7F C9
09124   847E FD CB 7F C9         SET  1,(IY+127),C       ; 847E FD CB 7F C9
09125   8482 FD CB 80 CA         set  1,(iy+-128),d      ; 8482 FD CB 80 CA
09126   8486 FD CB 80 CA         SET  1,(IY+-128),D      ; 8486 FD CB 80 CA
09127   848A FD CB FF CA         set  1,(iy+-1),d        ; 848A FD CB FF CA
09128   848E FD CB FF CA         SET  1,(IY+-1),D        ; 848E FD CB FF CA
09129   8492 FD CB 00 CA         set  1,(iy+0),d         ; 8492 FD CB 00 CA
09130   8496 FD CB 00 CA         SET  1,(IY+0),D         ; 8496 FD CB 00 CA
09131   849A FD CB 7F CA         set  1,(iy+127),d       ; 849A FD CB 7F CA
09132   849E FD CB 7F CA         SET  1,(IY+127),D       ; 849E FD CB 7F CA
09133   84A2 FD CB 80 CB         set  1,(iy+-128),e      ; 84A2 FD CB 80 CB
09134   84A6 FD CB 80 CB         SET  1,(IY+-128),E      ; 84A6 FD CB 80 CB
09135   84AA FD CB FF CB         set  1,(iy+-1),e        ; 84AA FD CB FF CB
09136   84AE FD CB FF CB         SET  1,(IY+-1),E        ; 84AE FD CB FF CB
09137   84B2 FD CB 00 CB         set  1,(iy+0),e         ; 84B2 FD CB 00 CB
09138   84B6 FD CB 00 CB         SET  1,(IY+0),E         ; 84B6 FD CB 00 CB
09139   84BA FD CB 7F CB         set  1,(iy+127),e       ; 84BA FD CB 7F CB
09140   84BE FD CB 7F CB         SET  1,(IY+127),E       ; 84BE FD CB 7F CB
09141   84C2 FD CB 80 CC         set  1,(iy+-128),h      ; 84C2 FD CB 80 CC
09142   84C6 FD CB 80 CC         SET  1,(IY+-128),H      ; 84C6 FD CB 80 CC
09143   84CA FD CB FF CC         set  1,(iy+-1),h        ; 84CA FD CB FF CC
09144   84CE FD CB FF CC         SET  1,(IY+-1),H        ; 84CE FD CB FF CC
09145   84D2 FD CB 00 CC         set  1,(iy+0),h         ; 84D2 FD CB 00 CC
09146   84D6 FD CB 00 CC         SET  1,(IY+0),H         ; 84D6 FD CB 00 CC
09147   84DA FD CB 7F CC         set  1,(iy+127),h       ; 84DA FD CB 7F CC
09148   84DE FD CB 7F CC         SET  1,(IY+127),H       ; 84DE FD CB 7F CC
09149   84E2 FD CB 80 CD         set  1,(iy+-128),l      ; 84E2 FD CB 80 CD
09150   84E6 FD CB 80 CD         SET  1,(IY+-128),L      ; 84E6 FD CB 80 CD
09151   84EA FD CB FF CD         set  1,(iy+-1),l        ; 84EA FD CB FF CD
09152   84EE FD CB FF CD         SET  1,(IY+-1),L        ; 84EE FD CB FF CD
09153   84F2 FD CB 00 CD         set  1,(iy+0),l         ; 84F2 FD CB 00 CD
09154   84F6 FD CB 00 CD         SET  1,(IY+0),L         ; 84F6 FD CB 00 CD
09155   84FA FD CB 7F CD         set  1,(iy+127),l       ; 84FA FD CB 7F CD
09156   84FE FD CB 7F CD         SET  1,(IY+127),L       ; 84FE FD CB 7F CD
09157   8502 CB CE               set  1,[hl]             ; 8502 CB CE
09158   8504 CB CE               SET  1,[HL]             ; 8504 CB CE
09159   8506 DD CB 80 CE         set  1,[ix+-128]        ; 8506 DD CB 80 CE
09160   850A DD CB 80 CE         SET  1,[IX+-128]        ; 850A DD CB 80 CE
09161   850E DD CB FF CE         set  1,[ix+-1]          ; 850E DD CB FF CE
09162   8512 DD CB FF CE         SET  1,[IX+-1]          ; 8512 DD CB FF CE
09163   8516 DD CB 00 CE         set  1,[ix+0]           ; 8516 DD CB 00 CE
09164   851A DD CB 00 CE         SET  1,[IX+0]           ; 851A DD CB 00 CE
09165   851E DD CB 7F CE         set  1,[ix+127]         ; 851E DD CB 7F CE
09166   8522 DD CB 7F CE         SET  1,[IX+127]         ; 8522 DD CB 7F CE
09167   8526 DD CB 80 CF         set  1,[ix+-128],a      ; 8526 DD CB 80 CF
09168   852A DD CB 80 CF         SET  1,[IX+-128],A      ; 852A DD CB 80 CF
09169   852E DD CB FF CF         set  1,[ix+-1],a        ; 852E DD CB FF CF
09170   8532 DD CB FF CF         SET  1,[IX+-1],A        ; 8532 DD CB FF CF
09171   8536 DD CB 00 CF         set  1,[ix+0],a         ; 8536 DD CB 00 CF
09172   853A DD CB 00 CF         SET  1,[IX+0],A         ; 853A DD CB 00 CF
09173   853E DD CB 7F CF         set  1,[ix+127],a       ; 853E DD CB 7F CF
09174   8542 DD CB 7F CF         SET  1,[IX+127],A       ; 8542 DD CB 7F CF
09175   8546 DD CB 80 C8         set  1,[ix+-128],b      ; 8546 DD CB 80 C8
09176   854A DD CB 80 C8         SET  1,[IX+-128],B      ; 854A DD CB 80 C8
09177   854E DD CB FF C8         set  1,[ix+-1],b        ; 854E DD CB FF C8
09178   8552 DD CB FF C8         SET  1,[IX+-1],B        ; 8552 DD CB FF C8
09179   8556 DD CB 00 C8         set  1,[ix+0],b         ; 8556 DD CB 00 C8
09180   855A DD CB 00 C8         SET  1,[IX+0],B         ; 855A DD CB 00 C8
09181   855E DD CB 7F C8         set  1,[ix+127],b       ; 855E DD CB 7F C8
09182   8562 DD CB 7F C8         SET  1,[IX+127],B       ; 8562 DD CB 7F C8
09183   8566 DD CB 80 C9         set  1,[ix+-128],c      ; 8566 DD CB 80 C9
09184   856A DD CB 80 C9         SET  1,[IX+-128],C      ; 856A DD CB 80 C9
09185   856E DD CB FF C9         set  1,[ix+-1],c        ; 856E DD CB FF C9
09186   8572 DD CB FF C9         SET  1,[IX+-1],C        ; 8572 DD CB FF C9
09187   8576 DD CB 00 C9         set  1,[ix+0],c         ; 8576 DD CB 00 C9
09188   857A DD CB 00 C9         SET  1,[IX+0],C         ; 857A DD CB 00 C9
09189   857E DD CB 7F C9         set  1,[ix+127],c       ; 857E DD CB 7F C9
09190   8582 DD CB 7F C9         SET  1,[IX+127],C       ; 8582 DD CB 7F C9
09191   8586 DD CB 80 CA         set  1,[ix+-128],d      ; 8586 DD CB 80 CA
09192   858A DD CB 80 CA         SET  1,[IX+-128],D      ; 858A DD CB 80 CA
09193   858E DD CB FF CA         set  1,[ix+-1],d        ; 858E DD CB FF CA
09194   8592 DD CB FF CA         SET  1,[IX+-1],D        ; 8592 DD CB FF CA
09195   8596 DD CB 00 CA         set  1,[ix+0],d         ; 8596 DD CB 00 CA
09196   859A DD CB 00 CA         SET  1,[IX+0],D         ; 859A DD CB 00 CA
09197   859E DD CB 7F CA         set  1,[ix+127],d       ; 859E DD CB 7F CA
09198   85A2 DD CB 7F CA         SET  1,[IX+127],D       ; 85A2 DD CB 7F CA
09199   85A6 DD CB 80 CB         set  1,[ix+-128],e      ; 85A6 DD CB 80 CB
09200   85AA DD CB 80 CB         SET  1,[IX+-128],E      ; 85AA DD CB 80 CB
09201   85AE DD CB FF CB         set  1,[ix+-1],e        ; 85AE DD CB FF CB
09202   85B2 DD CB FF CB         SET  1,[IX+-1],E        ; 85B2 DD CB FF CB
09203   85B6 DD CB 00 CB         set  1,[ix+0],e         ; 85B6 DD CB 00 CB
09204   85BA DD CB 00 CB         SET  1,[IX+0],E         ; 85BA DD CB 00 CB
09205   85BE DD CB 7F CB         set  1,[ix+127],e       ; 85BE DD CB 7F CB
09206   85C2 DD CB 7F CB         SET  1,[IX+127],E       ; 85C2 DD CB 7F CB
09207   85C6 DD CB 80 CC         set  1,[ix+-128],h      ; 85C6 DD CB 80 CC
09208   85CA DD CB 80 CC         SET  1,[IX+-128],H      ; 85CA DD CB 80 CC
09209   85CE DD CB FF CC         set  1,[ix+-1],h        ; 85CE DD CB FF CC
09210   85D2 DD CB FF CC         SET  1,[IX+-1],H        ; 85D2 DD CB FF CC
09211   85D6 DD CB 00 CC         set  1,[ix+0],h         ; 85D6 DD CB 00 CC
09212   85DA DD CB 00 CC         SET  1,[IX+0],H         ; 85DA DD CB 00 CC
09213   85DE DD CB 7F CC         set  1,[ix+127],h       ; 85DE DD CB 7F CC
09214   85E2 DD CB 7F CC         SET  1,[IX+127],H       ; 85E2 DD CB 7F CC
09215   85E6 DD CB 80 CD         set  1,[ix+-128],l      ; 85E6 DD CB 80 CD
09216   85EA DD CB 80 CD         SET  1,[IX+-128],L      ; 85EA DD CB 80 CD
09217   85EE DD CB FF CD         set  1,[ix+-1],l        ; 85EE DD CB FF CD
09218   85F2 DD CB FF CD         SET  1,[IX+-1],L        ; 85F2 DD CB FF CD
09219   85F6 DD CB 00 CD         set  1,[ix+0],l         ; 85F6 DD CB 00 CD
09220   85FA DD CB 00 CD         SET  1,[IX+0],L         ; 85FA DD CB 00 CD
09221   85FE DD CB 7F CD         set  1,[ix+127],l       ; 85FE DD CB 7F CD
09222   8602 DD CB 7F CD         SET  1,[IX+127],L       ; 8602 DD CB 7F CD
09223   8606 FD CB 80 CE         set  1,[iy+-128]        ; 8606 FD CB 80 CE
09224   860A FD CB 80 CE         SET  1,[IY+-128]        ; 860A FD CB 80 CE
09225   860E FD CB FF CE         set  1,[iy+-1]          ; 860E FD CB FF CE
09226   8612 FD CB FF CE         SET  1,[IY+-1]          ; 8612 FD CB FF CE
09227   8616 FD CB 00 CE         set  1,[iy+0]           ; 8616 FD CB 00 CE
09228   861A FD CB 00 CE         SET  1,[IY+0]           ; 861A FD CB 00 CE
09229   861E FD CB 7F CE         set  1,[iy+127]         ; 861E FD CB 7F CE
09230   8622 FD CB 7F CE         SET  1,[IY+127]         ; 8622 FD CB 7F CE
09231   8626 FD CB 80 CF         set  1,[iy+-128],a      ; 8626 FD CB 80 CF
09232   862A FD CB 80 CF         SET  1,[IY+-128],A      ; 862A FD CB 80 CF
09233   862E FD CB FF CF         set  1,[iy+-1],a        ; 862E FD CB FF CF
09234   8632 FD CB FF CF         SET  1,[IY+-1],A        ; 8632 FD CB FF CF
09235   8636 FD CB 00 CF         set  1,[iy+0],a         ; 8636 FD CB 00 CF
09236   863A FD CB 00 CF         SET  1,[IY+0],A         ; 863A FD CB 00 CF
09237   863E FD CB 7F CF         set  1,[iy+127],a       ; 863E FD CB 7F CF
09238   8642 FD CB 7F CF         SET  1,[IY+127],A       ; 8642 FD CB 7F CF
09239   8646 FD CB 80 C8         set  1,[iy+-128],b      ; 8646 FD CB 80 C8
09240   864A FD CB 80 C8         SET  1,[IY+-128],B      ; 864A FD CB 80 C8
09241   864E FD CB FF C8         set  1,[iy+-1],b        ; 864E FD CB FF C8
09242   8652 FD CB FF C8         SET  1,[IY+-1],B        ; 8652 FD CB FF C8
09243   8656 FD CB 00 C8         set  1,[iy+0],b         ; 8656 FD CB 00 C8
09244   865A FD CB 00 C8         SET  1,[IY+0],B         ; 865A FD CB 00 C8
09245   865E FD CB 7F C8         set  1,[iy+127],b       ; 865E FD CB 7F C8
09246   8662 FD CB 7F C8         SET  1,[IY+127],B       ; 8662 FD CB 7F C8
09247   8666 FD CB 80 C9         set  1,[iy+-128],c      ; 8666 FD CB 80 C9
09248   866A FD CB 80 C9         SET  1,[IY+-128],C      ; 866A FD CB 80 C9
09249   866E FD CB FF C9         set  1,[iy+-1],c        ; 866E FD CB FF C9
09250   8672 FD CB FF C9         SET  1,[IY+-1],C        ; 8672 FD CB FF C9
09251   8676 FD CB 00 C9         set  1,[iy+0],c         ; 8676 FD CB 00 C9
09252   867A FD CB 00 C9         SET  1,[IY+0],C         ; 867A FD CB 00 C9
09253   867E FD CB 7F C9         set  1,[iy+127],c       ; 867E FD CB 7F C9
09254   8682 FD CB 7F C9         SET  1,[IY+127],C       ; 8682 FD CB 7F C9
09255   8686 FD CB 80 CA         set  1,[iy+-128],d      ; 8686 FD CB 80 CA
09256   868A FD CB 80 CA         SET  1,[IY+-128],D      ; 868A FD CB 80 CA
09257   868E FD CB FF CA         set  1,[iy+-1],d        ; 868E FD CB FF CA
09258   8692 FD CB FF CA         SET  1,[IY+-1],D        ; 8692 FD CB FF CA
09259   8696 FD CB 00 CA         set  1,[iy+0],d         ; 8696 FD CB 00 CA
09260   869A FD CB 00 CA         SET  1,[IY+0],D         ; 869A FD CB 00 CA
09261   869E FD CB 7F CA         set  1,[iy+127],d       ; 869E FD CB 7F CA
09262   86A2 FD CB 7F CA         SET  1,[IY+127],D       ; 86A2 FD CB 7F CA
09263   86A6 FD CB 80 CB         set  1,[iy+-128],e      ; 86A6 FD CB 80 CB
09264   86AA FD CB 80 CB         SET  1,[IY+-128],E      ; 86AA FD CB 80 CB
09265   86AE FD CB FF CB         set  1,[iy+-1],e        ; 86AE FD CB FF CB
09266   86B2 FD CB FF CB         SET  1,[IY+-1],E        ; 86B2 FD CB FF CB
09267   86B6 FD CB 00 CB         set  1,[iy+0],e         ; 86B6 FD CB 00 CB
09268   86BA FD CB 00 CB         SET  1,[IY+0],E         ; 86BA FD CB 00 CB
09269   86BE FD CB 7F CB         set  1,[iy+127],e       ; 86BE FD CB 7F CB
09270   86C2 FD CB 7F CB         SET  1,[IY+127],E       ; 86C2 FD CB 7F CB
09271   86C6 FD CB 80 CC         set  1,[iy+-128],h      ; 86C6 FD CB 80 CC
09272   86CA FD CB 80 CC         SET  1,[IY+-128],H      ; 86CA FD CB 80 CC
09273   86CE FD CB FF CC         set  1,[iy+-1],h        ; 86CE FD CB FF CC
09274   86D2 FD CB FF CC         SET  1,[IY+-1],H        ; 86D2 FD CB FF CC
09275   86D6 FD CB 00 CC         set  1,[iy+0],h         ; 86D6 FD CB 00 CC
09276   86DA FD CB 00 CC         SET  1,[IY+0],H         ; 86DA FD CB 00 CC
09277   86DE FD CB 7F CC         set  1,[iy+127],h       ; 86DE FD CB 7F CC
09278   86E2 FD CB 7F CC         SET  1,[IY+127],H       ; 86E2 FD CB 7F CC
09279   86E6 FD CB 80 CD         set  1,[iy+-128],l      ; 86E6 FD CB 80 CD
09280   86EA FD CB 80 CD         SET  1,[IY+-128],L      ; 86EA FD CB 80 CD
09281   86EE FD CB FF CD         set  1,[iy+-1],l        ; 86EE FD CB FF CD
09282   86F2 FD CB FF CD         SET  1,[IY+-1],L        ; 86F2 FD CB FF CD
09283   86F6 FD CB 00 CD         set  1,[iy+0],l         ; 86F6 FD CB 00 CD
09284   86FA FD CB 00 CD         SET  1,[IY+0],L         ; 86FA FD CB 00 CD
09285   86FE FD CB 7F CD         set  1,[iy+127],l       ; 86FE FD CB 7F CD
09286   8702 FD CB 7F CD         SET  1,[IY+127],L       ; 8702 FD CB 7F CD
09287   8706 CB CF               set  1,a                ; 8706 CB CF
09288   8708 CB CF               SET  1,A                ; 8708 CB CF
09289   870A CB C8               set  1,b                ; 870A CB C8
09290   870C CB C8               SET  1,B                ; 870C CB C8
09291   870E CB C9               set  1,c                ; 870E CB C9
09292   8710 CB C9               SET  1,C                ; 8710 CB C9
09293   8712 CB CA               set  1,d                ; 8712 CB CA
09294   8714 CB CA               SET  1,D                ; 8714 CB CA
09295   8716 CB CB               set  1,e                ; 8716 CB CB
09296   8718 CB CB               SET  1,E                ; 8718 CB CB
09297   871A CB CC               set  1,h                ; 871A CB CC
09298   871C CB CC               SET  1,H                ; 871C CB CC
09299   871E CB CD               set  1,l                ; 871E CB CD
09300   8720 CB CD               SET  1,L                ; 8720 CB CD
09301   8722 CB D6               set  2,(hl)             ; 8722 CB D6
09302   8724 CB D6               SET  2,(HL)             ; 8724 CB D6
09303   8726 DD CB 80 D6         set  2,(ix+-128)        ; 8726 DD CB 80 D6
09304   872A DD CB 80 D6         SET  2,(IX+-128)        ; 872A DD CB 80 D6
09305   872E DD CB FF D6         set  2,(ix+-1)          ; 872E DD CB FF D6
09306   8732 DD CB FF D6         SET  2,(IX+-1)          ; 8732 DD CB FF D6
09307   8736 DD CB 00 D6         set  2,(ix+0)           ; 8736 DD CB 00 D6
09308   873A DD CB 00 D6         SET  2,(IX+0)           ; 873A DD CB 00 D6
09309   873E DD CB 7F D6         set  2,(ix+127)         ; 873E DD CB 7F D6
09310   8742 DD CB 7F D6         SET  2,(IX+127)         ; 8742 DD CB 7F D6
09311   8746 DD CB 80 D7         set  2,(ix+-128),a      ; 8746 DD CB 80 D7
09312   874A DD CB 80 D7         SET  2,(IX+-128),A      ; 874A DD CB 80 D7
09313   874E DD CB FF D7         set  2,(ix+-1),a        ; 874E DD CB FF D7
09314   8752 DD CB FF D7         SET  2,(IX+-1),A        ; 8752 DD CB FF D7
09315   8756 DD CB 00 D7         set  2,(ix+0),a         ; 8756 DD CB 00 D7
09316   875A DD CB 00 D7         SET  2,(IX+0),A         ; 875A DD CB 00 D7
09317   875E DD CB 7F D7         set  2,(ix+127),a       ; 875E DD CB 7F D7
09318   8762 DD CB 7F D7         SET  2,(IX+127),A       ; 8762 DD CB 7F D7
09319   8766 DD CB 80 D0         set  2,(ix+-128),b      ; 8766 DD CB 80 D0
09320   876A DD CB 80 D0         SET  2,(IX+-128),B      ; 876A DD CB 80 D0
09321   876E DD CB FF D0         set  2,(ix+-1),b        ; 876E DD CB FF D0
09322   8772 DD CB FF D0         SET  2,(IX+-1),B        ; 8772 DD CB FF D0
09323   8776 DD CB 00 D0         set  2,(ix+0),b         ; 8776 DD CB 00 D0
09324   877A DD CB 00 D0         SET  2,(IX+0),B         ; 877A DD CB 00 D0
09325   877E DD CB 7F D0         set  2,(ix+127),b       ; 877E DD CB 7F D0
09326   8782 DD CB 7F D0         SET  2,(IX+127),B       ; 8782 DD CB 7F D0
09327   8786 DD CB 80 D1         set  2,(ix+-128),c      ; 8786 DD CB 80 D1
09328   878A DD CB 80 D1         SET  2,(IX+-128),C      ; 878A DD CB 80 D1
09329   878E DD CB FF D1         set  2,(ix+-1),c        ; 878E DD CB FF D1
09330   8792 DD CB FF D1         SET  2,(IX+-1),C        ; 8792 DD CB FF D1
09331   8796 DD CB 00 D1         set  2,(ix+0),c         ; 8796 DD CB 00 D1
09332   879A DD CB 00 D1         SET  2,(IX+0),C         ; 879A DD CB 00 D1
09333   879E DD CB 7F D1         set  2,(ix+127),c       ; 879E DD CB 7F D1
09334   87A2 DD CB 7F D1         SET  2,(IX+127),C       ; 87A2 DD CB 7F D1
09335   87A6 DD CB 80 D2         set  2,(ix+-128),d      ; 87A6 DD CB 80 D2
09336   87AA DD CB 80 D2         SET  2,(IX+-128),D      ; 87AA DD CB 80 D2
09337   87AE DD CB FF D2         set  2,(ix+-1),d        ; 87AE DD CB FF D2
09338   87B2 DD CB FF D2         SET  2,(IX+-1),D        ; 87B2 DD CB FF D2
09339   87B6 DD CB 00 D2         set  2,(ix+0),d         ; 87B6 DD CB 00 D2
09340   87BA DD CB 00 D2         SET  2,(IX+0),D         ; 87BA DD CB 00 D2
09341   87BE DD CB 7F D2         set  2,(ix+127),d       ; 87BE DD CB 7F D2
09342   87C2 DD CB 7F D2         SET  2,(IX+127),D       ; 87C2 DD CB 7F D2
09343   87C6 DD CB 80 D3         set  2,(ix+-128),e      ; 87C6 DD CB 80 D3
09344   87CA DD CB 80 D3         SET  2,(IX+-128),E      ; 87CA DD CB 80 D3
09345   87CE DD CB FF D3         set  2,(ix+-1),e        ; 87CE DD CB FF D3
09346   87D2 DD CB FF D3         SET  2,(IX+-1),E        ; 87D2 DD CB FF D3
09347   87D6 DD CB 00 D3         set  2,(ix+0),e         ; 87D6 DD CB 00 D3
09348   87DA DD CB 00 D3         SET  2,(IX+0),E         ; 87DA DD CB 00 D3
09349   87DE DD CB 7F D3         set  2,(ix+127),e       ; 87DE DD CB 7F D3
09350   87E2 DD CB 7F D3         SET  2,(IX+127),E       ; 87E2 DD CB 7F D3
09351   87E6 DD CB 80 D4         set  2,(ix+-128),h      ; 87E6 DD CB 80 D4
09352   87EA DD CB 80 D4         SET  2,(IX+-128),H      ; 87EA DD CB 80 D4
09353   87EE DD CB FF D4         set  2,(ix+-1),h        ; 87EE DD CB FF D4
09354   87F2 DD CB FF D4         SET  2,(IX+-1),H        ; 87F2 DD CB FF D4
09355   87F6 DD CB 00 D4         set  2,(ix+0),h         ; 87F6 DD CB 00 D4
09356   87FA DD CB 00 D4         SET  2,(IX+0),H         ; 87FA DD CB 00 D4
09357   87FE DD CB 7F D4         set  2,(ix+127),h       ; 87FE DD CB 7F D4
09358   8802 DD CB 7F D4         SET  2,(IX+127),H       ; 8802 DD CB 7F D4
09359   8806 DD CB 80 D5         set  2,(ix+-128),l      ; 8806 DD CB 80 D5
09360   880A DD CB 80 D5         SET  2,(IX+-128),L      ; 880A DD CB 80 D5
09361   880E DD CB FF D5         set  2,(ix+-1),l        ; 880E DD CB FF D5
09362   8812 DD CB FF D5         SET  2,(IX+-1),L        ; 8812 DD CB FF D5
09363   8816 DD CB 00 D5         set  2,(ix+0),l         ; 8816 DD CB 00 D5
09364   881A DD CB 00 D5         SET  2,(IX+0),L         ; 881A DD CB 00 D5
09365   881E DD CB 7F D5         set  2,(ix+127),l       ; 881E DD CB 7F D5
09366   8822 DD CB 7F D5         SET  2,(IX+127),L       ; 8822 DD CB 7F D5
09367   8826 FD CB 80 D6         set  2,(iy+-128)        ; 8826 FD CB 80 D6
09368   882A FD CB 80 D6         SET  2,(IY+-128)        ; 882A FD CB 80 D6
09369   882E FD CB FF D6         set  2,(iy+-1)          ; 882E FD CB FF D6
09370   8832 FD CB FF D6         SET  2,(IY+-1)          ; 8832 FD CB FF D6
09371   8836 FD CB 00 D6         set  2,(iy+0)           ; 8836 FD CB 00 D6
09372   883A FD CB 00 D6         SET  2,(IY+0)           ; 883A FD CB 00 D6
09373   883E FD CB 7F D6         set  2,(iy+127)         ; 883E FD CB 7F D6
09374   8842 FD CB 7F D6         SET  2,(IY+127)         ; 8842 FD CB 7F D6
09375   8846 FD CB 80 D7         set  2,(iy+-128),a      ; 8846 FD CB 80 D7
09376   884A FD CB 80 D7         SET  2,(IY+-128),A      ; 884A FD CB 80 D7
09377   884E FD CB FF D7         set  2,(iy+-1),a        ; 884E FD CB FF D7
09378   8852 FD CB FF D7         SET  2,(IY+-1),A        ; 8852 FD CB FF D7
09379   8856 FD CB 00 D7         set  2,(iy+0),a         ; 8856 FD CB 00 D7
09380   885A FD CB 00 D7         SET  2,(IY+0),A         ; 885A FD CB 00 D7
09381   885E FD CB 7F D7         set  2,(iy+127),a       ; 885E FD CB 7F D7
09382   8862 FD CB 7F D7         SET  2,(IY+127),A       ; 8862 FD CB 7F D7
09383   8866 FD CB 80 D0         set  2,(iy+-128),b      ; 8866 FD CB 80 D0
09384   886A FD CB 80 D0         SET  2,(IY+-128),B      ; 886A FD CB 80 D0
09385   886E FD CB FF D0         set  2,(iy+-1),b        ; 886E FD CB FF D0
09386   8872 FD CB FF D0         SET  2,(IY+-1),B        ; 8872 FD CB FF D0
09387   8876 FD CB 00 D0         set  2,(iy+0),b         ; 8876 FD CB 00 D0
09388   887A FD CB 00 D0         SET  2,(IY+0),B         ; 887A FD CB 00 D0
09389   887E FD CB 7F D0         set  2,(iy+127),b       ; 887E FD CB 7F D0
09390   8882 FD CB 7F D0         SET  2,(IY+127),B       ; 8882 FD CB 7F D0
09391   8886 FD CB 80 D1         set  2,(iy+-128),c      ; 8886 FD CB 80 D1
09392   888A FD CB 80 D1         SET  2,(IY+-128),C      ; 888A FD CB 80 D1
09393   888E FD CB FF D1         set  2,(iy+-1),c        ; 888E FD CB FF D1
09394   8892 FD CB FF D1         SET  2,(IY+-1),C        ; 8892 FD CB FF D1
09395   8896 FD CB 00 D1         set  2,(iy+0),c         ; 8896 FD CB 00 D1
09396   889A FD CB 00 D1         SET  2,(IY+0),C         ; 889A FD CB 00 D1
09397   889E FD CB 7F D1         set  2,(iy+127),c       ; 889E FD CB 7F D1
09398   88A2 FD CB 7F D1         SET  2,(IY+127),C       ; 88A2 FD CB 7F D1
09399   88A6 FD CB 80 D2         set  2,(iy+-128),d      ; 88A6 FD CB 80 D2
09400   88AA FD CB 80 D2         SET  2,(IY+-128),D      ; 88AA FD CB 80 D2
09401   88AE FD CB FF D2         set  2,(iy+-1),d        ; 88AE FD CB FF D2
09402   88B2 FD CB FF D2         SET  2,(IY+-1),D        ; 88B2 FD CB FF D2
09403   88B6 FD CB 00 D2         set  2,(iy+0),d         ; 88B6 FD CB 00 D2
09404   88BA FD CB 00 D2         SET  2,(IY+0),D         ; 88BA FD CB 00 D2
09405   88BE FD CB 7F D2         set  2,(iy+127),d       ; 88BE FD CB 7F D2
09406   88C2 FD CB 7F D2         SET  2,(IY+127),D       ; 88C2 FD CB 7F D2
09407   88C6 FD CB 80 D3         set  2,(iy+-128),e      ; 88C6 FD CB 80 D3
09408   88CA FD CB 80 D3         SET  2,(IY+-128),E      ; 88CA FD CB 80 D3
09409   88CE FD CB FF D3         set  2,(iy+-1),e        ; 88CE FD CB FF D3
09410   88D2 FD CB FF D3         SET  2,(IY+-1),E        ; 88D2 FD CB FF D3
09411   88D6 FD CB 00 D3         set  2,(iy+0),e         ; 88D6 FD CB 00 D3
09412   88DA FD CB 00 D3         SET  2,(IY+0),E         ; 88DA FD CB 00 D3
09413   88DE FD CB 7F D3         set  2,(iy+127),e       ; 88DE FD CB 7F D3
09414   88E2 FD CB 7F D3         SET  2,(IY+127),E       ; 88E2 FD CB 7F D3
09415   88E6 FD CB 80 D4         set  2,(iy+-128),h      ; 88E6 FD CB 80 D4
09416   88EA FD CB 80 D4         SET  2,(IY+-128),H      ; 88EA FD CB 80 D4
09417   88EE FD CB FF D4         set  2,(iy+-1),h        ; 88EE FD CB FF D4
09418   88F2 FD CB FF D4         SET  2,(IY+-1),H        ; 88F2 FD CB FF D4
09419   88F6 FD CB 00 D4         set  2,(iy+0),h         ; 88F6 FD CB 00 D4
09420   88FA FD CB 00 D4         SET  2,(IY+0),H         ; 88FA FD CB 00 D4
09421   88FE FD CB 7F D4         set  2,(iy+127),h       ; 88FE FD CB 7F D4
09422   8902 FD CB 7F D4         SET  2,(IY+127),H       ; 8902 FD CB 7F D4
09423   8906 FD CB 80 D5         set  2,(iy+-128),l      ; 8906 FD CB 80 D5
09424   890A FD CB 80 D5         SET  2,(IY+-128),L      ; 890A FD CB 80 D5
09425   890E FD CB FF D5         set  2,(iy+-1),l        ; 890E FD CB FF D5
09426   8912 FD CB FF D5         SET  2,(IY+-1),L        ; 8912 FD CB FF D5
09427   8916 FD CB 00 D5         set  2,(iy+0),l         ; 8916 FD CB 00 D5
09428   891A FD CB 00 D5         SET  2,(IY+0),L         ; 891A FD CB 00 D5
09429   891E FD CB 7F D5         set  2,(iy+127),l       ; 891E FD CB 7F D5
09430   8922 FD CB 7F D5         SET  2,(IY+127),L       ; 8922 FD CB 7F D5
09431   8926 CB D6               set  2,[hl]             ; 8926 CB D6
09432   8928 CB D6               SET  2,[HL]             ; 8928 CB D6
09433   892A DD CB 80 D6         set  2,[ix+-128]        ; 892A DD CB 80 D6
09434   892E DD CB 80 D6         SET  2,[IX+-128]        ; 892E DD CB 80 D6
09435   8932 DD CB FF D6         set  2,[ix+-1]          ; 8932 DD CB FF D6
09436   8936 DD CB FF D6         SET  2,[IX+-1]          ; 8936 DD CB FF D6
09437   893A DD CB 00 D6         set  2,[ix+0]           ; 893A DD CB 00 D6
09438   893E DD CB 00 D6         SET  2,[IX+0]           ; 893E DD CB 00 D6
09439   8942 DD CB 7F D6         set  2,[ix+127]         ; 8942 DD CB 7F D6
09440   8946 DD CB 7F D6         SET  2,[IX+127]         ; 8946 DD CB 7F D6
09441   894A DD CB 80 D7         set  2,[ix+-128],a      ; 894A DD CB 80 D7
09442   894E DD CB 80 D7         SET  2,[IX+-128],A      ; 894E DD CB 80 D7
09443   8952 DD CB FF D7         set  2,[ix+-1],a        ; 8952 DD CB FF D7
09444   8956 DD CB FF D7         SET  2,[IX+-1],A        ; 8956 DD CB FF D7
09445   895A DD CB 00 D7         set  2,[ix+0],a         ; 895A DD CB 00 D7
09446   895E DD CB 00 D7         SET  2,[IX+0],A         ; 895E DD CB 00 D7
09447   8962 DD CB 7F D7         set  2,[ix+127],a       ; 8962 DD CB 7F D7
09448   8966 DD CB 7F D7         SET  2,[IX+127],A       ; 8966 DD CB 7F D7
09449   896A DD CB 80 D0         set  2,[ix+-128],b      ; 896A DD CB 80 D0
09450   896E DD CB 80 D0         SET  2,[IX+-128],B      ; 896E DD CB 80 D0
09451   8972 DD CB FF D0         set  2,[ix+-1],b        ; 8972 DD CB FF D0
09452   8976 DD CB FF D0         SET  2,[IX+-1],B        ; 8976 DD CB FF D0
09453   897A DD CB 00 D0         set  2,[ix+0],b         ; 897A DD CB 00 D0
09454   897E DD CB 00 D0         SET  2,[IX+0],B         ; 897E DD CB 00 D0
09455   8982 DD CB 7F D0         set  2,[ix+127],b       ; 8982 DD CB 7F D0
09456   8986 DD CB 7F D0         SET  2,[IX+127],B       ; 8986 DD CB 7F D0
09457   898A DD CB 80 D1         set  2,[ix+-128],c      ; 898A DD CB 80 D1
09458   898E DD CB 80 D1         SET  2,[IX+-128],C      ; 898E DD CB 80 D1
09459   8992 DD CB FF D1         set  2,[ix+-1],c        ; 8992 DD CB FF D1
09460   8996 DD CB FF D1         SET  2,[IX+-1],C        ; 8996 DD CB FF D1
09461   899A DD CB 00 D1         set  2,[ix+0],c         ; 899A DD CB 00 D1
09462   899E DD CB 00 D1         SET  2,[IX+0],C         ; 899E DD CB 00 D1
09463   89A2 DD CB 7F D1         set  2,[ix+127],c       ; 89A2 DD CB 7F D1
09464   89A6 DD CB 7F D1         SET  2,[IX+127],C       ; 89A6 DD CB 7F D1
09465   89AA DD CB 80 D2         set  2,[ix+-128],d      ; 89AA DD CB 80 D2
09466   89AE DD CB 80 D2         SET  2,[IX+-128],D      ; 89AE DD CB 80 D2
09467   89B2 DD CB FF D2         set  2,[ix+-1],d        ; 89B2 DD CB FF D2
09468   89B6 DD CB FF D2         SET  2,[IX+-1],D        ; 89B6 DD CB FF D2
09469   89BA DD CB 00 D2         set  2,[ix+0],d         ; 89BA DD CB 00 D2
09470   89BE DD CB 00 D2         SET  2,[IX+0],D         ; 89BE DD CB 00 D2
09471   89C2 DD CB 7F D2         set  2,[ix+127],d       ; 89C2 DD CB 7F D2
09472   89C6 DD CB 7F D2         SET  2,[IX+127],D       ; 89C6 DD CB 7F D2
09473   89CA DD CB 80 D3         set  2,[ix+-128],e      ; 89CA DD CB 80 D3
09474   89CE DD CB 80 D3         SET  2,[IX+-128],E      ; 89CE DD CB 80 D3
09475   89D2 DD CB FF D3         set  2,[ix+-1],e        ; 89D2 DD CB FF D3
09476   89D6 DD CB FF D3         SET  2,[IX+-1],E        ; 89D6 DD CB FF D3
09477   89DA DD CB 00 D3         set  2,[ix+0],e         ; 89DA DD CB 00 D3
09478   89DE DD CB 00 D3         SET  2,[IX+0],E         ; 89DE DD CB 00 D3
09479   89E2 DD CB 7F D3         set  2,[ix+127],e       ; 89E2 DD CB 7F D3
09480   89E6 DD CB 7F D3         SET  2,[IX+127],E       ; 89E6 DD CB 7F D3
09481   89EA DD CB 80 D4         set  2,[ix+-128],h      ; 89EA DD CB 80 D4
09482   89EE DD CB 80 D4         SET  2,[IX+-128],H      ; 89EE DD CB 80 D4
09483   89F2 DD CB FF D4         set  2,[ix+-1],h        ; 89F2 DD CB FF D4
09484   89F6 DD CB FF D4         SET  2,[IX+-1],H        ; 89F6 DD CB FF D4
09485   89FA DD CB 00 D4         set  2,[ix+0],h         ; 89FA DD CB 00 D4
09486   89FE DD CB 00 D4         SET  2,[IX+0],H         ; 89FE DD CB 00 D4
09487   8A02 DD CB 7F D4         set  2,[ix+127],h       ; 8A02 DD CB 7F D4
09488   8A06 DD CB 7F D4         SET  2,[IX+127],H       ; 8A06 DD CB 7F D4
09489   8A0A DD CB 80 D5         set  2,[ix+-128],l      ; 8A0A DD CB 80 D5
09490   8A0E DD CB 80 D5         SET  2,[IX+-128],L      ; 8A0E DD CB 80 D5
09491   8A12 DD CB FF D5         set  2,[ix+-1],l        ; 8A12 DD CB FF D5
09492   8A16 DD CB FF D5         SET  2,[IX+-1],L        ; 8A16 DD CB FF D5
09493   8A1A DD CB 00 D5         set  2,[ix+0],l         ; 8A1A DD CB 00 D5
09494   8A1E DD CB 00 D5         SET  2,[IX+0],L         ; 8A1E DD CB 00 D5
09495   8A22 DD CB 7F D5         set  2,[ix+127],l       ; 8A22 DD CB 7F D5
09496   8A26 DD CB 7F D5         SET  2,[IX+127],L       ; 8A26 DD CB 7F D5
09497   8A2A FD CB 80 D6         set  2,[iy+-128]        ; 8A2A FD CB 80 D6
09498   8A2E FD CB 80 D6         SET  2,[IY+-128]        ; 8A2E FD CB 80 D6
09499   8A32 FD CB FF D6         set  2,[iy+-1]          ; 8A32 FD CB FF D6
09500   8A36 FD CB FF D6         SET  2,[IY+-1]          ; 8A36 FD CB FF D6
09501   8A3A FD CB 00 D6         set  2,[iy+0]           ; 8A3A FD CB 00 D6
09502   8A3E FD CB 00 D6         SET  2,[IY+0]           ; 8A3E FD CB 00 D6
09503   8A42 FD CB 7F D6         set  2,[iy+127]         ; 8A42 FD CB 7F D6
09504   8A46 FD CB 7F D6         SET  2,[IY+127]         ; 8A46 FD CB 7F D6
09505   8A4A FD CB 80 D7         set  2,[iy+-128],a      ; 8A4A FD CB 80 D7
09506   8A4E FD CB 80 D7         SET  2,[IY+-128],A      ; 8A4E FD CB 80 D7
09507   8A52 FD CB FF D7         set  2,[iy+-1],a        ; 8A52 FD CB FF D7
09508   8A56 FD CB FF D7         SET  2,[IY+-1],A        ; 8A56 FD CB FF D7
09509   8A5A FD CB 00 D7         set  2,[iy+0],a         ; 8A5A FD CB 00 D7
09510   8A5E FD CB 00 D7         SET  2,[IY+0],A         ; 8A5E FD CB 00 D7
09511   8A62 FD CB 7F D7         set  2,[iy+127],a       ; 8A62 FD CB 7F D7
09512   8A66 FD CB 7F D7         SET  2,[IY+127],A       ; 8A66 FD CB 7F D7
09513   8A6A FD CB 80 D0         set  2,[iy+-128],b      ; 8A6A FD CB 80 D0
09514   8A6E FD CB 80 D0         SET  2,[IY+-128],B      ; 8A6E FD CB 80 D0
09515   8A72 FD CB FF D0         set  2,[iy+-1],b        ; 8A72 FD CB FF D0
09516   8A76 FD CB FF D0         SET  2,[IY+-1],B        ; 8A76 FD CB FF D0
09517   8A7A FD CB 00 D0         set  2,[iy+0],b         ; 8A7A FD CB 00 D0
09518   8A7E FD CB 00 D0         SET  2,[IY+0],B         ; 8A7E FD CB 00 D0
09519   8A82 FD CB 7F D0         set  2,[iy+127],b       ; 8A82 FD CB 7F D0
09520   8A86 FD CB 7F D0         SET  2,[IY+127],B       ; 8A86 FD CB 7F D0
09521   8A8A FD CB 80 D1         set  2,[iy+-128],c      ; 8A8A FD CB 80 D1
09522   8A8E FD CB 80 D1         SET  2,[IY+-128],C      ; 8A8E FD CB 80 D1
09523   8A92 FD CB FF D1         set  2,[iy+-1],c        ; 8A92 FD CB FF D1
09524   8A96 FD CB FF D1         SET  2,[IY+-1],C        ; 8A96 FD CB FF D1
09525   8A9A FD CB 00 D1         set  2,[iy+0],c         ; 8A9A FD CB 00 D1
09526   8A9E FD CB 00 D1         SET  2,[IY+0],C         ; 8A9E FD CB 00 D1
09527   8AA2 FD CB 7F D1         set  2,[iy+127],c       ; 8AA2 FD CB 7F D1
09528   8AA6 FD CB 7F D1         SET  2,[IY+127],C       ; 8AA6 FD CB 7F D1
09529   8AAA FD CB 80 D2         set  2,[iy+-128],d      ; 8AAA FD CB 80 D2
09530   8AAE FD CB 80 D2         SET  2,[IY+-128],D      ; 8AAE FD CB 80 D2
09531   8AB2 FD CB FF D2         set  2,[iy+-1],d        ; 8AB2 FD CB FF D2
09532   8AB6 FD CB FF D2         SET  2,[IY+-1],D        ; 8AB6 FD CB FF D2
09533   8ABA FD CB 00 D2         set  2,[iy+0],d         ; 8ABA FD CB 00 D2
09534   8ABE FD CB 00 D2         SET  2,[IY+0],D         ; 8ABE FD CB 00 D2
09535   8AC2 FD CB 7F D2         set  2,[iy+127],d       ; 8AC2 FD CB 7F D2
09536   8AC6 FD CB 7F D2         SET  2,[IY+127],D       ; 8AC6 FD CB 7F D2
09537   8ACA FD CB 80 D3         set  2,[iy+-128],e      ; 8ACA FD CB 80 D3
09538   8ACE FD CB 80 D3         SET  2,[IY+-128],E      ; 8ACE FD CB 80 D3
09539   8AD2 FD CB FF D3         set  2,[iy+-1],e        ; 8AD2 FD CB FF D3
09540   8AD6 FD CB FF D3         SET  2,[IY+-1],E        ; 8AD6 FD CB FF D3
09541   8ADA FD CB 00 D3         set  2,[iy+0],e         ; 8ADA FD CB 00 D3
09542   8ADE FD CB 00 D3         SET  2,[IY+0],E         ; 8ADE FD CB 00 D3
09543   8AE2 FD CB 7F D3         set  2,[iy+127],e       ; 8AE2 FD CB 7F D3
09544   8AE6 FD CB 7F D3         SET  2,[IY+127],E       ; 8AE6 FD CB 7F D3
09545   8AEA FD CB 80 D4         set  2,[iy+-128],h      ; 8AEA FD CB 80 D4
09546   8AEE FD CB 80 D4         SET  2,[IY+-128],H      ; 8AEE FD CB 80 D4
09547   8AF2 FD CB FF D4         set  2,[iy+-1],h        ; 8AF2 FD CB FF D4
09548   8AF6 FD CB FF D4         SET  2,[IY+-1],H        ; 8AF6 FD CB FF D4
09549   8AFA FD CB 00 D4         set  2,[iy+0],h         ; 8AFA FD CB 00 D4
09550   8AFE FD CB 00 D4         SET  2,[IY+0],H         ; 8AFE FD CB 00 D4
09551   8B02 FD CB 7F D4         set  2,[iy+127],h       ; 8B02 FD CB 7F D4
09552   8B06 FD CB 7F D4         SET  2,[IY+127],H       ; 8B06 FD CB 7F D4
09553   8B0A FD CB 80 D5         set  2,[iy+-128],l      ; 8B0A FD CB 80 D5
09554   8B0E FD CB 80 D5         SET  2,[IY+-128],L      ; 8B0E FD CB 80 D5
09555   8B12 FD CB FF D5         set  2,[iy+-1],l        ; 8B12 FD CB FF D5
09556   8B16 FD CB FF D5         SET  2,[IY+-1],L        ; 8B16 FD CB FF D5
09557   8B1A FD CB 00 D5         set  2,[iy+0],l         ; 8B1A FD CB 00 D5
09558   8B1E FD CB 00 D5         SET  2,[IY+0],L         ; 8B1E FD CB 00 D5
09559   8B22 FD CB 7F D5         set  2,[iy+127],l       ; 8B22 FD CB 7F D5
09560   8B26 FD CB 7F D5         SET  2,[IY+127],L       ; 8B26 FD CB 7F D5
09561   8B2A CB D7               set  2,a                ; 8B2A CB D7
09562   8B2C CB D7               SET  2,A                ; 8B2C CB D7
09563   8B2E CB D0               set  2,b                ; 8B2E CB D0
09564   8B30 CB D0               SET  2,B                ; 8B30 CB D0
09565   8B32 CB D1               set  2,c                ; 8B32 CB D1
09566   8B34 CB D1               SET  2,C                ; 8B34 CB D1
09567   8B36 CB D2               set  2,d                ; 8B36 CB D2
09568   8B38 CB D2               SET  2,D                ; 8B38 CB D2
09569   8B3A CB D3               set  2,e                ; 8B3A CB D3
09570   8B3C CB D3               SET  2,E                ; 8B3C CB D3
09571   8B3E CB D4               set  2,h                ; 8B3E CB D4
09572   8B40 CB D4               SET  2,H                ; 8B40 CB D4
09573   8B42 CB D5               set  2,l                ; 8B42 CB D5
09574   8B44 CB D5               SET  2,L                ; 8B44 CB D5
09575   8B46 CB DE               set  3,(hl)             ; 8B46 CB DE
09576   8B48 CB DE               SET  3,(HL)             ; 8B48 CB DE
09577   8B4A DD CB 80 DE         set  3,(ix+-128)        ; 8B4A DD CB 80 DE
09578   8B4E DD CB 80 DE         SET  3,(IX+-128)        ; 8B4E DD CB 80 DE
09579   8B52 DD CB FF DE         set  3,(ix+-1)          ; 8B52 DD CB FF DE
09580   8B56 DD CB FF DE         SET  3,(IX+-1)          ; 8B56 DD CB FF DE
09581   8B5A DD CB 00 DE         set  3,(ix+0)           ; 8B5A DD CB 00 DE
09582   8B5E DD CB 00 DE         SET  3,(IX+0)           ; 8B5E DD CB 00 DE
09583   8B62 DD CB 7F DE         set  3,(ix+127)         ; 8B62 DD CB 7F DE
09584   8B66 DD CB 7F DE         SET  3,(IX+127)         ; 8B66 DD CB 7F DE
09585   8B6A DD CB 80 DF         set  3,(ix+-128),a      ; 8B6A DD CB 80 DF
09586   8B6E DD CB 80 DF         SET  3,(IX+-128),A      ; 8B6E DD CB 80 DF
09587   8B72 DD CB FF DF         set  3,(ix+-1),a        ; 8B72 DD CB FF DF
09588   8B76 DD CB FF DF         SET  3,(IX+-1),A        ; 8B76 DD CB FF DF
09589   8B7A DD CB 00 DF         set  3,(ix+0),a         ; 8B7A DD CB 00 DF
09590   8B7E DD CB 00 DF         SET  3,(IX+0),A         ; 8B7E DD CB 00 DF
09591   8B82 DD CB 7F DF         set  3,(ix+127),a       ; 8B82 DD CB 7F DF
09592   8B86 DD CB 7F DF         SET  3,(IX+127),A       ; 8B86 DD CB 7F DF
09593   8B8A DD CB 80 D8         set  3,(ix+-128),b      ; 8B8A DD CB 80 D8
09594   8B8E DD CB 80 D8         SET  3,(IX+-128),B      ; 8B8E DD CB 80 D8
09595   8B92 DD CB FF D8         set  3,(ix+-1),b        ; 8B92 DD CB FF D8
09596   8B96 DD CB FF D8         SET  3,(IX+-1),B        ; 8B96 DD CB FF D8
09597   8B9A DD CB 00 D8         set  3,(ix+0),b         ; 8B9A DD CB 00 D8
09598   8B9E DD CB 00 D8         SET  3,(IX+0),B         ; 8B9E DD CB 00 D8
09599   8BA2 DD CB 7F D8         set  3,(ix+127),b       ; 8BA2 DD CB 7F D8
09600   8BA6 DD CB 7F D8         SET  3,(IX+127),B       ; 8BA6 DD CB 7F D8
09601   8BAA DD CB 80 D9         set  3,(ix+-128),c      ; 8BAA DD CB 80 D9
09602   8BAE DD CB 80 D9         SET  3,(IX+-128),C      ; 8BAE DD CB 80 D9
09603   8BB2 DD CB FF D9         set  3,(ix+-1),c        ; 8BB2 DD CB FF D9
09604   8BB6 DD CB FF D9         SET  3,(IX+-1),C        ; 8BB6 DD CB FF D9
09605   8BBA DD CB 00 D9         set  3,(ix+0),c         ; 8BBA DD CB 00 D9
09606   8BBE DD CB 00 D9         SET  3,(IX+0),C         ; 8BBE DD CB 00 D9
09607   8BC2 DD CB 7F D9         set  3,(ix+127),c       ; 8BC2 DD CB 7F D9
09608   8BC6 DD CB 7F D9         SET  3,(IX+127),C       ; 8BC6 DD CB 7F D9
09609   8BCA DD CB 80 DA         set  3,(ix+-128),d      ; 8BCA DD CB 80 DA
09610   8BCE DD CB 80 DA         SET  3,(IX+-128),D      ; 8BCE DD CB 80 DA
09611   8BD2 DD CB FF DA         set  3,(ix+-1),d        ; 8BD2 DD CB FF DA
09612   8BD6 DD CB FF DA         SET  3,(IX+-1),D        ; 8BD6 DD CB FF DA
09613   8BDA DD CB 00 DA         set  3,(ix+0),d         ; 8BDA DD CB 00 DA
09614   8BDE DD CB 00 DA         SET  3,(IX+0),D         ; 8BDE DD CB 00 DA
09615   8BE2 DD CB 7F DA         set  3,(ix+127),d       ; 8BE2 DD CB 7F DA
09616   8BE6 DD CB 7F DA         SET  3,(IX+127),D       ; 8BE6 DD CB 7F DA
09617   8BEA DD CB 80 DB         set  3,(ix+-128),e      ; 8BEA DD CB 80 DB
09618   8BEE DD CB 80 DB         SET  3,(IX+-128),E      ; 8BEE DD CB 80 DB
09619   8BF2 DD CB FF DB         set  3,(ix+-1),e        ; 8BF2 DD CB FF DB
09620   8BF6 DD CB FF DB         SET  3,(IX+-1),E        ; 8BF6 DD CB FF DB
09621   8BFA DD CB 00 DB         set  3,(ix+0),e         ; 8BFA DD CB 00 DB
09622   8BFE DD CB 00 DB         SET  3,(IX+0),E         ; 8BFE DD CB 00 DB
09623   8C02 DD CB 7F DB         set  3,(ix+127),e       ; 8C02 DD CB 7F DB
09624   8C06 DD CB 7F DB         SET  3,(IX+127),E       ; 8C06 DD CB 7F DB
09625   8C0A DD CB 80 DC         set  3,(ix+-128),h      ; 8C0A DD CB 80 DC
09626   8C0E DD CB 80 DC         SET  3,(IX+-128),H      ; 8C0E DD CB 80 DC
09627   8C12 DD CB FF DC         set  3,(ix+-1),h        ; 8C12 DD CB FF DC
09628   8C16 DD CB FF DC         SET  3,(IX+-1),H        ; 8C16 DD CB FF DC
09629   8C1A DD CB 00 DC         set  3,(ix+0),h         ; 8C1A DD CB 00 DC
09630   8C1E DD CB 00 DC         SET  3,(IX+0),H         ; 8C1E DD CB 00 DC
09631   8C22 DD CB 7F DC         set  3,(ix+127),h       ; 8C22 DD CB 7F DC
09632   8C26 DD CB 7F DC         SET  3,(IX+127),H       ; 8C26 DD CB 7F DC
09633   8C2A DD CB 80 DD         set  3,(ix+-128),l      ; 8C2A DD CB 80 DD
09634   8C2E DD CB 80 DD         SET  3,(IX+-128),L      ; 8C2E DD CB 80 DD
09635   8C32 DD CB FF DD         set  3,(ix+-1),l        ; 8C32 DD CB FF DD
09636   8C36 DD CB FF DD         SET  3,(IX+-1),L        ; 8C36 DD CB FF DD
09637   8C3A DD CB 00 DD         set  3,(ix+0),l         ; 8C3A DD CB 00 DD
09638   8C3E DD CB 00 DD         SET  3,(IX+0),L         ; 8C3E DD CB 00 DD
09639   8C42 DD CB 7F DD         set  3,(ix+127),l       ; 8C42 DD CB 7F DD
09640   8C46 DD CB 7F DD         SET  3,(IX+127),L       ; 8C46 DD CB 7F DD
09641   8C4A FD CB 80 DE         set  3,(iy+-128)        ; 8C4A FD CB 80 DE
09642   8C4E FD CB 80 DE         SET  3,(IY+-128)        ; 8C4E FD CB 80 DE
09643   8C52 FD CB FF DE         set  3,(iy+-1)          ; 8C52 FD CB FF DE
09644   8C56 FD CB FF DE         SET  3,(IY+-1)          ; 8C56 FD CB FF DE
09645   8C5A FD CB 00 DE         set  3,(iy+0)           ; 8C5A FD CB 00 DE
09646   8C5E FD CB 00 DE         SET  3,(IY+0)           ; 8C5E FD CB 00 DE
09647   8C62 FD CB 7F DE         set  3,(iy+127)         ; 8C62 FD CB 7F DE
09648   8C66 FD CB 7F DE         SET  3,(IY+127)         ; 8C66 FD CB 7F DE
09649   8C6A FD CB 80 DF         set  3,(iy+-128),a      ; 8C6A FD CB 80 DF
09650   8C6E FD CB 80 DF         SET  3,(IY+-128),A      ; 8C6E FD CB 80 DF
09651   8C72 FD CB FF DF         set  3,(iy+-1),a        ; 8C72 FD CB FF DF
09652   8C76 FD CB FF DF         SET  3,(IY+-1),A        ; 8C76 FD CB FF DF
09653   8C7A FD CB 00 DF         set  3,(iy+0),a         ; 8C7A FD CB 00 DF
09654   8C7E FD CB 00 DF         SET  3,(IY+0),A         ; 8C7E FD CB 00 DF
09655   8C82 FD CB 7F DF         set  3,(iy+127),a       ; 8C82 FD CB 7F DF
09656   8C86 FD CB 7F DF         SET  3,(IY+127),A       ; 8C86 FD CB 7F DF
09657   8C8A FD CB 80 D8         set  3,(iy+-128),b      ; 8C8A FD CB 80 D8
09658   8C8E FD CB 80 D8         SET  3,(IY+-128),B      ; 8C8E FD CB 80 D8
09659   8C92 FD CB FF D8         set  3,(iy+-1),b        ; 8C92 FD CB FF D8
09660   8C96 FD CB FF D8         SET  3,(IY+-1),B        ; 8C96 FD CB FF D8
09661   8C9A FD CB 00 D8         set  3,(iy+0),b         ; 8C9A FD CB 00 D8
09662   8C9E FD CB 00 D8         SET  3,(IY+0),B         ; 8C9E FD CB 00 D8
09663   8CA2 FD CB 7F D8         set  3,(iy+127),b       ; 8CA2 FD CB 7F D8
09664   8CA6 FD CB 7F D8         SET  3,(IY+127),B       ; 8CA6 FD CB 7F D8
09665   8CAA FD CB 80 D9         set  3,(iy+-128),c      ; 8CAA FD CB 80 D9
09666   8CAE FD CB 80 D9         SET  3,(IY+-128),C      ; 8CAE FD CB 80 D9
09667   8CB2 FD CB FF D9         set  3,(iy+-1),c        ; 8CB2 FD CB FF D9
09668   8CB6 FD CB FF D9         SET  3,(IY+-1),C        ; 8CB6 FD CB FF D9
09669   8CBA FD CB 00 D9         set  3,(iy+0),c         ; 8CBA FD CB 00 D9
09670   8CBE FD CB 00 D9         SET  3,(IY+0),C         ; 8CBE FD CB 00 D9
09671   8CC2 FD CB 7F D9         set  3,(iy+127),c       ; 8CC2 FD CB 7F D9
09672   8CC6 FD CB 7F D9         SET  3,(IY+127),C       ; 8CC6 FD CB 7F D9
09673   8CCA FD CB 80 DA         set  3,(iy+-128),d      ; 8CCA FD CB 80 DA
09674   8CCE FD CB 80 DA         SET  3,(IY+-128),D      ; 8CCE FD CB 80 DA
09675   8CD2 FD CB FF DA         set  3,(iy+-1),d        ; 8CD2 FD CB FF DA
09676   8CD6 FD CB FF DA         SET  3,(IY+-1),D        ; 8CD6 FD CB FF DA
09677   8CDA FD CB 00 DA         set  3,(iy+0),d         ; 8CDA FD CB 00 DA
09678   8CDE FD CB 00 DA         SET  3,(IY+0),D         ; 8CDE FD CB 00 DA
09679   8CE2 FD CB 7F DA         set  3,(iy+127),d       ; 8CE2 FD CB 7F DA
09680   8CE6 FD CB 7F DA         SET  3,(IY+127),D       ; 8CE6 FD CB 7F DA
09681   8CEA FD CB 80 DB         set  3,(iy+-128),e      ; 8CEA FD CB 80 DB
09682   8CEE FD CB 80 DB         SET  3,(IY+-128),E      ; 8CEE FD CB 80 DB
09683   8CF2 FD CB FF DB         set  3,(iy+-1),e        ; 8CF2 FD CB FF DB
09684   8CF6 FD CB FF DB         SET  3,(IY+-1),E        ; 8CF6 FD CB FF DB
09685   8CFA FD CB 00 DB         set  3,(iy+0),e         ; 8CFA FD CB 00 DB
09686   8CFE FD CB 00 DB         SET  3,(IY+0),E         ; 8CFE FD CB 00 DB
09687   8D02 FD CB 7F DB         set  3,(iy+127),e       ; 8D02 FD CB 7F DB
09688   8D06 FD CB 7F DB         SET  3,(IY+127),E       ; 8D06 FD CB 7F DB
09689   8D0A FD CB 80 DC         set  3,(iy+-128),h      ; 8D0A FD CB 80 DC
09690   8D0E FD CB 80 DC         SET  3,(IY+-128),H      ; 8D0E FD CB 80 DC
09691   8D12 FD CB FF DC         set  3,(iy+-1),h        ; 8D12 FD CB FF DC
09692   8D16 FD CB FF DC         SET  3,(IY+-1),H        ; 8D16 FD CB FF DC
09693   8D1A FD CB 00 DC         set  3,(iy+0),h         ; 8D1A FD CB 00 DC
09694   8D1E FD CB 00 DC         SET  3,(IY+0),H         ; 8D1E FD CB 00 DC
09695   8D22 FD CB 7F DC         set  3,(iy+127),h       ; 8D22 FD CB 7F DC
09696   8D26 FD CB 7F DC         SET  3,(IY+127),H       ; 8D26 FD CB 7F DC
09697   8D2A FD CB 80 DD         set  3,(iy+-128),l      ; 8D2A FD CB 80 DD
09698   8D2E FD CB 80 DD         SET  3,(IY+-128),L      ; 8D2E FD CB 80 DD
09699   8D32 FD CB FF DD         set  3,(iy+-1),l        ; 8D32 FD CB FF DD
09700   8D36 FD CB FF DD         SET  3,(IY+-1),L        ; 8D36 FD CB FF DD
09701   8D3A FD CB 00 DD         set  3,(iy+0),l         ; 8D3A FD CB 00 DD
09702   8D3E FD CB 00 DD         SET  3,(IY+0),L         ; 8D3E FD CB 00 DD
09703   8D42 FD CB 7F DD         set  3,(iy+127),l       ; 8D42 FD CB 7F DD
09704   8D46 FD CB 7F DD         SET  3,(IY+127),L       ; 8D46 FD CB 7F DD
09705   8D4A CB DE               set  3,[hl]             ; 8D4A CB DE
09706   8D4C CB DE               SET  3,[HL]             ; 8D4C CB DE
09707   8D4E DD CB 80 DE         set  3,[ix+-128]        ; 8D4E DD CB 80 DE
09708   8D52 DD CB 80 DE         SET  3,[IX+-128]        ; 8D52 DD CB 80 DE
09709   8D56 DD CB FF DE         set  3,[ix+-1]          ; 8D56 DD CB FF DE
09710   8D5A DD CB FF DE         SET  3,[IX+-1]          ; 8D5A DD CB FF DE
09711   8D5E DD CB 00 DE         set  3,[ix+0]           ; 8D5E DD CB 00 DE
09712   8D62 DD CB 00 DE         SET  3,[IX+0]           ; 8D62 DD CB 00 DE
09713   8D66 DD CB 7F DE         set  3,[ix+127]         ; 8D66 DD CB 7F DE
09714   8D6A DD CB 7F DE         SET  3,[IX+127]         ; 8D6A DD CB 7F DE
09715   8D6E DD CB 80 DF         set  3,[ix+-128],a      ; 8D6E DD CB 80 DF
09716   8D72 DD CB 80 DF         SET  3,[IX+-128],A      ; 8D72 DD CB 80 DF
09717   8D76 DD CB FF DF         set  3,[ix+-1],a        ; 8D76 DD CB FF DF
09718   8D7A DD CB FF DF         SET  3,[IX+-1],A        ; 8D7A DD CB FF DF
09719   8D7E DD CB 00 DF         set  3,[ix+0],a         ; 8D7E DD CB 00 DF
09720   8D82 DD CB 00 DF         SET  3,[IX+0],A         ; 8D82 DD CB 00 DF
09721   8D86 DD CB 7F DF         set  3,[ix+127],a       ; 8D86 DD CB 7F DF
09722   8D8A DD CB 7F DF         SET  3,[IX+127],A       ; 8D8A DD CB 7F DF
09723   8D8E DD CB 80 D8         set  3,[ix+-128],b      ; 8D8E DD CB 80 D8
09724   8D92 DD CB 80 D8         SET  3,[IX+-128],B      ; 8D92 DD CB 80 D8
09725   8D96 DD CB FF D8         set  3,[ix+-1],b        ; 8D96 DD CB FF D8
09726   8D9A DD CB FF D8         SET  3,[IX+-1],B        ; 8D9A DD CB FF D8
09727   8D9E DD CB 00 D8         set  3,[ix+0],b         ; 8D9E DD CB 00 D8
09728   8DA2 DD CB 00 D8         SET  3,[IX+0],B         ; 8DA2 DD CB 00 D8
09729   8DA6 DD CB 7F D8         set  3,[ix+127],b       ; 8DA6 DD CB 7F D8
09730   8DAA DD CB 7F D8         SET  3,[IX+127],B       ; 8DAA DD CB 7F D8
09731   8DAE DD CB 80 D9         set  3,[ix+-128],c      ; 8DAE DD CB 80 D9
09732   8DB2 DD CB 80 D9         SET  3,[IX+-128],C      ; 8DB2 DD CB 80 D9
09733   8DB6 DD CB FF D9         set  3,[ix+-1],c        ; 8DB6 DD CB FF D9
09734   8DBA DD CB FF D9         SET  3,[IX+-1],C        ; 8DBA DD CB FF D9
09735   8DBE DD CB 00 D9         set  3,[ix+0],c         ; 8DBE DD CB 00 D9
09736   8DC2 DD CB 00 D9         SET  3,[IX+0],C         ; 8DC2 DD CB 00 D9
09737   8DC6 DD CB 7F D9         set  3,[ix+127],c       ; 8DC6 DD CB 7F D9
09738   8DCA DD CB 7F D9         SET  3,[IX+127],C       ; 8DCA DD CB 7F D9
09739   8DCE DD CB 80 DA         set  3,[ix+-128],d      ; 8DCE DD CB 80 DA
09740   8DD2 DD CB 80 DA         SET  3,[IX+-128],D      ; 8DD2 DD CB 80 DA
09741   8DD6 DD CB FF DA         set  3,[ix+-1],d        ; 8DD6 DD CB FF DA
09742   8DDA DD CB FF DA         SET  3,[IX+-1],D        ; 8DDA DD CB FF DA
09743   8DDE DD CB 00 DA         set  3,[ix+0],d         ; 8DDE DD CB 00 DA
09744   8DE2 DD CB 00 DA         SET  3,[IX+0],D         ; 8DE2 DD CB 00 DA
09745   8DE6 DD CB 7F DA         set  3,[ix+127],d       ; 8DE6 DD CB 7F DA
09746   8DEA DD CB 7F DA         SET  3,[IX+127],D       ; 8DEA DD CB 7F DA
09747   8DEE DD CB 80 DB         set  3,[ix+-128],e      ; 8DEE DD CB 80 DB
09748   8DF2 DD CB 80 DB         SET  3,[IX+-128],E      ; 8DF2 DD CB 80 DB
09749   8DF6 DD CB FF DB         set  3,[ix+-1],e        ; 8DF6 DD CB FF DB
09750   8DFA DD CB FF DB         SET  3,[IX+-1],E        ; 8DFA DD CB FF DB
09751   8DFE DD CB 00 DB         set  3,[ix+0],e         ; 8DFE DD CB 00 DB
09752   8E02 DD CB 00 DB         SET  3,[IX+0],E         ; 8E02 DD CB 00 DB
09753   8E06 DD CB 7F DB         set  3,[ix+127],e       ; 8E06 DD CB 7F DB
09754   8E0A DD CB 7F DB         SET  3,[IX+127],E       ; 8E0A DD CB 7F DB
09755   8E0E DD CB 80 DC         set  3,[ix+-128],h      ; 8E0E DD CB 80 DC
09756   8E12 DD CB 80 DC         SET  3,[IX+-128],H      ; 8E12 DD CB 80 DC
09757   8E16 DD CB FF DC         set  3,[ix+-1],h        ; 8E16 DD CB FF DC
09758   8E1A DD CB FF DC         SET  3,[IX+-1],H        ; 8E1A DD CB FF DC
09759   8E1E DD CB 00 DC         set  3,[ix+0],h         ; 8E1E DD CB 00 DC
09760   8E22 DD CB 00 DC         SET  3,[IX+0],H         ; 8E22 DD CB 00 DC
09761   8E26 DD CB 7F DC         set  3,[ix+127],h       ; 8E26 DD CB 7F DC
09762   8E2A DD CB 7F DC         SET  3,[IX+127],H       ; 8E2A DD CB 7F DC
09763   8E2E DD CB 80 DD         set  3,[ix+-128],l      ; 8E2E DD CB 80 DD
09764   8E32 DD CB 80 DD         SET  3,[IX+-128],L      ; 8E32 DD CB 80 DD
09765   8E36 DD CB FF DD         set  3,[ix+-1],l        ; 8E36 DD CB FF DD
09766   8E3A DD CB FF DD         SET  3,[IX+-1],L        ; 8E3A DD CB FF DD
09767   8E3E DD CB 00 DD         set  3,[ix+0],l         ; 8E3E DD CB 00 DD
09768   8E42 DD CB 00 DD         SET  3,[IX+0],L         ; 8E42 DD CB 00 DD
09769   8E46 DD CB 7F DD         set  3,[ix+127],l       ; 8E46 DD CB 7F DD
09770   8E4A DD CB 7F DD         SET  3,[IX+127],L       ; 8E4A DD CB 7F DD
09771   8E4E FD CB 80 DE         set  3,[iy+-128]        ; 8E4E FD CB 80 DE
09772   8E52 FD CB 80 DE         SET  3,[IY+-128]        ; 8E52 FD CB 80 DE
09773   8E56 FD CB FF DE         set  3,[iy+-1]          ; 8E56 FD CB FF DE
09774   8E5A FD CB FF DE         SET  3,[IY+-1]          ; 8E5A FD CB FF DE
09775   8E5E FD CB 00 DE         set  3,[iy+0]           ; 8E5E FD CB 00 DE
09776   8E62 FD CB 00 DE         SET  3,[IY+0]           ; 8E62 FD CB 00 DE
09777   8E66 FD CB 7F DE         set  3,[iy+127]         ; 8E66 FD CB 7F DE
09778   8E6A FD CB 7F DE         SET  3,[IY+127]         ; 8E6A FD CB 7F DE
09779   8E6E FD CB 80 DF         set  3,[iy+-128],a      ; 8E6E FD CB 80 DF
09780   8E72 FD CB 80 DF         SET  3,[IY+-128],A      ; 8E72 FD CB 80 DF
09781   8E76 FD CB FF DF         set  3,[iy+-1],a        ; 8E76 FD CB FF DF
09782   8E7A FD CB FF DF         SET  3,[IY+-1],A        ; 8E7A FD CB FF DF
09783   8E7E FD CB 00 DF         set  3,[iy+0],a         ; 8E7E FD CB 00 DF
09784   8E82 FD CB 00 DF         SET  3,[IY+0],A         ; 8E82 FD CB 00 DF
09785   8E86 FD CB 7F DF         set  3,[iy+127],a       ; 8E86 FD CB 7F DF
09786   8E8A FD CB 7F DF         SET  3,[IY+127],A       ; 8E8A FD CB 7F DF
09787   8E8E FD CB 80 D8         set  3,[iy+-128],b      ; 8E8E FD CB 80 D8
09788   8E92 FD CB 80 D8         SET  3,[IY+-128],B      ; 8E92 FD CB 80 D8
09789   8E96 FD CB FF D8         set  3,[iy+-1],b        ; 8E96 FD CB FF D8
09790   8E9A FD CB FF D8         SET  3,[IY+-1],B        ; 8E9A FD CB FF D8
09791   8E9E FD CB 00 D8         set  3,[iy+0],b         ; 8E9E FD CB 00 D8
09792   8EA2 FD CB 00 D8         SET  3,[IY+0],B         ; 8EA2 FD CB 00 D8
09793   8EA6 FD CB 7F D8         set  3,[iy+127],b       ; 8EA6 FD CB 7F D8
09794   8EAA FD CB 7F D8         SET  3,[IY+127],B       ; 8EAA FD CB 7F D8
09795   8EAE FD CB 80 D9         set  3,[iy+-128],c      ; 8EAE FD CB 80 D9
09796   8EB2 FD CB 80 D9         SET  3,[IY+-128],C      ; 8EB2 FD CB 80 D9
09797   8EB6 FD CB FF D9         set  3,[iy+-1],c        ; 8EB6 FD CB FF D9
09798   8EBA FD CB FF D9         SET  3,[IY+-1],C        ; 8EBA FD CB FF D9
09799   8EBE FD CB 00 D9         set  3,[iy+0],c         ; 8EBE FD CB 00 D9
09800   8EC2 FD CB 00 D9         SET  3,[IY+0],C         ; 8EC2 FD CB 00 D9
09801   8EC6 FD CB 7F D9         set  3,[iy+127],c       ; 8EC6 FD CB 7F D9
09802   8ECA FD CB 7F D9         SET  3,[IY+127],C       ; 8ECA FD CB 7F D9
09803   8ECE FD CB 80 DA         set  3,[iy+-128],d      ; 8ECE FD CB 80 DA
09804   8ED2 FD CB 80 DA         SET  3,[IY+-128],D      ; 8ED2 FD CB 80 DA
09805   8ED6 FD CB FF DA         set  3,[iy+-1],d        ; 8ED6 FD CB FF DA
09806   8EDA FD CB FF DA         SET  3,[IY+-1],D        ; 8EDA FD CB FF DA
09807   8EDE FD CB 00 DA         set  3,[iy+0],d         ; 8EDE FD CB 00 DA
09808   8EE2 FD CB 00 DA         SET  3,[IY+0],D         ; 8EE2 FD CB 00 DA
09809   8EE6 FD CB 7F DA         set  3,[iy+127],d       ; 8EE6 FD CB 7F DA
09810   8EEA FD CB 7F DA         SET  3,[IY+127],D       ; 8EEA FD CB 7F DA
09811   8EEE FD CB 80 DB         set  3,[iy+-128],e      ; 8EEE FD CB 80 DB
09812   8EF2 FD CB 80 DB         SET  3,[IY+-128],E      ; 8EF2 FD CB 80 DB
09813   8EF6 FD CB FF DB         set  3,[iy+-1],e        ; 8EF6 FD CB FF DB
09814   8EFA FD CB FF DB         SET  3,[IY+-1],E        ; 8EFA FD CB FF DB
09815   8EFE FD CB 00 DB         set  3,[iy+0],e         ; 8EFE FD CB 00 DB
09816   8F02 FD CB 00 DB         SET  3,[IY+0],E         ; 8F02 FD CB 00 DB
09817   8F06 FD CB 7F DB         set  3,[iy+127],e       ; 8F06 FD CB 7F DB
09818   8F0A FD CB 7F DB         SET  3,[IY+127],E       ; 8F0A FD CB 7F DB
09819   8F0E FD CB 80 DC         set  3,[iy+-128],h      ; 8F0E FD CB 80 DC
09820   8F12 FD CB 80 DC         SET  3,[IY+-128],H      ; 8F12 FD CB 80 DC
09821   8F16 FD CB FF DC         set  3,[iy+-1],h        ; 8F16 FD CB FF DC
09822   8F1A FD CB FF DC         SET  3,[IY+-1],H        ; 8F1A FD CB FF DC
09823   8F1E FD CB 00 DC         set  3,[iy+0],h         ; 8F1E FD CB 00 DC
09824   8F22 FD CB 00 DC         SET  3,[IY+0],H         ; 8F22 FD CB 00 DC
09825   8F26 FD CB 7F DC         set  3,[iy+127],h       ; 8F26 FD CB 7F DC
09826   8F2A FD CB 7F DC         SET  3,[IY+127],H       ; 8F2A FD CB 7F DC
09827   8F2E FD CB 80 DD         set  3,[iy+-128],l      ; 8F2E FD CB 80 DD
09828   8F32 FD CB 80 DD         SET  3,[IY+-128],L      ; 8F32 FD CB 80 DD
09829   8F36 FD CB FF DD         set  3,[iy+-1],l        ; 8F36 FD CB FF DD
09830   8F3A FD CB FF DD         SET  3,[IY+-1],L        ; 8F3A FD CB FF DD
09831   8F3E FD CB 00 DD         set  3,[iy+0],l         ; 8F3E FD CB 00 DD
09832   8F42 FD CB 00 DD         SET  3,[IY+0],L         ; 8F42 FD CB 00 DD
09833   8F46 FD CB 7F DD         set  3,[iy+127],l       ; 8F46 FD CB 7F DD
09834   8F4A FD CB 7F DD         SET  3,[IY+127],L       ; 8F4A FD CB 7F DD
09835   8F4E CB DF               set  3,a                ; 8F4E CB DF
09836   8F50 CB DF               SET  3,A                ; 8F50 CB DF
09837   8F52 CB D8               set  3,b                ; 8F52 CB D8
09838   8F54 CB D8               SET  3,B                ; 8F54 CB D8
09839   8F56 CB D9               set  3,c                ; 8F56 CB D9
09840   8F58 CB D9               SET  3,C                ; 8F58 CB D9
09841   8F5A CB DA               set  3,d                ; 8F5A CB DA
09842   8F5C CB DA               SET  3,D                ; 8F5C CB DA
09843   8F5E CB DB               set  3,e                ; 8F5E CB DB
09844   8F60 CB DB               SET  3,E                ; 8F60 CB DB
09845   8F62 CB DC               set  3,h                ; 8F62 CB DC
09846   8F64 CB DC               SET  3,H                ; 8F64 CB DC
09847   8F66 CB DD               set  3,l                ; 8F66 CB DD
09848   8F68 CB DD               SET  3,L                ; 8F68 CB DD
09849   8F6A CB E6               set  4,(hl)             ; 8F6A CB E6
09850   8F6C CB E6               SET  4,(HL)             ; 8F6C CB E6
09851   8F6E DD CB 80 E6         set  4,(ix+-128)        ; 8F6E DD CB 80 E6
09852   8F72 DD CB 80 E6         SET  4,(IX+-128)        ; 8F72 DD CB 80 E6
09853   8F76 DD CB FF E6         set  4,(ix+-1)          ; 8F76 DD CB FF E6
09854   8F7A DD CB FF E6         SET  4,(IX+-1)          ; 8F7A DD CB FF E6
09855   8F7E DD CB 00 E6         set  4,(ix+0)           ; 8F7E DD CB 00 E6
09856   8F82 DD CB 00 E6         SET  4,(IX+0)           ; 8F82 DD CB 00 E6
09857   8F86 DD CB 7F E6         set  4,(ix+127)         ; 8F86 DD CB 7F E6
09858   8F8A DD CB 7F E6         SET  4,(IX+127)         ; 8F8A DD CB 7F E6
09859   8F8E DD CB 80 E7         set  4,(ix+-128),a      ; 8F8E DD CB 80 E7
09860   8F92 DD CB 80 E7         SET  4,(IX+-128),A      ; 8F92 DD CB 80 E7
09861   8F96 DD CB FF E7         set  4,(ix+-1),a        ; 8F96 DD CB FF E7
09862   8F9A DD CB FF E7         SET  4,(IX+-1),A        ; 8F9A DD CB FF E7
09863   8F9E DD CB 00 E7         set  4,(ix+0),a         ; 8F9E DD CB 00 E7
09864   8FA2 DD CB 00 E7         SET  4,(IX+0),A         ; 8FA2 DD CB 00 E7
09865   8FA6 DD CB 7F E7         set  4,(ix+127),a       ; 8FA6 DD CB 7F E7
09866   8FAA DD CB 7F E7         SET  4,(IX+127),A       ; 8FAA DD CB 7F E7
09867   8FAE DD CB 80 E0         set  4,(ix+-128),b      ; 8FAE DD CB 80 E0
09868   8FB2 DD CB 80 E0         SET  4,(IX+-128),B      ; 8FB2 DD CB 80 E0
09869   8FB6 DD CB FF E0         set  4,(ix+-1),b        ; 8FB6 DD CB FF E0
09870   8FBA DD CB FF E0         SET  4,(IX+-1),B        ; 8FBA DD CB FF E0
09871   8FBE DD CB 00 E0         set  4,(ix+0),b         ; 8FBE DD CB 00 E0
09872   8FC2 DD CB 00 E0         SET  4,(IX+0),B         ; 8FC2 DD CB 00 E0
09873   8FC6 DD CB 7F E0         set  4,(ix+127),b       ; 8FC6 DD CB 7F E0
09874   8FCA DD CB 7F E0         SET  4,(IX+127),B       ; 8FCA DD CB 7F E0
09875   8FCE DD CB 80 E1         set  4,(ix+-128),c      ; 8FCE DD CB 80 E1
09876   8FD2 DD CB 80 E1         SET  4,(IX+-128),C      ; 8FD2 DD CB 80 E1
09877   8FD6 DD CB FF E1         set  4,(ix+-1),c        ; 8FD6 DD CB FF E1
09878   8FDA DD CB FF E1         SET  4,(IX+-1),C        ; 8FDA DD CB FF E1
09879   8FDE DD CB 00 E1         set  4,(ix+0),c         ; 8FDE DD CB 00 E1
09880   8FE2 DD CB 00 E1         SET  4,(IX+0),C         ; 8FE2 DD CB 00 E1
09881   8FE6 DD CB 7F E1         set  4,(ix+127),c       ; 8FE6 DD CB 7F E1
09882   8FEA DD CB 7F E1         SET  4,(IX+127),C       ; 8FEA DD CB 7F E1
09883   8FEE DD CB 80 E2         set  4,(ix+-128),d      ; 8FEE DD CB 80 E2
09884   8FF2 DD CB 80 E2         SET  4,(IX+-128),D      ; 8FF2 DD CB 80 E2
09885   8FF6 DD CB FF E2         set  4,(ix+-1),d        ; 8FF6 DD CB FF E2
09886   8FFA DD CB FF E2         SET  4,(IX+-1),D        ; 8FFA DD CB FF E2
09887   8FFE DD CB 00 E2         set  4,(ix+0),d         ; 8FFE DD CB 00 E2
09888   9002 DD CB 00 E2         SET  4,(IX+0),D         ; 9002 DD CB 00 E2
09889   9006 DD CB 7F E2         set  4,(ix+127),d       ; 9006 DD CB 7F E2
09890   900A DD CB 7F E2         SET  4,(IX+127),D       ; 900A DD CB 7F E2
09891   900E DD CB 80 E3         set  4,(ix+-128),e      ; 900E DD CB 80 E3
09892   9012 DD CB 80 E3         SET  4,(IX+-128),E      ; 9012 DD CB 80 E3
09893   9016 DD CB FF E3         set  4,(ix+-1),e        ; 9016 DD CB FF E3
09894   901A DD CB FF E3         SET  4,(IX+-1),E        ; 901A DD CB FF E3
09895   901E DD CB 00 E3         set  4,(ix+0),e         ; 901E DD CB 00 E3
09896   9022 DD CB 00 E3         SET  4,(IX+0),E         ; 9022 DD CB 00 E3
09897   9026 DD CB 7F E3         set  4,(ix+127),e       ; 9026 DD CB 7F E3
09898   902A DD CB 7F E3         SET  4,(IX+127),E       ; 902A DD CB 7F E3
09899   902E DD CB 80 E4         set  4,(ix+-128),h      ; 902E DD CB 80 E4
09900   9032 DD CB 80 E4         SET  4,(IX+-128),H      ; 9032 DD CB 80 E4
09901   9036 DD CB FF E4         set  4,(ix+-1),h        ; 9036 DD CB FF E4
09902   903A DD CB FF E4         SET  4,(IX+-1),H        ; 903A DD CB FF E4
09903   903E DD CB 00 E4         set  4,(ix+0),h         ; 903E DD CB 00 E4
09904   9042 DD CB 00 E4         SET  4,(IX+0),H         ; 9042 DD CB 00 E4
09905   9046 DD CB 7F E4         set  4,(ix+127),h       ; 9046 DD CB 7F E4
09906   904A DD CB 7F E4         SET  4,(IX+127),H       ; 904A DD CB 7F E4
09907   904E DD CB 80 E5         set  4,(ix+-128),l      ; 904E DD CB 80 E5
09908   9052 DD CB 80 E5         SET  4,(IX+-128),L      ; 9052 DD CB 80 E5
09909   9056 DD CB FF E5         set  4,(ix+-1),l        ; 9056 DD CB FF E5
09910   905A DD CB FF E5         SET  4,(IX+-1),L        ; 905A DD CB FF E5
09911   905E DD CB 00 E5         set  4,(ix+0),l         ; 905E DD CB 00 E5
09912   9062 DD CB 00 E5         SET  4,(IX+0),L         ; 9062 DD CB 00 E5
09913   9066 DD CB 7F E5         set  4,(ix+127),l       ; 9066 DD CB 7F E5
09914   906A DD CB 7F E5         SET  4,(IX+127),L       ; 906A DD CB 7F E5
09915   906E FD CB 80 E6         set  4,(iy+-128)        ; 906E FD CB 80 E6
09916   9072 FD CB 80 E6         SET  4,(IY+-128)        ; 9072 FD CB 80 E6
09917   9076 FD CB FF E6         set  4,(iy+-1)          ; 9076 FD CB FF E6
09918   907A FD CB FF E6         SET  4,(IY+-1)          ; 907A FD CB FF E6
09919   907E FD CB 00 E6         set  4,(iy+0)           ; 907E FD CB 00 E6
09920   9082 FD CB 00 E6         SET  4,(IY+0)           ; 9082 FD CB 00 E6
09921   9086 FD CB 7F E6         set  4,(iy+127)         ; 9086 FD CB 7F E6
09922   908A FD CB 7F E6         SET  4,(IY+127)         ; 908A FD CB 7F E6
09923   908E FD CB 80 E7         set  4,(iy+-128),a      ; 908E FD CB 80 E7
09924   9092 FD CB 80 E7         SET  4,(IY+-128),A      ; 9092 FD CB 80 E7
09925   9096 FD CB FF E7         set  4,(iy+-1),a        ; 9096 FD CB FF E7
09926   909A FD CB FF E7         SET  4,(IY+-1),A        ; 909A FD CB FF E7
09927   909E FD CB 00 E7         set  4,(iy+0),a         ; 909E FD CB 00 E7
09928   90A2 FD CB 00 E7         SET  4,(IY+0),A         ; 90A2 FD CB 00 E7
09929   90A6 FD CB 7F E7         set  4,(iy+127),a       ; 90A6 FD CB 7F E7
09930   90AA FD CB 7F E7         SET  4,(IY+127),A       ; 90AA FD CB 7F E7
09931   90AE FD CB 80 E0         set  4,(iy+-128),b      ; 90AE FD CB 80 E0
09932   90B2 FD CB 80 E0         SET  4,(IY+-128),B      ; 90B2 FD CB 80 E0
09933   90B6 FD CB FF E0         set  4,(iy+-1),b        ; 90B6 FD CB FF E0
09934   90BA FD CB FF E0         SET  4,(IY+-1),B        ; 90BA FD CB FF E0
09935   90BE FD CB 00 E0         set  4,(iy+0),b         ; 90BE FD CB 00 E0
09936   90C2 FD CB 00 E0         SET  4,(IY+0),B         ; 90C2 FD CB 00 E0
09937   90C6 FD CB 7F E0         set  4,(iy+127),b       ; 90C6 FD CB 7F E0
09938   90CA FD CB 7F E0         SET  4,(IY+127),B       ; 90CA FD CB 7F E0
09939   90CE FD CB 80 E1         set  4,(iy+-128),c      ; 90CE FD CB 80 E1
09940   90D2 FD CB 80 E1         SET  4,(IY+-128),C      ; 90D2 FD CB 80 E1
09941   90D6 FD CB FF E1         set  4,(iy+-1),c        ; 90D6 FD CB FF E1
09942   90DA FD CB FF E1         SET  4,(IY+-1),C        ; 90DA FD CB FF E1
09943   90DE FD CB 00 E1         set  4,(iy+0),c         ; 90DE FD CB 00 E1
09944   90E2 FD CB 00 E1         SET  4,(IY+0),C         ; 90E2 FD CB 00 E1
09945   90E6 FD CB 7F E1         set  4,(iy+127),c       ; 90E6 FD CB 7F E1
09946   90EA FD CB 7F E1         SET  4,(IY+127),C       ; 90EA FD CB 7F E1
09947   90EE FD CB 80 E2         set  4,(iy+-128),d      ; 90EE FD CB 80 E2
09948   90F2 FD CB 80 E2         SET  4,(IY+-128),D      ; 90F2 FD CB 80 E2
09949   90F6 FD CB FF E2         set  4,(iy+-1),d        ; 90F6 FD CB FF E2
09950   90FA FD CB FF E2         SET  4,(IY+-1),D        ; 90FA FD CB FF E2
09951   90FE FD CB 00 E2         set  4,(iy+0),d         ; 90FE FD CB 00 E2
09952   9102 FD CB 00 E2         SET  4,(IY+0),D         ; 9102 FD CB 00 E2
09953   9106 FD CB 7F E2         set  4,(iy+127),d       ; 9106 FD CB 7F E2
09954   910A FD CB 7F E2         SET  4,(IY+127),D       ; 910A FD CB 7F E2
09955   910E FD CB 80 E3         set  4,(iy+-128),e      ; 910E FD CB 80 E3
09956   9112 FD CB 80 E3         SET  4,(IY+-128),E      ; 9112 FD CB 80 E3
09957   9116 FD CB FF E3         set  4,(iy+-1),e        ; 9116 FD CB FF E3
09958   911A FD CB FF E3         SET  4,(IY+-1),E        ; 911A FD CB FF E3
09959   911E FD CB 00 E3         set  4,(iy+0),e         ; 911E FD CB 00 E3
09960   9122 FD CB 00 E3         SET  4,(IY+0),E         ; 9122 FD CB 00 E3
09961   9126 FD CB 7F E3         set  4,(iy+127),e       ; 9126 FD CB 7F E3
09962   912A FD CB 7F E3         SET  4,(IY+127),E       ; 912A FD CB 7F E3
09963   912E FD CB 80 E4         set  4,(iy+-128),h      ; 912E FD CB 80 E4
09964   9132 FD CB 80 E4         SET  4,(IY+-128),H      ; 9132 FD CB 80 E4
09965   9136 FD CB FF E4         set  4,(iy+-1),h        ; 9136 FD CB FF E4
09966   913A FD CB FF E4         SET  4,(IY+-1),H        ; 913A FD CB FF E4
09967   913E FD CB 00 E4         set  4,(iy+0),h         ; 913E FD CB 00 E4
09968   9142 FD CB 00 E4         SET  4,(IY+0),H         ; 9142 FD CB 00 E4
09969   9146 FD CB 7F E4         set  4,(iy+127),h       ; 9146 FD CB 7F E4
09970   914A FD CB 7F E4         SET  4,(IY+127),H       ; 914A FD CB 7F E4
09971   914E FD CB 80 E5         set  4,(iy+-128),l      ; 914E FD CB 80 E5
09972   9152 FD CB 80 E5         SET  4,(IY+-128),L      ; 9152 FD CB 80 E5
09973   9156 FD CB FF E5         set  4,(iy+-1),l        ; 9156 FD CB FF E5
09974   915A FD CB FF E5         SET  4,(IY+-1),L        ; 915A FD CB FF E5
09975   915E FD CB 00 E5         set  4,(iy+0),l         ; 915E FD CB 00 E5
09976   9162 FD CB 00 E5         SET  4,(IY+0),L         ; 9162 FD CB 00 E5
09977   9166 FD CB 7F E5         set  4,(iy+127),l       ; 9166 FD CB 7F E5
09978   916A FD CB 7F E5         SET  4,(IY+127),L       ; 916A FD CB 7F E5
09979   916E CB E6               set  4,[hl]             ; 916E CB E6
09980   9170 CB E6               SET  4,[HL]             ; 9170 CB E6
09981   9172 DD CB 80 E6         set  4,[ix+-128]        ; 9172 DD CB 80 E6
09982   9176 DD CB 80 E6         SET  4,[IX+-128]        ; 9176 DD CB 80 E6
09983   917A DD CB FF E6         set  4,[ix+-1]          ; 917A DD CB FF E6
09984   917E DD CB FF E6         SET  4,[IX+-1]          ; 917E DD CB FF E6
09985   9182 DD CB 00 E6         set  4,[ix+0]           ; 9182 DD CB 00 E6
09986   9186 DD CB 00 E6         SET  4,[IX+0]           ; 9186 DD CB 00 E6
09987   918A DD CB 7F E6         set  4,[ix+127]         ; 918A DD CB 7F E6
09988   918E DD CB 7F E6         SET  4,[IX+127]         ; 918E DD CB 7F E6
09989   9192 DD CB 80 E7         set  4,[ix+-128],a      ; 9192 DD CB 80 E7
09990   9196 DD CB 80 E7         SET  4,[IX+-128],A      ; 9196 DD CB 80 E7
09991   919A DD CB FF E7         set  4,[ix+-1],a        ; 919A DD CB FF E7
09992   919E DD CB FF E7         SET  4,[IX+-1],A        ; 919E DD CB FF E7
09993   91A2 DD CB 00 E7         set  4,[ix+0],a         ; 91A2 DD CB 00 E7
09994   91A6 DD CB 00 E7         SET  4,[IX+0],A         ; 91A6 DD CB 00 E7
09995   91AA DD CB 7F E7         set  4,[ix+127],a       ; 91AA DD CB 7F E7
09996   91AE DD CB 7F E7         SET  4,[IX+127],A       ; 91AE DD CB 7F E7
09997   91B2 DD CB 80 E0         set  4,[ix+-128],b      ; 91B2 DD CB 80 E0
09998   91B6 DD CB 80 E0         SET  4,[IX+-128],B      ; 91B6 DD CB 80 E0
09999   91BA DD CB FF E0         set  4,[ix+-1],b        ; 91BA DD CB FF E0
10000   91BE DD CB FF E0         SET  4,[IX+-1],B        ; 91BE DD CB FF E0
10001   91C2 DD CB 00 E0         set  4,[ix+0],b         ; 91C2 DD CB 00 E0
10002   91C6 DD CB 00 E0         SET  4,[IX+0],B         ; 91C6 DD CB 00 E0
10003   91CA DD CB 7F E0         set  4,[ix+127],b       ; 91CA DD CB 7F E0
10004   91CE DD CB 7F E0         SET  4,[IX+127],B       ; 91CE DD CB 7F E0
10005   91D2 DD CB 80 E1         set  4,[ix+-128],c      ; 91D2 DD CB 80 E1
10006   91D6 DD CB 80 E1         SET  4,[IX+-128],C      ; 91D6 DD CB 80 E1
10007   91DA DD CB FF E1         set  4,[ix+-1],c        ; 91DA DD CB FF E1
10008   91DE DD CB FF E1         SET  4,[IX+-1],C        ; 91DE DD CB FF E1
10009   91E2 DD CB 00 E1         set  4,[ix+0],c         ; 91E2 DD CB 00 E1
10010   91E6 DD CB 00 E1         SET  4,[IX+0],C         ; 91E6 DD CB 00 E1
10011   91EA DD CB 7F E1         set  4,[ix+127],c       ; 91EA DD CB 7F E1
10012   91EE DD CB 7F E1         SET  4,[IX+127],C       ; 91EE DD CB 7F E1
10013   91F2 DD CB 80 E2         set  4,[ix+-128],d      ; 91F2 DD CB 80 E2
10014   91F6 DD CB 80 E2         SET  4,[IX+-128],D      ; 91F6 DD CB 80 E2
10015   91FA DD CB FF E2         set  4,[ix+-1],d        ; 91FA DD CB FF E2
10016   91FE DD CB FF E2         SET  4,[IX+-1],D        ; 91FE DD CB FF E2
10017   9202 DD CB 00 E2         set  4,[ix+0],d         ; 9202 DD CB 00 E2
10018   9206 DD CB 00 E2         SET  4,[IX+0],D         ; 9206 DD CB 00 E2
10019   920A DD CB 7F E2         set  4,[ix+127],d       ; 920A DD CB 7F E2
10020   920E DD CB 7F E2         SET  4,[IX+127],D       ; 920E DD CB 7F E2
10021   9212 DD CB 80 E3         set  4,[ix+-128],e      ; 9212 DD CB 80 E3
10022   9216 DD CB 80 E3         SET  4,[IX+-128],E      ; 9216 DD CB 80 E3
10023   921A DD CB FF E3         set  4,[ix+-1],e        ; 921A DD CB FF E3
10024   921E DD CB FF E3         SET  4,[IX+-1],E        ; 921E DD CB FF E3
10025   9222 DD CB 00 E3         set  4,[ix+0],e         ; 9222 DD CB 00 E3
10026   9226 DD CB 00 E3         SET  4,[IX+0],E         ; 9226 DD CB 00 E3
10027   922A DD CB 7F E3         set  4,[ix+127],e       ; 922A DD CB 7F E3
10028   922E DD CB 7F E3         SET  4,[IX+127],E       ; 922E DD CB 7F E3
10029   9232 DD CB 80 E4         set  4,[ix+-128],h      ; 9232 DD CB 80 E4
10030   9236 DD CB 80 E4         SET  4,[IX+-128],H      ; 9236 DD CB 80 E4
10031   923A DD CB FF E4         set  4,[ix+-1],h        ; 923A DD CB FF E4
10032   923E DD CB FF E4         SET  4,[IX+-1],H        ; 923E DD CB FF E4
10033   9242 DD CB 00 E4         set  4,[ix+0],h         ; 9242 DD CB 00 E4
10034   9246 DD CB 00 E4         SET  4,[IX+0],H         ; 9246 DD CB 00 E4
10035   924A DD CB 7F E4         set  4,[ix+127],h       ; 924A DD CB 7F E4
10036   924E DD CB 7F E4         SET  4,[IX+127],H       ; 924E DD CB 7F E4
10037   9252 DD CB 80 E5         set  4,[ix+-128],l      ; 9252 DD CB 80 E5
10038   9256 DD CB 80 E5         SET  4,[IX+-128],L      ; 9256 DD CB 80 E5
10039   925A DD CB FF E5         set  4,[ix+-1],l        ; 925A DD CB FF E5
10040   925E DD CB FF E5         SET  4,[IX+-1],L        ; 925E DD CB FF E5
10041   9262 DD CB 00 E5         set  4,[ix+0],l         ; 9262 DD CB 00 E5
10042   9266 DD CB 00 E5         SET  4,[IX+0],L         ; 9266 DD CB 00 E5
10043   926A DD CB 7F E5         set  4,[ix+127],l       ; 926A DD CB 7F E5
10044   926E DD CB 7F E5         SET  4,[IX+127],L       ; 926E DD CB 7F E5
10045   9272 FD CB 80 E6         set  4,[iy+-128]        ; 9272 FD CB 80 E6
10046   9276 FD CB 80 E6         SET  4,[IY+-128]        ; 9276 FD CB 80 E6
10047   927A FD CB FF E6         set  4,[iy+-1]          ; 927A FD CB FF E6
10048   927E FD CB FF E6         SET  4,[IY+-1]          ; 927E FD CB FF E6
10049   9282 FD CB 00 E6         set  4,[iy+0]           ; 9282 FD CB 00 E6
10050   9286 FD CB 00 E6         SET  4,[IY+0]           ; 9286 FD CB 00 E6
10051   928A FD CB 7F E6         set  4,[iy+127]         ; 928A FD CB 7F E6
10052   928E FD CB 7F E6         SET  4,[IY+127]         ; 928E FD CB 7F E6
10053   9292 FD CB 80 E7         set  4,[iy+-128],a      ; 9292 FD CB 80 E7
10054   9296 FD CB 80 E7         SET  4,[IY+-128],A      ; 9296 FD CB 80 E7
10055   929A FD CB FF E7         set  4,[iy+-1],a        ; 929A FD CB FF E7
10056   929E FD CB FF E7         SET  4,[IY+-1],A        ; 929E FD CB FF E7
10057   92A2 FD CB 00 E7         set  4,[iy+0],a         ; 92A2 FD CB 00 E7
10058   92A6 FD CB 00 E7         SET  4,[IY+0],A         ; 92A6 FD CB 00 E7
10059   92AA FD CB 7F E7         set  4,[iy+127],a       ; 92AA FD CB 7F E7
10060   92AE FD CB 7F E7         SET  4,[IY+127],A       ; 92AE FD CB 7F E7
10061   92B2 FD CB 80 E0         set  4,[iy+-128],b      ; 92B2 FD CB 80 E0
10062   92B6 FD CB 80 E0         SET  4,[IY+-128],B      ; 92B6 FD CB 80 E0
10063   92BA FD CB FF E0         set  4,[iy+-1],b        ; 92BA FD CB FF E0
10064   92BE FD CB FF E0         SET  4,[IY+-1],B        ; 92BE FD CB FF E0
10065   92C2 FD CB 00 E0         set  4,[iy+0],b         ; 92C2 FD CB 00 E0
10066   92C6 FD CB 00 E0         SET  4,[IY+0],B         ; 92C6 FD CB 00 E0
10067   92CA FD CB 7F E0         set  4,[iy+127],b       ; 92CA FD CB 7F E0
10068   92CE FD CB 7F E0         SET  4,[IY+127],B       ; 92CE FD CB 7F E0
10069   92D2 FD CB 80 E1         set  4,[iy+-128],c      ; 92D2 FD CB 80 E1
10070   92D6 FD CB 80 E1         SET  4,[IY+-128],C      ; 92D6 FD CB 80 E1
10071   92DA FD CB FF E1         set  4,[iy+-1],c        ; 92DA FD CB FF E1
10072   92DE FD CB FF E1         SET  4,[IY+-1],C        ; 92DE FD CB FF E1
10073   92E2 FD CB 00 E1         set  4,[iy+0],c         ; 92E2 FD CB 00 E1
10074   92E6 FD CB 00 E1         SET  4,[IY+0],C         ; 92E6 FD CB 00 E1
10075   92EA FD CB 7F E1         set  4,[iy+127],c       ; 92EA FD CB 7F E1
10076   92EE FD CB 7F E1         SET  4,[IY+127],C       ; 92EE FD CB 7F E1
10077   92F2 FD CB 80 E2         set  4,[iy+-128],d      ; 92F2 FD CB 80 E2
10078   92F6 FD CB 80 E2         SET  4,[IY+-128],D      ; 92F6 FD CB 80 E2
10079   92FA FD CB FF E2         set  4,[iy+-1],d        ; 92FA FD CB FF E2
10080   92FE FD CB FF E2         SET  4,[IY+-1],D        ; 92FE FD CB FF E2
10081   9302 FD CB 00 E2         set  4,[iy+0],d         ; 9302 FD CB 00 E2
10082   9306 FD CB 00 E2         SET  4,[IY+0],D         ; 9306 FD CB 00 E2
10083   930A FD CB 7F E2         set  4,[iy+127],d       ; 930A FD CB 7F E2
10084   930E FD CB 7F E2         SET  4,[IY+127],D       ; 930E FD CB 7F E2
10085   9312 FD CB 80 E3         set  4,[iy+-128],e      ; 9312 FD CB 80 E3
10086   9316 FD CB 80 E3         SET  4,[IY+-128],E      ; 9316 FD CB 80 E3
10087   931A FD CB FF E3         set  4,[iy+-1],e        ; 931A FD CB FF E3
10088   931E FD CB FF E3         SET  4,[IY+-1],E        ; 931E FD CB FF E3
10089   9322 FD CB 00 E3         set  4,[iy+0],e         ; 9322 FD CB 00 E3
10090   9326 FD CB 00 E3         SET  4,[IY+0],E         ; 9326 FD CB 00 E3
10091   932A FD CB 7F E3         set  4,[iy+127],e       ; 932A FD CB 7F E3
10092   932E FD CB 7F E3         SET  4,[IY+127],E       ; 932E FD CB 7F E3
10093   9332 FD CB 80 E4         set  4,[iy+-128],h      ; 9332 FD CB 80 E4
10094   9336 FD CB 80 E4         SET  4,[IY+-128],H      ; 9336 FD CB 80 E4
10095   933A FD CB FF E4         set  4,[iy+-1],h        ; 933A FD CB FF E4
10096   933E FD CB FF E4         SET  4,[IY+-1],H        ; 933E FD CB FF E4
10097   9342 FD CB 00 E4         set  4,[iy+0],h         ; 9342 FD CB 00 E4
10098   9346 FD CB 00 E4         SET  4,[IY+0],H         ; 9346 FD CB 00 E4
10099   934A FD CB 7F E4         set  4,[iy+127],h       ; 934A FD CB 7F E4
10100   934E FD CB 7F E4         SET  4,[IY+127],H       ; 934E FD CB 7F E4
10101   9352 FD CB 80 E5         set  4,[iy+-128],l      ; 9352 FD CB 80 E5
10102   9356 FD CB 80 E5         SET  4,[IY+-128],L      ; 9356 FD CB 80 E5
10103   935A FD CB FF E5         set  4,[iy+-1],l        ; 935A FD CB FF E5
10104   935E FD CB FF E5         SET  4,[IY+-1],L        ; 935E FD CB FF E5
10105   9362 FD CB 00 E5         set  4,[iy+0],l         ; 9362 FD CB 00 E5
10106   9366 FD CB 00 E5         SET  4,[IY+0],L         ; 9366 FD CB 00 E5
10107   936A FD CB 7F E5         set  4,[iy+127],l       ; 936A FD CB 7F E5
10108   936E FD CB 7F E5         SET  4,[IY+127],L       ; 936E FD CB 7F E5
10109   9372 CB E7               set  4,a                ; 9372 CB E7
10110   9374 CB E7               SET  4,A                ; 9374 CB E7
10111   9376 CB E0               set  4,b                ; 9376 CB E0
10112   9378 CB E0               SET  4,B                ; 9378 CB E0
10113   937A CB E1               set  4,c                ; 937A CB E1
10114   937C CB E1               SET  4,C                ; 937C CB E1
10115   937E CB E2               set  4,d                ; 937E CB E2
10116   9380 CB E2               SET  4,D                ; 9380 CB E2
10117   9382 CB E3               set  4,e                ; 9382 CB E3
10118   9384 CB E3               SET  4,E                ; 9384 CB E3
10119   9386 CB E4               set  4,h                ; 9386 CB E4
10120   9388 CB E4               SET  4,H                ; 9388 CB E4
10121   938A CB E5               set  4,l                ; 938A CB E5
10122   938C CB E5               SET  4,L                ; 938C CB E5
10123   938E CB EE               set  5,(hl)             ; 938E CB EE
10124   9390 CB EE               SET  5,(HL)             ; 9390 CB EE
10125   9392 DD CB 80 EE         set  5,(ix+-128)        ; 9392 DD CB 80 EE
10126   9396 DD CB 80 EE         SET  5,(IX+-128)        ; 9396 DD CB 80 EE
10127   939A DD CB FF EE         set  5,(ix+-1)          ; 939A DD CB FF EE
10128   939E DD CB FF EE         SET  5,(IX+-1)          ; 939E DD CB FF EE
10129   93A2 DD CB 00 EE         set  5,(ix+0)           ; 93A2 DD CB 00 EE
10130   93A6 DD CB 00 EE         SET  5,(IX+0)           ; 93A6 DD CB 00 EE
10131   93AA DD CB 7F EE         set  5,(ix+127)         ; 93AA DD CB 7F EE
10132   93AE DD CB 7F EE         SET  5,(IX+127)         ; 93AE DD CB 7F EE
10133   93B2 DD CB 80 EF         set  5,(ix+-128),a      ; 93B2 DD CB 80 EF
10134   93B6 DD CB 80 EF         SET  5,(IX+-128),A      ; 93B6 DD CB 80 EF
10135   93BA DD CB FF EF         set  5,(ix+-1),a        ; 93BA DD CB FF EF
10136   93BE DD CB FF EF         SET  5,(IX+-1),A        ; 93BE DD CB FF EF
10137   93C2 DD CB 00 EF         set  5,(ix+0),a         ; 93C2 DD CB 00 EF
10138   93C6 DD CB 00 EF         SET  5,(IX+0),A         ; 93C6 DD CB 00 EF
10139   93CA DD CB 7F EF         set  5,(ix+127),a       ; 93CA DD CB 7F EF
10140   93CE DD CB 7F EF         SET  5,(IX+127),A       ; 93CE DD CB 7F EF
10141   93D2 DD CB 80 E8         set  5,(ix+-128),b      ; 93D2 DD CB 80 E8
10142   93D6 DD CB 80 E8         SET  5,(IX+-128),B      ; 93D6 DD CB 80 E8
10143   93DA DD CB FF E8         set  5,(ix+-1),b        ; 93DA DD CB FF E8
10144   93DE DD CB FF E8         SET  5,(IX+-1),B        ; 93DE DD CB FF E8
10145   93E2 DD CB 00 E8         set  5,(ix+0),b         ; 93E2 DD CB 00 E8
10146   93E6 DD CB 00 E8         SET  5,(IX+0),B         ; 93E6 DD CB 00 E8
10147   93EA DD CB 7F E8         set  5,(ix+127),b       ; 93EA DD CB 7F E8
10148   93EE DD CB 7F E8         SET  5,(IX+127),B       ; 93EE DD CB 7F E8
10149   93F2 DD CB 80 E9         set  5,(ix+-128),c      ; 93F2 DD CB 80 E9
10150   93F6 DD CB 80 E9         SET  5,(IX+-128),C      ; 93F6 DD CB 80 E9
10151   93FA DD CB FF E9         set  5,(ix+-1),c        ; 93FA DD CB FF E9
10152   93FE DD CB FF E9         SET  5,(IX+-1),C        ; 93FE DD CB FF E9
10153   9402 DD CB 00 E9         set  5,(ix+0),c         ; 9402 DD CB 00 E9
10154   9406 DD CB 00 E9         SET  5,(IX+0),C         ; 9406 DD CB 00 E9
10155   940A DD CB 7F E9         set  5,(ix+127),c       ; 940A DD CB 7F E9
10156   940E DD CB 7F E9         SET  5,(IX+127),C       ; 940E DD CB 7F E9
10157   9412 DD CB 80 EA         set  5,(ix+-128),d      ; 9412 DD CB 80 EA
10158   9416 DD CB 80 EA         SET  5,(IX+-128),D      ; 9416 DD CB 80 EA
10159   941A DD CB FF EA         set  5,(ix+-1),d        ; 941A DD CB FF EA
10160   941E DD CB FF EA         SET  5,(IX+-1),D        ; 941E DD CB FF EA
10161   9422 DD CB 00 EA         set  5,(ix+0),d         ; 9422 DD CB 00 EA
10162   9426 DD CB 00 EA         SET  5,(IX+0),D         ; 9426 DD CB 00 EA
10163   942A DD CB 7F EA         set  5,(ix+127),d       ; 942A DD CB 7F EA
10164   942E DD CB 7F EA         SET  5,(IX+127),D       ; 942E DD CB 7F EA
10165   9432 DD CB 80 EB         set  5,(ix+-128),e      ; 9432 DD CB 80 EB
10166   9436 DD CB 80 EB         SET  5,(IX+-128),E      ; 9436 DD CB 80 EB
10167   943A DD CB FF EB         set  5,(ix+-1),e        ; 943A DD CB FF EB
10168   943E DD CB FF EB         SET  5,(IX+-1),E        ; 943E DD CB FF EB
10169   9442 DD CB 00 EB         set  5,(ix+0),e         ; 9442 DD CB 00 EB
10170   9446 DD CB 00 EB         SET  5,(IX+0),E         ; 9446 DD CB 00 EB
10171   944A DD CB 7F EB         set  5,(ix+127),e       ; 944A DD CB 7F EB
10172   944E DD CB 7F EB         SET  5,(IX+127),E       ; 944E DD CB 7F EB
10173   9452 DD CB 80 EC         set  5,(ix+-128),h      ; 9452 DD CB 80 EC
10174   9456 DD CB 80 EC         SET  5,(IX+-128),H      ; 9456 DD CB 80 EC
10175   945A DD CB FF EC         set  5,(ix+-1),h        ; 945A DD CB FF EC
10176   945E DD CB FF EC         SET  5,(IX+-1),H        ; 945E DD CB FF EC
10177   9462 DD CB 00 EC         set  5,(ix+0),h         ; 9462 DD CB 00 EC
10178   9466 DD CB 00 EC         SET  5,(IX+0),H         ; 9466 DD CB 00 EC
10179   946A DD CB 7F EC         set  5,(ix+127),h       ; 946A DD CB 7F EC
10180   946E DD CB 7F EC         SET  5,(IX+127),H       ; 946E DD CB 7F EC
10181   9472 DD CB 80 ED         set  5,(ix+-128),l      ; 9472 DD CB 80 ED
10182   9476 DD CB 80 ED         SET  5,(IX+-128),L      ; 9476 DD CB 80 ED
10183   947A DD CB FF ED         set  5,(ix+-1),l        ; 947A DD CB FF ED
10184   947E DD CB FF ED         SET  5,(IX+-1),L        ; 947E DD CB FF ED
10185   9482 DD CB 00 ED         set  5,(ix+0),l         ; 9482 DD CB 00 ED
10186   9486 DD CB 00 ED         SET  5,(IX+0),L         ; 9486 DD CB 00 ED
10187   948A DD CB 7F ED         set  5,(ix+127),l       ; 948A DD CB 7F ED
10188   948E DD CB 7F ED         SET  5,(IX+127),L       ; 948E DD CB 7F ED
10189   9492 FD CB 80 EE         set  5,(iy+-128)        ; 9492 FD CB 80 EE
10190   9496 FD CB 80 EE         SET  5,(IY+-128)        ; 9496 FD CB 80 EE
10191   949A FD CB FF EE         set  5,(iy+-1)          ; 949A FD CB FF EE
10192   949E FD CB FF EE         SET  5,(IY+-1)          ; 949E FD CB FF EE
10193   94A2 FD CB 00 EE         set  5,(iy+0)           ; 94A2 FD CB 00 EE
10194   94A6 FD CB 00 EE         SET  5,(IY+0)           ; 94A6 FD CB 00 EE
10195   94AA FD CB 7F EE         set  5,(iy+127)         ; 94AA FD CB 7F EE
10196   94AE FD CB 7F EE         SET  5,(IY+127)         ; 94AE FD CB 7F EE
10197   94B2 FD CB 80 EF         set  5,(iy+-128),a      ; 94B2 FD CB 80 EF
10198   94B6 FD CB 80 EF         SET  5,(IY+-128),A      ; 94B6 FD CB 80 EF
10199   94BA FD CB FF EF         set  5,(iy+-1),a        ; 94BA FD CB FF EF
10200   94BE FD CB FF EF         SET  5,(IY+-1),A        ; 94BE FD CB FF EF
10201   94C2 FD CB 00 EF         set  5,(iy+0),a         ; 94C2 FD CB 00 EF
10202   94C6 FD CB 00 EF         SET  5,(IY+0),A         ; 94C6 FD CB 00 EF
10203   94CA FD CB 7F EF         set  5,(iy+127),a       ; 94CA FD CB 7F EF
10204   94CE FD CB 7F EF         SET  5,(IY+127),A       ; 94CE FD CB 7F EF
10205   94D2 FD CB 80 E8         set  5,(iy+-128),b      ; 94D2 FD CB 80 E8
10206   94D6 FD CB 80 E8         SET  5,(IY+-128),B      ; 94D6 FD CB 80 E8
10207   94DA FD CB FF E8         set  5,(iy+-1),b        ; 94DA FD CB FF E8
10208   94DE FD CB FF E8         SET  5,(IY+-1),B        ; 94DE FD CB FF E8
10209   94E2 FD CB 00 E8         set  5,(iy+0),b         ; 94E2 FD CB 00 E8
10210   94E6 FD CB 00 E8         SET  5,(IY+0),B         ; 94E6 FD CB 00 E8
10211   94EA FD CB 7F E8         set  5,(iy+127),b       ; 94EA FD CB 7F E8
10212   94EE FD CB 7F E8         SET  5,(IY+127),B       ; 94EE FD CB 7F E8
10213   94F2 FD CB 80 E9         set  5,(iy+-128),c      ; 94F2 FD CB 80 E9
10214   94F6 FD CB 80 E9         SET  5,(IY+-128),C      ; 94F6 FD CB 80 E9
10215   94FA FD CB FF E9         set  5,(iy+-1),c        ; 94FA FD CB FF E9
10216   94FE FD CB FF E9         SET  5,(IY+-1),C        ; 94FE FD CB FF E9
10217   9502 FD CB 00 E9         set  5,(iy+0),c         ; 9502 FD CB 00 E9
10218   9506 FD CB 00 E9         SET  5,(IY+0),C         ; 9506 FD CB 00 E9
10219   950A FD CB 7F E9         set  5,(iy+127),c       ; 950A FD CB 7F E9
10220   950E FD CB 7F E9         SET  5,(IY+127),C       ; 950E FD CB 7F E9
10221   9512 FD CB 80 EA         set  5,(iy+-128),d      ; 9512 FD CB 80 EA
10222   9516 FD CB 80 EA         SET  5,(IY+-128),D      ; 9516 FD CB 80 EA
10223   951A FD CB FF EA         set  5,(iy+-1),d        ; 951A FD CB FF EA
10224   951E FD CB FF EA         SET  5,(IY+-1),D        ; 951E FD CB FF EA
10225   9522 FD CB 00 EA         set  5,(iy+0),d         ; 9522 FD CB 00 EA
10226   9526 FD CB 00 EA         SET  5,(IY+0),D         ; 9526 FD CB 00 EA
10227   952A FD CB 7F EA         set  5,(iy+127),d       ; 952A FD CB 7F EA
10228   952E FD CB 7F EA         SET  5,(IY+127),D       ; 952E FD CB 7F EA
10229   9532 FD CB 80 EB         set  5,(iy+-128),e      ; 9532 FD CB 80 EB
10230   9536 FD CB 80 EB         SET  5,(IY+-128),E      ; 9536 FD CB 80 EB
10231   953A FD CB FF EB         set  5,(iy+-1),e        ; 953A FD CB FF EB
10232   953E FD CB FF EB         SET  5,(IY+-1),E        ; 953E FD CB FF EB
10233   9542 FD CB 00 EB         set  5,(iy+0),e         ; 9542 FD CB 00 EB
10234   9546 FD CB 00 EB         SET  5,(IY+0),E         ; 9546 FD CB 00 EB
10235   954A FD CB 7F EB         set  5,(iy+127),e       ; 954A FD CB 7F EB
10236   954E FD CB 7F EB         SET  5,(IY+127),E       ; 954E FD CB 7F EB
10237   9552 FD CB 80 EC         set  5,(iy+-128),h      ; 9552 FD CB 80 EC
10238   9556 FD CB 80 EC         SET  5,(IY+-128),H      ; 9556 FD CB 80 EC
10239   955A FD CB FF EC         set  5,(iy+-1),h        ; 955A FD CB FF EC
10240   955E FD CB FF EC         SET  5,(IY+-1),H        ; 955E FD CB FF EC
10241   9562 FD CB 00 EC         set  5,(iy+0),h         ; 9562 FD CB 00 EC
10242   9566 FD CB 00 EC         SET  5,(IY+0),H         ; 9566 FD CB 00 EC
10243   956A FD CB 7F EC         set  5,(iy+127),h       ; 956A FD CB 7F EC
10244   956E FD CB 7F EC         SET  5,(IY+127),H       ; 956E FD CB 7F EC
10245   9572 FD CB 80 ED         set  5,(iy+-128),l      ; 9572 FD CB 80 ED
10246   9576 FD CB 80 ED         SET  5,(IY+-128),L      ; 9576 FD CB 80 ED
10247   957A FD CB FF ED         set  5,(iy+-1),l        ; 957A FD CB FF ED
10248   957E FD CB FF ED         SET  5,(IY+-1),L        ; 957E FD CB FF ED
10249   9582 FD CB 00 ED         set  5,(iy+0),l         ; 9582 FD CB 00 ED
10250   9586 FD CB 00 ED         SET  5,(IY+0),L         ; 9586 FD CB 00 ED
10251   958A FD CB 7F ED         set  5,(iy+127),l       ; 958A FD CB 7F ED
10252   958E FD CB 7F ED         SET  5,(IY+127),L       ; 958E FD CB 7F ED
10253   9592 CB EE               set  5,[hl]             ; 9592 CB EE
10254   9594 CB EE               SET  5,[HL]             ; 9594 CB EE
10255   9596 DD CB 80 EE         set  5,[ix+-128]        ; 9596 DD CB 80 EE
10256   959A DD CB 80 EE         SET  5,[IX+-128]        ; 959A DD CB 80 EE
10257   959E DD CB FF EE         set  5,[ix+-1]          ; 959E DD CB FF EE
10258   95A2 DD CB FF EE         SET  5,[IX+-1]          ; 95A2 DD CB FF EE
10259   95A6 DD CB 00 EE         set  5,[ix+0]           ; 95A6 DD CB 00 EE
10260   95AA DD CB 00 EE         SET  5,[IX+0]           ; 95AA DD CB 00 EE
10261   95AE DD CB 7F EE         set  5,[ix+127]         ; 95AE DD CB 7F EE
10262   95B2 DD CB 7F EE         SET  5,[IX+127]         ; 95B2 DD CB 7F EE
10263   95B6 DD CB 80 EF         set  5,[ix+-128],a      ; 95B6 DD CB 80 EF
10264   95BA DD CB 80 EF         SET  5,[IX+-128],A      ; 95BA DD CB 80 EF
10265   95BE DD CB FF EF         set  5,[ix+-1],a        ; 95BE DD CB FF EF
10266   95C2 DD CB FF EF         SET  5,[IX+-1],A        ; 95C2 DD CB FF EF
10267   95C6 DD CB 00 EF         set  5,[ix+0],a         ; 95C6 DD CB 00 EF
10268   95CA DD CB 00 EF         SET  5,[IX+0],A         ; 95CA DD CB 00 EF
10269   95CE DD CB 7F EF         set  5,[ix+127],a       ; 95CE DD CB 7F EF
10270   95D2 DD CB 7F EF         SET  5,[IX+127],A       ; 95D2 DD CB 7F EF
10271   95D6 DD CB 80 E8         set  5,[ix+-128],b      ; 95D6 DD CB 80 E8
10272   95DA DD CB 80 E8         SET  5,[IX+-128],B      ; 95DA DD CB 80 E8
10273   95DE DD CB FF E8         set  5,[ix+-1],b        ; 95DE DD CB FF E8
10274   95E2 DD CB FF E8         SET  5,[IX+-1],B        ; 95E2 DD CB FF E8
10275   95E6 DD CB 00 E8         set  5,[ix+0],b         ; 95E6 DD CB 00 E8
10276   95EA DD CB 00 E8         SET  5,[IX+0],B         ; 95EA DD CB 00 E8
10277   95EE DD CB 7F E8         set  5,[ix+127],b       ; 95EE DD CB 7F E8
10278   95F2 DD CB 7F E8         SET  5,[IX+127],B       ; 95F2 DD CB 7F E8
10279   95F6 DD CB 80 E9         set  5,[ix+-128],c      ; 95F6 DD CB 80 E9
10280   95FA DD CB 80 E9         SET  5,[IX+-128],C      ; 95FA DD CB 80 E9
10281   95FE DD CB FF E9         set  5,[ix+-1],c        ; 95FE DD CB FF E9
10282   9602 DD CB FF E9         SET  5,[IX+-1],C        ; 9602 DD CB FF E9
10283   9606 DD CB 00 E9         set  5,[ix+0],c         ; 9606 DD CB 00 E9
10284   960A DD CB 00 E9         SET  5,[IX+0],C         ; 960A DD CB 00 E9
10285   960E DD CB 7F E9         set  5,[ix+127],c       ; 960E DD CB 7F E9
10286   9612 DD CB 7F E9         SET  5,[IX+127],C       ; 9612 DD CB 7F E9
10287   9616 DD CB 80 EA         set  5,[ix+-128],d      ; 9616 DD CB 80 EA
10288   961A DD CB 80 EA         SET  5,[IX+-128],D      ; 961A DD CB 80 EA
10289   961E DD CB FF EA         set  5,[ix+-1],d        ; 961E DD CB FF EA
10290   9622 DD CB FF EA         SET  5,[IX+-1],D        ; 9622 DD CB FF EA
10291   9626 DD CB 00 EA         set  5,[ix+0],d         ; 9626 DD CB 00 EA
10292   962A DD CB 00 EA         SET  5,[IX+0],D         ; 962A DD CB 00 EA
10293   962E DD CB 7F EA         set  5,[ix+127],d       ; 962E DD CB 7F EA
10294   9632 DD CB 7F EA         SET  5,[IX+127],D       ; 9632 DD CB 7F EA
10295   9636 DD CB 80 EB         set  5,[ix+-128],e      ; 9636 DD CB 80 EB
10296   963A DD CB 80 EB         SET  5,[IX+-128],E      ; 963A DD CB 80 EB
10297   963E DD CB FF EB         set  5,[ix+-1],e        ; 963E DD CB FF EB
10298   9642 DD CB FF EB         SET  5,[IX+-1],E        ; 9642 DD CB FF EB
10299   9646 DD CB 00 EB         set  5,[ix+0],e         ; 9646 DD CB 00 EB
10300   964A DD CB 00 EB         SET  5,[IX+0],E         ; 964A DD CB 00 EB
10301   964E DD CB 7F EB         set  5,[ix+127],e       ; 964E DD CB 7F EB
10302   9652 DD CB 7F EB         SET  5,[IX+127],E       ; 9652 DD CB 7F EB
10303   9656 DD CB 80 EC         set  5,[ix+-128],h      ; 9656 DD CB 80 EC
10304   965A DD CB 80 EC         SET  5,[IX+-128],H      ; 965A DD CB 80 EC
10305   965E DD CB FF EC         set  5,[ix+-1],h        ; 965E DD CB FF EC
10306   9662 DD CB FF EC         SET  5,[IX+-1],H        ; 9662 DD CB FF EC
10307   9666 DD CB 00 EC         set  5,[ix+0],h         ; 9666 DD CB 00 EC
10308   966A DD CB 00 EC         SET  5,[IX+0],H         ; 966A DD CB 00 EC
10309   966E DD CB 7F EC         set  5,[ix+127],h       ; 966E DD CB 7F EC
10310   9672 DD CB 7F EC         SET  5,[IX+127],H       ; 9672 DD CB 7F EC
10311   9676 DD CB 80 ED         set  5,[ix+-128],l      ; 9676 DD CB 80 ED
10312   967A DD CB 80 ED         SET  5,[IX+-128],L      ; 967A DD CB 80 ED
10313   967E DD CB FF ED         set  5,[ix+-1],l        ; 967E DD CB FF ED
10314   9682 DD CB FF ED         SET  5,[IX+-1],L        ; 9682 DD CB FF ED
10315   9686 DD CB 00 ED         set  5,[ix+0],l         ; 9686 DD CB 00 ED
10316   968A DD CB 00 ED         SET  5,[IX+0],L         ; 968A DD CB 00 ED
10317   968E DD CB 7F ED         set  5,[ix+127],l       ; 968E DD CB 7F ED
10318   9692 DD CB 7F ED         SET  5,[IX+127],L       ; 9692 DD CB 7F ED
10319   9696 FD CB 80 EE         set  5,[iy+-128]        ; 9696 FD CB 80 EE
10320   969A FD CB 80 EE         SET  5,[IY+-128]        ; 969A FD CB 80 EE
10321   969E FD CB FF EE         set  5,[iy+-1]          ; 969E FD CB FF EE
10322   96A2 FD CB FF EE         SET  5,[IY+-1]          ; 96A2 FD CB FF EE
10323   96A6 FD CB 00 EE         set  5,[iy+0]           ; 96A6 FD CB 00 EE
10324   96AA FD CB 00 EE         SET  5,[IY+0]           ; 96AA FD CB 00 EE
10325   96AE FD CB 7F EE         set  5,[iy+127]         ; 96AE FD CB 7F EE
10326   96B2 FD CB 7F EE         SET  5,[IY+127]         ; 96B2 FD CB 7F EE
10327   96B6 FD CB 80 EF         set  5,[iy+-128],a      ; 96B6 FD CB 80 EF
10328   96BA FD CB 80 EF         SET  5,[IY+-128],A      ; 96BA FD CB 80 EF
10329   96BE FD CB FF EF         set  5,[iy+-1],a        ; 96BE FD CB FF EF
10330   96C2 FD CB FF EF         SET  5,[IY+-1],A        ; 96C2 FD CB FF EF
10331   96C6 FD CB 00 EF         set  5,[iy+0],a         ; 96C6 FD CB 00 EF
10332   96CA FD CB 00 EF         SET  5,[IY+0],A         ; 96CA FD CB 00 EF
10333   96CE FD CB 7F EF         set  5,[iy+127],a       ; 96CE FD CB 7F EF
10334   96D2 FD CB 7F EF         SET  5,[IY+127],A       ; 96D2 FD CB 7F EF
10335   96D6 FD CB 80 E8         set  5,[iy+-128],b      ; 96D6 FD CB 80 E8
10336   96DA FD CB 80 E8         SET  5,[IY+-128],B      ; 96DA FD CB 80 E8
10337   96DE FD CB FF E8         set  5,[iy+-1],b        ; 96DE FD CB FF E8
10338   96E2 FD CB FF E8         SET  5,[IY+-1],B        ; 96E2 FD CB FF E8
10339   96E6 FD CB 00 E8         set  5,[iy+0],b         ; 96E6 FD CB 00 E8
10340   96EA FD CB 00 E8         SET  5,[IY+0],B         ; 96EA FD CB 00 E8
10341   96EE FD CB 7F E8         set  5,[iy+127],b       ; 96EE FD CB 7F E8
10342   96F2 FD CB 7F E8         SET  5,[IY+127],B       ; 96F2 FD CB 7F E8
10343   96F6 FD CB 80 E9         set  5,[iy+-128],c      ; 96F6 FD CB 80 E9
10344   96FA FD CB 80 E9         SET  5,[IY+-128],C      ; 96FA FD CB 80 E9
10345   96FE FD CB FF E9         set  5,[iy+-1],c        ; 96FE FD CB FF E9
10346   9702 FD CB FF E9         SET  5,[IY+-1],C        ; 9702 FD CB FF E9
10347   9706 FD CB 00 E9         set  5,[iy+0],c         ; 9706 FD CB 00 E9
10348   970A FD CB 00 E9         SET  5,[IY+0],C         ; 970A FD CB 00 E9
10349   970E FD CB 7F E9         set  5,[iy+127],c       ; 970E FD CB 7F E9
10350   9712 FD CB 7F E9         SET  5,[IY+127],C       ; 9712 FD CB 7F E9
10351   9716 FD CB 80 EA         set  5,[iy+-128],d      ; 9716 FD CB 80 EA
10352   971A FD CB 80 EA         SET  5,[IY+-128],D      ; 971A FD CB 80 EA
10353   971E FD CB FF EA         set  5,[iy+-1],d        ; 971E FD CB FF EA
10354   9722 FD CB FF EA         SET  5,[IY+-1],D        ; 9722 FD CB FF EA
10355   9726 FD CB 00 EA         set  5,[iy+0],d         ; 9726 FD CB 00 EA
10356   972A FD CB 00 EA         SET  5,[IY+0],D         ; 972A FD CB 00 EA
10357   972E FD CB 7F EA         set  5,[iy+127],d       ; 972E FD CB 7F EA
10358   9732 FD CB 7F EA         SET  5,[IY+127],D       ; 9732 FD CB 7F EA
10359   9736 FD CB 80 EB         set  5,[iy+-128],e      ; 9736 FD CB 80 EB
10360   973A FD CB 80 EB         SET  5,[IY+-128],E      ; 973A FD CB 80 EB
10361   973E FD CB FF EB         set  5,[iy+-1],e        ; 973E FD CB FF EB
10362   9742 FD CB FF EB         SET  5,[IY+-1],E        ; 9742 FD CB FF EB
10363   9746 FD CB 00 EB         set  5,[iy+0],e         ; 9746 FD CB 00 EB
10364   974A FD CB 00 EB         SET  5,[IY+0],E         ; 974A FD CB 00 EB
10365   974E FD CB 7F EB         set  5,[iy+127],e       ; 974E FD CB 7F EB
10366   9752 FD CB 7F EB         SET  5,[IY+127],E       ; 9752 FD CB 7F EB
10367   9756 FD CB 80 EC         set  5,[iy+-128],h      ; 9756 FD CB 80 EC
10368   975A FD CB 80 EC         SET  5,[IY+-128],H      ; 975A FD CB 80 EC
10369   975E FD CB FF EC         set  5,[iy+-1],h        ; 975E FD CB FF EC
10370   9762 FD CB FF EC         SET  5,[IY+-1],H        ; 9762 FD CB FF EC
10371   9766 FD CB 00 EC         set  5,[iy+0],h         ; 9766 FD CB 00 EC
10372   976A FD CB 00 EC         SET  5,[IY+0],H         ; 976A FD CB 00 EC
10373   976E FD CB 7F EC         set  5,[iy+127],h       ; 976E FD CB 7F EC
10374   9772 FD CB 7F EC         SET  5,[IY+127],H       ; 9772 FD CB 7F EC
10375   9776 FD CB 80 ED         set  5,[iy+-128],l      ; 9776 FD CB 80 ED
10376   977A FD CB 80 ED         SET  5,[IY+-128],L      ; 977A FD CB 80 ED
10377   977E FD CB FF ED         set  5,[iy+-1],l        ; 977E FD CB FF ED
10378   9782 FD CB FF ED         SET  5,[IY+-1],L        ; 9782 FD CB FF ED
10379   9786 FD CB 00 ED         set  5,[iy+0],l         ; 9786 FD CB 00 ED
10380   978A FD CB 00 ED         SET  5,[IY+0],L         ; 978A FD CB 00 ED
10381   978E FD CB 7F ED         set  5,[iy+127],l       ; 978E FD CB 7F ED
10382   9792 FD CB 7F ED         SET  5,[IY+127],L       ; 9792 FD CB 7F ED
10383   9796 CB EF               set  5,a                ; 9796 CB EF
10384   9798 CB EF               SET  5,A                ; 9798 CB EF
10385   979A CB E8               set  5,b                ; 979A CB E8
10386   979C CB E8               SET  5,B                ; 979C CB E8
10387   979E CB E9               set  5,c                ; 979E CB E9
10388   97A0 CB E9               SET  5,C                ; 97A0 CB E9
10389   97A2 CB EA               set  5,d                ; 97A2 CB EA
10390   97A4 CB EA               SET  5,D                ; 97A4 CB EA
10391   97A6 CB EB               set  5,e                ; 97A6 CB EB
10392   97A8 CB EB               SET  5,E                ; 97A8 CB EB
10393   97AA CB EC               set  5,h                ; 97AA CB EC
10394   97AC CB EC               SET  5,H                ; 97AC CB EC
10395   97AE CB ED               set  5,l                ; 97AE CB ED
10396   97B0 CB ED               SET  5,L                ; 97B0 CB ED
10397   97B2 CB F6               set  6,(hl)             ; 97B2 CB F6
10398   97B4 CB F6               SET  6,(HL)             ; 97B4 CB F6
10399   97B6 DD CB 80 F6         set  6,(ix+-128)        ; 97B6 DD CB 80 F6
10400   97BA DD CB 80 F6         SET  6,(IX+-128)        ; 97BA DD CB 80 F6
10401   97BE DD CB FF F6         set  6,(ix+-1)          ; 97BE DD CB FF F6
10402   97C2 DD CB FF F6         SET  6,(IX+-1)          ; 97C2 DD CB FF F6
10403   97C6 DD CB 00 F6         set  6,(ix+0)           ; 97C6 DD CB 00 F6
10404   97CA DD CB 00 F6         SET  6,(IX+0)           ; 97CA DD CB 00 F6
10405   97CE DD CB 7F F6         set  6,(ix+127)         ; 97CE DD CB 7F F6
10406   97D2 DD CB 7F F6         SET  6,(IX+127)         ; 97D2 DD CB 7F F6
10407   97D6 DD CB 80 F7         set  6,(ix+-128),a      ; 97D6 DD CB 80 F7
10408   97DA DD CB 80 F7         SET  6,(IX+-128),A      ; 97DA DD CB 80 F7
10409   97DE DD CB FF F7         set  6,(ix+-1),a        ; 97DE DD CB FF F7
10410   97E2 DD CB FF F7         SET  6,(IX+-1),A        ; 97E2 DD CB FF F7
10411   97E6 DD CB 00 F7         set  6,(ix+0),a         ; 97E6 DD CB 00 F7
10412   97EA DD CB 00 F7         SET  6,(IX+0),A         ; 97EA DD CB 00 F7
10413   97EE DD CB 7F F7         set  6,(ix+127),a       ; 97EE DD CB 7F F7
10414   97F2 DD CB 7F F7         SET  6,(IX+127),A       ; 97F2 DD CB 7F F7
10415   97F6 DD CB 80 F0         set  6,(ix+-128),b      ; 97F6 DD CB 80 F0
10416   97FA DD CB 80 F0         SET  6,(IX+-128),B      ; 97FA DD CB 80 F0
10417   97FE DD CB FF F0         set  6,(ix+-1),b        ; 97FE DD CB FF F0
10418   9802 DD CB FF F0         SET  6,(IX+-1),B        ; 9802 DD CB FF F0
10419   9806 DD CB 00 F0         set  6,(ix+0),b         ; 9806 DD CB 00 F0
10420   980A DD CB 00 F0         SET  6,(IX+0),B         ; 980A DD CB 00 F0
10421   980E DD CB 7F F0         set  6,(ix+127),b       ; 980E DD CB 7F F0
10422   9812 DD CB 7F F0         SET  6,(IX+127),B       ; 9812 DD CB 7F F0
10423   9816 DD CB 80 F1         set  6,(ix+-128),c      ; 9816 DD CB 80 F1
10424   981A DD CB 80 F1         SET  6,(IX+-128),C      ; 981A DD CB 80 F1
10425   981E DD CB FF F1         set  6,(ix+-1),c        ; 981E DD CB FF F1
10426   9822 DD CB FF F1         SET  6,(IX+-1),C        ; 9822 DD CB FF F1
10427   9826 DD CB 00 F1         set  6,(ix+0),c         ; 9826 DD CB 00 F1
10428   982A DD CB 00 F1         SET  6,(IX+0),C         ; 982A DD CB 00 F1
10429   982E DD CB 7F F1         set  6,(ix+127),c       ; 982E DD CB 7F F1
10430   9832 DD CB 7F F1         SET  6,(IX+127),C       ; 9832 DD CB 7F F1
10431   9836 DD CB 80 F2         set  6,(ix+-128),d      ; 9836 DD CB 80 F2
10432   983A DD CB 80 F2         SET  6,(IX+-128),D      ; 983A DD CB 80 F2
10433   983E DD CB FF F2         set  6,(ix+-1),d        ; 983E DD CB FF F2
10434   9842 DD CB FF F2         SET  6,(IX+-1),D        ; 9842 DD CB FF F2
10435   9846 DD CB 00 F2         set  6,(ix+0),d         ; 9846 DD CB 00 F2
10436   984A DD CB 00 F2         SET  6,(IX+0),D         ; 984A DD CB 00 F2
10437   984E DD CB 7F F2         set  6,(ix+127),d       ; 984E DD CB 7F F2
10438   9852 DD CB 7F F2         SET  6,(IX+127),D       ; 9852 DD CB 7F F2
10439   9856 DD CB 80 F3         set  6,(ix+-128),e      ; 9856 DD CB 80 F3
10440   985A DD CB 80 F3         SET  6,(IX+-128),E      ; 985A DD CB 80 F3
10441   985E DD CB FF F3         set  6,(ix+-1),e        ; 985E DD CB FF F3
10442   9862 DD CB FF F3         SET  6,(IX+-1),E        ; 9862 DD CB FF F3
10443   9866 DD CB 00 F3         set  6,(ix+0),e         ; 9866 DD CB 00 F3
10444   986A DD CB 00 F3         SET  6,(IX+0),E         ; 986A DD CB 00 F3
10445   986E DD CB 7F F3         set  6,(ix+127),e       ; 986E DD CB 7F F3
10446   9872 DD CB 7F F3         SET  6,(IX+127),E       ; 9872 DD CB 7F F3
10447   9876 DD CB 80 F4         set  6,(ix+-128),h      ; 9876 DD CB 80 F4
10448   987A DD CB 80 F4         SET  6,(IX+-128),H      ; 987A DD CB 80 F4
10449   987E DD CB FF F4         set  6,(ix+-1),h        ; 987E DD CB FF F4
10450   9882 DD CB FF F4         SET  6,(IX+-1),H        ; 9882 DD CB FF F4
10451   9886 DD CB 00 F4         set  6,(ix+0),h         ; 9886 DD CB 00 F4
10452   988A DD CB 00 F4         SET  6,(IX+0),H         ; 988A DD CB 00 F4
10453   988E DD CB 7F F4         set  6,(ix+127),h       ; 988E DD CB 7F F4
10454   9892 DD CB 7F F4         SET  6,(IX+127),H       ; 9892 DD CB 7F F4
10455   9896 DD CB 80 F5         set  6,(ix+-128),l      ; 9896 DD CB 80 F5
10456   989A DD CB 80 F5         SET  6,(IX+-128),L      ; 989A DD CB 80 F5
10457   989E DD CB FF F5         set  6,(ix+-1),l        ; 989E DD CB FF F5
10458   98A2 DD CB FF F5         SET  6,(IX+-1),L        ; 98A2 DD CB FF F5
10459   98A6 DD CB 00 F5         set  6,(ix+0),l         ; 98A6 DD CB 00 F5
10460   98AA DD CB 00 F5         SET  6,(IX+0),L         ; 98AA DD CB 00 F5
10461   98AE DD CB 7F F5         set  6,(ix+127),l       ; 98AE DD CB 7F F5
10462   98B2 DD CB 7F F5         SET  6,(IX+127),L       ; 98B2 DD CB 7F F5
10463   98B6 FD CB 80 F6         set  6,(iy+-128)        ; 98B6 FD CB 80 F6
10464   98BA FD CB 80 F6         SET  6,(IY+-128)        ; 98BA FD CB 80 F6
10465   98BE FD CB FF F6         set  6,(iy+-1)          ; 98BE FD CB FF F6
10466   98C2 FD CB FF F6         SET  6,(IY+-1)          ; 98C2 FD CB FF F6
10467   98C6 FD CB 00 F6         set  6,(iy+0)           ; 98C6 FD CB 00 F6
10468   98CA FD CB 00 F6         SET  6,(IY+0)           ; 98CA FD CB 00 F6
10469   98CE FD CB 7F F6         set  6,(iy+127)         ; 98CE FD CB 7F F6
10470   98D2 FD CB 7F F6         SET  6,(IY+127)         ; 98D2 FD CB 7F F6
10471   98D6 FD CB 80 F7         set  6,(iy+-128),a      ; 98D6 FD CB 80 F7
10472   98DA FD CB 80 F7         SET  6,(IY+-128),A      ; 98DA FD CB 80 F7
10473   98DE FD CB FF F7         set  6,(iy+-1),a        ; 98DE FD CB FF F7
10474   98E2 FD CB FF F7         SET  6,(IY+-1),A        ; 98E2 FD CB FF F7
10475   98E6 FD CB 00 F7         set  6,(iy+0),a         ; 98E6 FD CB 00 F7
10476   98EA FD CB 00 F7         SET  6,(IY+0),A         ; 98EA FD CB 00 F7
10477   98EE FD CB 7F F7         set  6,(iy+127),a       ; 98EE FD CB 7F F7
10478   98F2 FD CB 7F F7         SET  6,(IY+127),A       ; 98F2 FD CB 7F F7
10479   98F6 FD CB 80 F0         set  6,(iy+-128),b      ; 98F6 FD CB 80 F0
10480   98FA FD CB 80 F0         SET  6,(IY+-128),B      ; 98FA FD CB 80 F0
10481   98FE FD CB FF F0         set  6,(iy+-1),b        ; 98FE FD CB FF F0
10482   9902 FD CB FF F0         SET  6,(IY+-1),B        ; 9902 FD CB FF F0
10483   9906 FD CB 00 F0         set  6,(iy+0),b         ; 9906 FD CB 00 F0
10484   990A FD CB 00 F0         SET  6,(IY+0),B         ; 990A FD CB 00 F0
10485   990E FD CB 7F F0         set  6,(iy+127),b       ; 990E FD CB 7F F0
10486   9912 FD CB 7F F0         SET  6,(IY+127),B       ; 9912 FD CB 7F F0
10487   9916 FD CB 80 F1         set  6,(iy+-128),c      ; 9916 FD CB 80 F1
10488   991A FD CB 80 F1         SET  6,(IY+-128),C      ; 991A FD CB 80 F1
10489   991E FD CB FF F1         set  6,(iy+-1),c        ; 991E FD CB FF F1
10490   9922 FD CB FF F1         SET  6,(IY+-1),C        ; 9922 FD CB FF F1
10491   9926 FD CB 00 F1         set  6,(iy+0),c         ; 9926 FD CB 00 F1
10492   992A FD CB 00 F1         SET  6,(IY+0),C         ; 992A FD CB 00 F1
10493   992E FD CB 7F F1         set  6,(iy+127),c       ; 992E FD CB 7F F1
10494   9932 FD CB 7F F1         SET  6,(IY+127),C       ; 9932 FD CB 7F F1
10495   9936 FD CB 80 F2         set  6,(iy+-128),d      ; 9936 FD CB 80 F2
10496   993A FD CB 80 F2         SET  6,(IY+-128),D      ; 993A FD CB 80 F2
10497   993E FD CB FF F2         set  6,(iy+-1),d        ; 993E FD CB FF F2
10498   9942 FD CB FF F2         SET  6,(IY+-1),D        ; 9942 FD CB FF F2
10499   9946 FD CB 00 F2         set  6,(iy+0),d         ; 9946 FD CB 00 F2
10500   994A FD CB 00 F2         SET  6,(IY+0),D         ; 994A FD CB 00 F2
10501   994E FD CB 7F F2         set  6,(iy+127),d       ; 994E FD CB 7F F2
10502   9952 FD CB 7F F2         SET  6,(IY+127),D       ; 9952 FD CB 7F F2
10503   9956 FD CB 80 F3         set  6,(iy+-128),e      ; 9956 FD CB 80 F3
10504   995A FD CB 80 F3         SET  6,(IY+-128),E      ; 995A FD CB 80 F3
10505   995E FD CB FF F3         set  6,(iy+-1),e        ; 995E FD CB FF F3
10506   9962 FD CB FF F3         SET  6,(IY+-1),E        ; 9962 FD CB FF F3
10507   9966 FD CB 00 F3         set  6,(iy+0),e         ; 9966 FD CB 00 F3
10508   996A FD CB 00 F3         SET  6,(IY+0),E         ; 996A FD CB 00 F3
10509   996E FD CB 7F F3         set  6,(iy+127),e       ; 996E FD CB 7F F3
10510   9972 FD CB 7F F3         SET  6,(IY+127),E       ; 9972 FD CB 7F F3
10511   9976 FD CB 80 F4         set  6,(iy+-128),h      ; 9976 FD CB 80 F4
10512   997A FD CB 80 F4         SET  6,(IY+-128),H      ; 997A FD CB 80 F4
10513   997E FD CB FF F4         set  6,(iy+-1),h        ; 997E FD CB FF F4
10514   9982 FD CB FF F4         SET  6,(IY+-1),H        ; 9982 FD CB FF F4
10515   9986 FD CB 00 F4         set  6,(iy+0),h         ; 9986 FD CB 00 F4
10516   998A FD CB 00 F4         SET  6,(IY+0),H         ; 998A FD CB 00 F4
10517   998E FD CB 7F F4         set  6,(iy+127),h       ; 998E FD CB 7F F4
10518   9992 FD CB 7F F4         SET  6,(IY+127),H       ; 9992 FD CB 7F F4
10519   9996 FD CB 80 F5         set  6,(iy+-128),l      ; 9996 FD CB 80 F5
10520   999A FD CB 80 F5         SET  6,(IY+-128),L      ; 999A FD CB 80 F5
10521   999E FD CB FF F5         set  6,(iy+-1),l        ; 999E FD CB FF F5
10522   99A2 FD CB FF F5         SET  6,(IY+-1),L        ; 99A2 FD CB FF F5
10523   99A6 FD CB 00 F5         set  6,(iy+0),l         ; 99A6 FD CB 00 F5
10524   99AA FD CB 00 F5         SET  6,(IY+0),L         ; 99AA FD CB 00 F5
10525   99AE FD CB 7F F5         set  6,(iy+127),l       ; 99AE FD CB 7F F5
10526   99B2 FD CB 7F F5         SET  6,(IY+127),L       ; 99B2 FD CB 7F F5
10527   99B6 CB F6               set  6,[hl]             ; 99B6 CB F6
10528   99B8 CB F6               SET  6,[HL]             ; 99B8 CB F6
10529   99BA DD CB 80 F6         set  6,[ix+-128]        ; 99BA DD CB 80 F6
10530   99BE DD CB 80 F6         SET  6,[IX+-128]        ; 99BE DD CB 80 F6
10531   99C2 DD CB FF F6         set  6,[ix+-1]          ; 99C2 DD CB FF F6
10532   99C6 DD CB FF F6         SET  6,[IX+-1]          ; 99C6 DD CB FF F6
10533   99CA DD CB 00 F6         set  6,[ix+0]           ; 99CA DD CB 00 F6
10534   99CE DD CB 00 F6         SET  6,[IX+0]           ; 99CE DD CB 00 F6
10535   99D2 DD CB 7F F6         set  6,[ix+127]         ; 99D2 DD CB 7F F6
10536   99D6 DD CB 7F F6         SET  6,[IX+127]         ; 99D6 DD CB 7F F6
10537   99DA DD CB 80 F7         set  6,[ix+-128],a      ; 99DA DD CB 80 F7
10538   99DE DD CB 80 F7         SET  6,[IX+-128],A      ; 99DE DD CB 80 F7
10539   99E2 DD CB FF F7         set  6,[ix+-1],a        ; 99E2 DD CB FF F7
10540   99E6 DD CB FF F7         SET  6,[IX+-1],A        ; 99E6 DD CB FF F7
10541   99EA DD CB 00 F7         set  6,[ix+0],a         ; 99EA DD CB 00 F7
10542   99EE DD CB 00 F7         SET  6,[IX+0],A         ; 99EE DD CB 00 F7
10543   99F2 DD CB 7F F7         set  6,[ix+127],a       ; 99F2 DD CB 7F F7
10544   99F6 DD CB 7F F7         SET  6,[IX+127],A       ; 99F6 DD CB 7F F7
10545   99FA DD CB 80 F0         set  6,[ix+-128],b      ; 99FA DD CB 80 F0
10546   99FE DD CB 80 F0         SET  6,[IX+-128],B      ; 99FE DD CB 80 F0
10547   9A02 DD CB FF F0         set  6,[ix+-1],b        ; 9A02 DD CB FF F0
10548   9A06 DD CB FF F0         SET  6,[IX+-1],B        ; 9A06 DD CB FF F0
10549   9A0A DD CB 00 F0         set  6,[ix+0],b         ; 9A0A DD CB 00 F0
10550   9A0E DD CB 00 F0         SET  6,[IX+0],B         ; 9A0E DD CB 00 F0
10551   9A12 DD CB 7F F0         set  6,[ix+127],b       ; 9A12 DD CB 7F F0
10552   9A16 DD CB 7F F0         SET  6,[IX+127],B       ; 9A16 DD CB 7F F0
10553   9A1A DD CB 80 F1         set  6,[ix+-128],c      ; 9A1A DD CB 80 F1
10554   9A1E DD CB 80 F1         SET  6,[IX+-128],C      ; 9A1E DD CB 80 F1
10555   9A22 DD CB FF F1         set  6,[ix+-1],c        ; 9A22 DD CB FF F1
10556   9A26 DD CB FF F1         SET  6,[IX+-1],C        ; 9A26 DD CB FF F1
10557   9A2A DD CB 00 F1         set  6,[ix+0],c         ; 9A2A DD CB 00 F1
10558   9A2E DD CB 00 F1         SET  6,[IX+0],C         ; 9A2E DD CB 00 F1
10559   9A32 DD CB 7F F1         set  6,[ix+127],c       ; 9A32 DD CB 7F F1
10560   9A36 DD CB 7F F1         SET  6,[IX+127],C       ; 9A36 DD CB 7F F1
10561   9A3A DD CB 80 F2         set  6,[ix+-128],d      ; 9A3A DD CB 80 F2
10562   9A3E DD CB 80 F2         SET  6,[IX+-128],D      ; 9A3E DD CB 80 F2
10563   9A42 DD CB FF F2         set  6,[ix+-1],d        ; 9A42 DD CB FF F2
10564   9A46 DD CB FF F2         SET  6,[IX+-1],D        ; 9A46 DD CB FF F2
10565   9A4A DD CB 00 F2         set  6,[ix+0],d         ; 9A4A DD CB 00 F2
10566   9A4E DD CB 00 F2         SET  6,[IX+0],D         ; 9A4E DD CB 00 F2
10567   9A52 DD CB 7F F2         set  6,[ix+127],d       ; 9A52 DD CB 7F F2
10568   9A56 DD CB 7F F2         SET  6,[IX+127],D       ; 9A56 DD CB 7F F2
10569   9A5A DD CB 80 F3         set  6,[ix+-128],e      ; 9A5A DD CB 80 F3
10570   9A5E DD CB 80 F3         SET  6,[IX+-128],E      ; 9A5E DD CB 80 F3
10571   9A62 DD CB FF F3         set  6,[ix+-1],e        ; 9A62 DD CB FF F3
10572   9A66 DD CB FF F3         SET  6,[IX+-1],E        ; 9A66 DD CB FF F3
10573   9A6A DD CB 00 F3         set  6,[ix+0],e         ; 9A6A DD CB 00 F3
10574   9A6E DD CB 00 F3         SET  6,[IX+0],E         ; 9A6E DD CB 00 F3
10575   9A72 DD CB 7F F3         set  6,[ix+127],e       ; 9A72 DD CB 7F F3
10576   9A76 DD CB 7F F3         SET  6,[IX+127],E       ; 9A76 DD CB 7F F3
10577   9A7A DD CB 80 F4         set  6,[ix+-128],h      ; 9A7A DD CB 80 F4
10578   9A7E DD CB 80 F4         SET  6,[IX+-128],H      ; 9A7E DD CB 80 F4
10579   9A82 DD CB FF F4         set  6,[ix+-1],h        ; 9A82 DD CB FF F4
10580   9A86 DD CB FF F4         SET  6,[IX+-1],H        ; 9A86 DD CB FF F4
10581   9A8A DD CB 00 F4         set  6,[ix+0],h         ; 9A8A DD CB 00 F4
10582   9A8E DD CB 00 F4         SET  6,[IX+0],H         ; 9A8E DD CB 00 F4
10583   9A92 DD CB 7F F4         set  6,[ix+127],h       ; 9A92 DD CB 7F F4
10584   9A96 DD CB 7F F4         SET  6,[IX+127],H       ; 9A96 DD CB 7F F4
10585   9A9A DD CB 80 F5         set  6,[ix+-128],l      ; 9A9A DD CB 80 F5
10586   9A9E DD CB 80 F5         SET  6,[IX+-128],L      ; 9A9E DD CB 80 F5
10587   9AA2 DD CB FF F5         set  6,[ix+-1],l        ; 9AA2 DD CB FF F5
10588   9AA6 DD CB FF F5         SET  6,[IX+-1],L        ; 9AA6 DD CB FF F5
10589   9AAA DD CB 00 F5         set  6,[ix+0],l         ; 9AAA DD CB 00 F5
10590   9AAE DD CB 00 F5         SET  6,[IX+0],L         ; 9AAE DD CB 00 F5
10591   9AB2 DD CB 7F F5         set  6,[ix+127],l       ; 9AB2 DD CB 7F F5
10592   9AB6 DD CB 7F F5         SET  6,[IX+127],L       ; 9AB6 DD CB 7F F5
10593   9ABA FD CB 80 F6         set  6,[iy+-128]        ; 9ABA FD CB 80 F6
10594   9ABE FD CB 80 F6         SET  6,[IY+-128]        ; 9ABE FD CB 80 F6
10595   9AC2 FD CB FF F6         set  6,[iy+-1]          ; 9AC2 FD CB FF F6
10596   9AC6 FD CB FF F6         SET  6,[IY+-1]          ; 9AC6 FD CB FF F6
10597   9ACA FD CB 00 F6         set  6,[iy+0]           ; 9ACA FD CB 00 F6
10598   9ACE FD CB 00 F6         SET  6,[IY+0]           ; 9ACE FD CB 00 F6
10599   9AD2 FD CB 7F F6         set  6,[iy+127]         ; 9AD2 FD CB 7F F6
10600   9AD6 FD CB 7F F6         SET  6,[IY+127]         ; 9AD6 FD CB 7F F6
10601   9ADA FD CB 80 F7         set  6,[iy+-128],a      ; 9ADA FD CB 80 F7
10602   9ADE FD CB 80 F7         SET  6,[IY+-128],A      ; 9ADE FD CB 80 F7
10603   9AE2 FD CB FF F7         set  6,[iy+-1],a        ; 9AE2 FD CB FF F7
10604   9AE6 FD CB FF F7         SET  6,[IY+-1],A        ; 9AE6 FD CB FF F7
10605   9AEA FD CB 00 F7         set  6,[iy+0],a         ; 9AEA FD CB 00 F7
10606   9AEE FD CB 00 F7         SET  6,[IY+0],A         ; 9AEE FD CB 00 F7
10607   9AF2 FD CB 7F F7         set  6,[iy+127],a       ; 9AF2 FD CB 7F F7
10608   9AF6 FD CB 7F F7         SET  6,[IY+127],A       ; 9AF6 FD CB 7F F7
10609   9AFA FD CB 80 F0         set  6,[iy+-128],b      ; 9AFA FD CB 80 F0
10610   9AFE FD CB 80 F0         SET  6,[IY+-128],B      ; 9AFE FD CB 80 F0
10611   9B02 FD CB FF F0         set  6,[iy+-1],b        ; 9B02 FD CB FF F0
10612   9B06 FD CB FF F0         SET  6,[IY+-1],B        ; 9B06 FD CB FF F0
10613   9B0A FD CB 00 F0         set  6,[iy+0],b         ; 9B0A FD CB 00 F0
10614   9B0E FD CB 00 F0         SET  6,[IY+0],B         ; 9B0E FD CB 00 F0
10615   9B12 FD CB 7F F0         set  6,[iy+127],b       ; 9B12 FD CB 7F F0
10616   9B16 FD CB 7F F0         SET  6,[IY+127],B       ; 9B16 FD CB 7F F0
10617   9B1A FD CB 80 F1         set  6,[iy+-128],c      ; 9B1A FD CB 80 F1
10618   9B1E FD CB 80 F1         SET  6,[IY+-128],C      ; 9B1E FD CB 80 F1
10619   9B22 FD CB FF F1         set  6,[iy+-1],c        ; 9B22 FD CB FF F1
10620   9B26 FD CB FF F1         SET  6,[IY+-1],C        ; 9B26 FD CB FF F1
10621   9B2A FD CB 00 F1         set  6,[iy+0],c         ; 9B2A FD CB 00 F1
10622   9B2E FD CB 00 F1         SET  6,[IY+0],C         ; 9B2E FD CB 00 F1
10623   9B32 FD CB 7F F1         set  6,[iy+127],c       ; 9B32 FD CB 7F F1
10624   9B36 FD CB 7F F1         SET  6,[IY+127],C       ; 9B36 FD CB 7F F1
10625   9B3A FD CB 80 F2         set  6,[iy+-128],d      ; 9B3A FD CB 80 F2
10626   9B3E FD CB 80 F2         SET  6,[IY+-128],D      ; 9B3E FD CB 80 F2
10627   9B42 FD CB FF F2         set  6,[iy+-1],d        ; 9B42 FD CB FF F2
10628   9B46 FD CB FF F2         SET  6,[IY+-1],D        ; 9B46 FD CB FF F2
10629   9B4A FD CB 00 F2         set  6,[iy+0],d         ; 9B4A FD CB 00 F2
10630   9B4E FD CB 00 F2         SET  6,[IY+0],D         ; 9B4E FD CB 00 F2
10631   9B52 FD CB 7F F2         set  6,[iy+127],d       ; 9B52 FD CB 7F F2
10632   9B56 FD CB 7F F2         SET  6,[IY+127],D       ; 9B56 FD CB 7F F2
10633   9B5A FD CB 80 F3         set  6,[iy+-128],e      ; 9B5A FD CB 80 F3
10634   9B5E FD CB 80 F3         SET  6,[IY+-128],E      ; 9B5E FD CB 80 F3
10635   9B62 FD CB FF F3         set  6,[iy+-1],e        ; 9B62 FD CB FF F3
10636   9B66 FD CB FF F3         SET  6,[IY+-1],E        ; 9B66 FD CB FF F3
10637   9B6A FD CB 00 F3         set  6,[iy+0],e         ; 9B6A FD CB 00 F3
10638   9B6E FD CB 00 F3         SET  6,[IY+0],E         ; 9B6E FD CB 00 F3
10639   9B72 FD CB 7F F3         set  6,[iy+127],e       ; 9B72 FD CB 7F F3
10640   9B76 FD CB 7F F3         SET  6,[IY+127],E       ; 9B76 FD CB 7F F3
10641   9B7A FD CB 80 F4         set  6,[iy+-128],h      ; 9B7A FD CB 80 F4
10642   9B7E FD CB 80 F4         SET  6,[IY+-128],H      ; 9B7E FD CB 80 F4
10643   9B82 FD CB FF F4         set  6,[iy+-1],h        ; 9B82 FD CB FF F4
10644   9B86 FD CB FF F4         SET  6,[IY+-1],H        ; 9B86 FD CB FF F4
10645   9B8A FD CB 00 F4         set  6,[iy+0],h         ; 9B8A FD CB 00 F4
10646   9B8E FD CB 00 F4         SET  6,[IY+0],H         ; 9B8E FD CB 00 F4
10647   9B92 FD CB 7F F4         set  6,[iy+127],h       ; 9B92 FD CB 7F F4
10648   9B96 FD CB 7F F4         SET  6,[IY+127],H       ; 9B96 FD CB 7F F4
10649   9B9A FD CB 80 F5         set  6,[iy+-128],l      ; 9B9A FD CB 80 F5
10650   9B9E FD CB 80 F5         SET  6,[IY+-128],L      ; 9B9E FD CB 80 F5
10651   9BA2 FD CB FF F5         set  6,[iy+-1],l        ; 9BA2 FD CB FF F5
10652   9BA6 FD CB FF F5         SET  6,[IY+-1],L        ; 9BA6 FD CB FF F5
10653   9BAA FD CB 00 F5         set  6,[iy+0],l         ; 9BAA FD CB 00 F5
10654   9BAE FD CB 00 F5         SET  6,[IY+0],L         ; 9BAE FD CB 00 F5
10655   9BB2 FD CB 7F F5         set  6,[iy+127],l       ; 9BB2 FD CB 7F F5
10656   9BB6 FD CB 7F F5         SET  6,[IY+127],L       ; 9BB6 FD CB 7F F5
10657   9BBA CB F7               set  6,a                ; 9BBA CB F7
10658   9BBC CB F7               SET  6,A                ; 9BBC CB F7
10659   9BBE CB F0               set  6,b                ; 9BBE CB F0
10660   9BC0 CB F0               SET  6,B                ; 9BC0 CB F0
10661   9BC2 CB F1               set  6,c                ; 9BC2 CB F1
10662   9BC4 CB F1               SET  6,C                ; 9BC4 CB F1
10663   9BC6 CB F2               set  6,d                ; 9BC6 CB F2
10664   9BC8 CB F2               SET  6,D                ; 9BC8 CB F2
10665   9BCA CB F3               set  6,e                ; 9BCA CB F3
10666   9BCC CB F3               SET  6,E                ; 9BCC CB F3
10667   9BCE CB F4               set  6,h                ; 9BCE CB F4
10668   9BD0 CB F4               SET  6,H                ; 9BD0 CB F4
10669   9BD2 CB F5               set  6,l                ; 9BD2 CB F5
10670   9BD4 CB F5               SET  6,L                ; 9BD4 CB F5
10671   9BD6 CB FE               set  7,(hl)             ; 9BD6 CB FE
10672   9BD8 CB FE               SET  7,(HL)             ; 9BD8 CB FE
10673   9BDA DD CB 80 FE         set  7,(ix+-128)        ; 9BDA DD CB 80 FE
10674   9BDE DD CB 80 FE         SET  7,(IX+-128)        ; 9BDE DD CB 80 FE
10675   9BE2 DD CB FF FE         set  7,(ix+-1)          ; 9BE2 DD CB FF FE
10676   9BE6 DD CB FF FE         SET  7,(IX+-1)          ; 9BE6 DD CB FF FE
10677   9BEA DD CB 00 FE         set  7,(ix+0)           ; 9BEA DD CB 00 FE
10678   9BEE DD CB 00 FE         SET  7,(IX+0)           ; 9BEE DD CB 00 FE
10679   9BF2 DD CB 7F FE         set  7,(ix+127)         ; 9BF2 DD CB 7F FE
10680   9BF6 DD CB 7F FE         SET  7,(IX+127)         ; 9BF6 DD CB 7F FE
10681   9BFA DD CB 80 FF         set  7,(ix+-128),a      ; 9BFA DD CB 80 FF
10682   9BFE DD CB 80 FF         SET  7,(IX+-128),A      ; 9BFE DD CB 80 FF
10683   9C02 DD CB FF FF         set  7,(ix+-1),a        ; 9C02 DD CB FF FF
10684   9C06 DD CB FF FF         SET  7,(IX+-1),A        ; 9C06 DD CB FF FF
10685   9C0A DD CB 00 FF         set  7,(ix+0),a         ; 9C0A DD CB 00 FF
10686   9C0E DD CB 00 FF         SET  7,(IX+0),A         ; 9C0E DD CB 00 FF
10687   9C12 DD CB 7F FF         set  7,(ix+127),a       ; 9C12 DD CB 7F FF
10688   9C16 DD CB 7F FF         SET  7,(IX+127),A       ; 9C16 DD CB 7F FF
10689   9C1A DD CB 80 F8         set  7,(ix+-128),b      ; 9C1A DD CB 80 F8
10690   9C1E DD CB 80 F8         SET  7,(IX+-128),B      ; 9C1E DD CB 80 F8
10691   9C22 DD CB FF F8         set  7,(ix+-1),b        ; 9C22 DD CB FF F8
10692   9C26 DD CB FF F8         SET  7,(IX+-1),B        ; 9C26 DD CB FF F8
10693   9C2A DD CB 00 F8         set  7,(ix+0),b         ; 9C2A DD CB 00 F8
10694   9C2E DD CB 00 F8         SET  7,(IX+0),B         ; 9C2E DD CB 00 F8
10695   9C32 DD CB 7F F8         set  7,(ix+127),b       ; 9C32 DD CB 7F F8
10696   9C36 DD CB 7F F8         SET  7,(IX+127),B       ; 9C36 DD CB 7F F8
10697   9C3A DD CB 80 F9         set  7,(ix+-128),c      ; 9C3A DD CB 80 F9
10698   9C3E DD CB 80 F9         SET  7,(IX+-128),C      ; 9C3E DD CB 80 F9
10699   9C42 DD CB FF F9         set  7,(ix+-1),c        ; 9C42 DD CB FF F9
10700   9C46 DD CB FF F9         SET  7,(IX+-1),C        ; 9C46 DD CB FF F9
10701   9C4A DD CB 00 F9         set  7,(ix+0),c         ; 9C4A DD CB 00 F9
10702   9C4E DD CB 00 F9         SET  7,(IX+0),C         ; 9C4E DD CB 00 F9
10703   9C52 DD CB 7F F9         set  7,(ix+127),c       ; 9C52 DD CB 7F F9
10704   9C56 DD CB 7F F9         SET  7,(IX+127),C       ; 9C56 DD CB 7F F9
10705   9C5A DD CB 80 FA         set  7,(ix+-128),d      ; 9C5A DD CB 80 FA
10706   9C5E DD CB 80 FA         SET  7,(IX+-128),D      ; 9C5E DD CB 80 FA
10707   9C62 DD CB FF FA         set  7,(ix+-1),d        ; 9C62 DD CB FF FA
10708   9C66 DD CB FF FA         SET  7,(IX+-1),D        ; 9C66 DD CB FF FA
10709   9C6A DD CB 00 FA         set  7,(ix+0),d         ; 9C6A DD CB 00 FA
10710   9C6E DD CB 00 FA         SET  7,(IX+0),D         ; 9C6E DD CB 00 FA
10711   9C72 DD CB 7F FA         set  7,(ix+127),d       ; 9C72 DD CB 7F FA
10712   9C76 DD CB 7F FA         SET  7,(IX+127),D       ; 9C76 DD CB 7F FA
10713   9C7A DD CB 80 FB         set  7,(ix+-128),e      ; 9C7A DD CB 80 FB
10714   9C7E DD CB 80 FB         SET  7,(IX+-128),E      ; 9C7E DD CB 80 FB
10715   9C82 DD CB FF FB         set  7,(ix+-1),e        ; 9C82 DD CB FF FB
10716   9C86 DD CB FF FB         SET  7,(IX+-1),E        ; 9C86 DD CB FF FB
10717   9C8A DD CB 00 FB         set  7,(ix+0),e         ; 9C8A DD CB 00 FB
10718   9C8E DD CB 00 FB         SET  7,(IX+0),E         ; 9C8E DD CB 00 FB
10719   9C92 DD CB 7F FB         set  7,(ix+127),e       ; 9C92 DD CB 7F FB
10720   9C96 DD CB 7F FB         SET  7,(IX+127),E       ; 9C96 DD CB 7F FB
10721   9C9A DD CB 80 FC         set  7,(ix+-128),h      ; 9C9A DD CB 80 FC
10722   9C9E DD CB 80 FC         SET  7,(IX+-128),H      ; 9C9E DD CB 80 FC
10723   9CA2 DD CB FF FC         set  7,(ix+-1),h        ; 9CA2 DD CB FF FC
10724   9CA6 DD CB FF FC         SET  7,(IX+-1),H        ; 9CA6 DD CB FF FC
10725   9CAA DD CB 00 FC         set  7,(ix+0),h         ; 9CAA DD CB 00 FC
10726   9CAE DD CB 00 FC         SET  7,(IX+0),H         ; 9CAE DD CB 00 FC
10727   9CB2 DD CB 7F FC         set  7,(ix+127),h       ; 9CB2 DD CB 7F FC
10728   9CB6 DD CB 7F FC         SET  7,(IX+127),H       ; 9CB6 DD CB 7F FC
10729   9CBA DD CB 80 FD         set  7,(ix+-128),l      ; 9CBA DD CB 80 FD
10730   9CBE DD CB 80 FD         SET  7,(IX+-128),L      ; 9CBE DD CB 80 FD
10731   9CC2 DD CB FF FD         set  7,(ix+-1),l        ; 9CC2 DD CB FF FD
10732   9CC6 DD CB FF FD         SET  7,(IX+-1),L        ; 9CC6 DD CB FF FD
10733   9CCA DD CB 00 FD         set  7,(ix+0),l         ; 9CCA DD CB 00 FD
10734   9CCE DD CB 00 FD         SET  7,(IX+0),L         ; 9CCE DD CB 00 FD
10735   9CD2 DD CB 7F FD         set  7,(ix+127),l       ; 9CD2 DD CB 7F FD
10736   9CD6 DD CB 7F FD         SET  7,(IX+127),L       ; 9CD6 DD CB 7F FD
10737   9CDA FD CB 80 FE         set  7,(iy+-128)        ; 9CDA FD CB 80 FE
10738   9CDE FD CB 80 FE         SET  7,(IY+-128)        ; 9CDE FD CB 80 FE
10739   9CE2 FD CB FF FE         set  7,(iy+-1)          ; 9CE2 FD CB FF FE
10740   9CE6 FD CB FF FE         SET  7,(IY+-1)          ; 9CE6 FD CB FF FE
10741   9CEA FD CB 00 FE         set  7,(iy+0)           ; 9CEA FD CB 00 FE
10742   9CEE FD CB 00 FE         SET  7,(IY+0)           ; 9CEE FD CB 00 FE
10743   9CF2 FD CB 7F FE         set  7,(iy+127)         ; 9CF2 FD CB 7F FE
10744   9CF6 FD CB 7F FE         SET  7,(IY+127)         ; 9CF6 FD CB 7F FE
10745   9CFA FD CB 80 FF         set  7,(iy+-128),a      ; 9CFA FD CB 80 FF
10746   9CFE FD CB 80 FF         SET  7,(IY+-128),A      ; 9CFE FD CB 80 FF
10747   9D02 FD CB FF FF         set  7,(iy+-1),a        ; 9D02 FD CB FF FF
10748   9D06 FD CB FF FF         SET  7,(IY+-1),A        ; 9D06 FD CB FF FF
10749   9D0A FD CB 00 FF         set  7,(iy+0),a         ; 9D0A FD CB 00 FF
10750   9D0E FD CB 00 FF         SET  7,(IY+0),A         ; 9D0E FD CB 00 FF
10751   9D12 FD CB 7F FF         set  7,(iy+127),a       ; 9D12 FD CB 7F FF
10752   9D16 FD CB 7F FF         SET  7,(IY+127),A       ; 9D16 FD CB 7F FF
10753   9D1A FD CB 80 F8         set  7,(iy+-128),b      ; 9D1A FD CB 80 F8
10754   9D1E FD CB 80 F8         SET  7,(IY+-128),B      ; 9D1E FD CB 80 F8
10755   9D22 FD CB FF F8         set  7,(iy+-1),b        ; 9D22 FD CB FF F8
10756   9D26 FD CB FF F8         SET  7,(IY+-1),B        ; 9D26 FD CB FF F8
10757   9D2A FD CB 00 F8         set  7,(iy+0),b         ; 9D2A FD CB 00 F8
10758   9D2E FD CB 00 F8         SET  7,(IY+0),B         ; 9D2E FD CB 00 F8
10759   9D32 FD CB 7F F8         set  7,(iy+127),b       ; 9D32 FD CB 7F F8
10760   9D36 FD CB 7F F8         SET  7,(IY+127),B       ; 9D36 FD CB 7F F8
10761   9D3A FD CB 80 F9         set  7,(iy+-128),c      ; 9D3A FD CB 80 F9
10762   9D3E FD CB 80 F9         SET  7,(IY+-128),C      ; 9D3E FD CB 80 F9
10763   9D42 FD CB FF F9         set  7,(iy+-1),c        ; 9D42 FD CB FF F9
10764   9D46 FD CB FF F9         SET  7,(IY+-1),C        ; 9D46 FD CB FF F9
10765   9D4A FD CB 00 F9         set  7,(iy+0),c         ; 9D4A FD CB 00 F9
10766   9D4E FD CB 00 F9         SET  7,(IY+0),C         ; 9D4E FD CB 00 F9
10767   9D52 FD CB 7F F9         set  7,(iy+127),c       ; 9D52 FD CB 7F F9
10768   9D56 FD CB 7F F9         SET  7,(IY+127),C       ; 9D56 FD CB 7F F9
10769   9D5A FD CB 80 FA         set  7,(iy+-128),d      ; 9D5A FD CB 80 FA
10770   9D5E FD CB 80 FA         SET  7,(IY+-128),D      ; 9D5E FD CB 80 FA
10771   9D62 FD CB FF FA         set  7,(iy+-1),d        ; 9D62 FD CB FF FA
10772   9D66 FD CB FF FA         SET  7,(IY+-1),D        ; 9D66 FD CB FF FA
10773   9D6A FD CB 00 FA         set  7,(iy+0),d         ; 9D6A FD CB 00 FA
10774   9D6E FD CB 00 FA         SET  7,(IY+0),D         ; 9D6E FD CB 00 FA
10775   9D72 FD CB 7F FA         set  7,(iy+127),d       ; 9D72 FD CB 7F FA
10776   9D76 FD CB 7F FA         SET  7,(IY+127),D       ; 9D76 FD CB 7F FA
10777   9D7A FD CB 80 FB         set  7,(iy+-128),e      ; 9D7A FD CB 80 FB
10778   9D7E FD CB 80 FB         SET  7,(IY+-128),E      ; 9D7E FD CB 80 FB
10779   9D82 FD CB FF FB         set  7,(iy+-1),e        ; 9D82 FD CB FF FB
10780   9D86 FD CB FF FB         SET  7,(IY+-1),E        ; 9D86 FD CB FF FB
10781   9D8A FD CB 00 FB         set  7,(iy+0),e         ; 9D8A FD CB 00 FB
10782   9D8E FD CB 00 FB         SET  7,(IY+0),E         ; 9D8E FD CB 00 FB
10783   9D92 FD CB 7F FB         set  7,(iy+127),e       ; 9D92 FD CB 7F FB
10784   9D96 FD CB 7F FB         SET  7,(IY+127),E       ; 9D96 FD CB 7F FB
10785   9D9A FD CB 80 FC         set  7,(iy+-128),h      ; 9D9A FD CB 80 FC
10786   9D9E FD CB 80 FC         SET  7,(IY+-128),H      ; 9D9E FD CB 80 FC
10787   9DA2 FD CB FF FC         set  7,(iy+-1),h        ; 9DA2 FD CB FF FC
10788   9DA6 FD CB FF FC         SET  7,(IY+-1),H        ; 9DA6 FD CB FF FC
10789   9DAA FD CB 00 FC         set  7,(iy+0),h         ; 9DAA FD CB 00 FC
10790   9DAE FD CB 00 FC         SET  7,(IY+0),H         ; 9DAE FD CB 00 FC
10791   9DB2 FD CB 7F FC         set  7,(iy+127),h       ; 9DB2 FD CB 7F FC
10792   9DB6 FD CB 7F FC         SET  7,(IY+127),H       ; 9DB6 FD CB 7F FC
10793   9DBA FD CB 80 FD         set  7,(iy+-128),l      ; 9DBA FD CB 80 FD
10794   9DBE FD CB 80 FD         SET  7,(IY+-128),L      ; 9DBE FD CB 80 FD
10795   9DC2 FD CB FF FD         set  7,(iy+-1),l        ; 9DC2 FD CB FF FD
10796   9DC6 FD CB FF FD         SET  7,(IY+-1),L        ; 9DC6 FD CB FF FD
10797   9DCA FD CB 00 FD         set  7,(iy+0),l         ; 9DCA FD CB 00 FD
10798   9DCE FD CB 00 FD         SET  7,(IY+0),L         ; 9DCE FD CB 00 FD
10799   9DD2 FD CB 7F FD         set  7,(iy+127),l       ; 9DD2 FD CB 7F FD
10800   9DD6 FD CB 7F FD         SET  7,(IY+127),L       ; 9DD6 FD CB 7F FD
10801   9DDA CB FE               set  7,[hl]             ; 9DDA CB FE
10802   9DDC CB FE               SET  7,[HL]             ; 9DDC CB FE
10803   9DDE DD CB 80 FE         set  7,[ix+-128]        ; 9DDE DD CB 80 FE
10804   9DE2 DD CB 80 FE         SET  7,[IX+-128]        ; 9DE2 DD CB 80 FE
10805   9DE6 DD CB FF FE         set  7,[ix+-1]          ; 9DE6 DD CB FF FE
10806   9DEA DD CB FF FE         SET  7,[IX+-1]          ; 9DEA DD CB FF FE
10807   9DEE DD CB 00 FE         set  7,[ix+0]           ; 9DEE DD CB 00 FE
10808   9DF2 DD CB 00 FE         SET  7,[IX+0]           ; 9DF2 DD CB 00 FE
10809   9DF6 DD CB 7F FE         set  7,[ix+127]         ; 9DF6 DD CB 7F FE
10810   9DFA DD CB 7F FE         SET  7,[IX+127]         ; 9DFA DD CB 7F FE
10811   9DFE DD CB 80 FF         set  7,[ix+-128],a      ; 9DFE DD CB 80 FF
10812   9E02 DD CB 80 FF         SET  7,[IX+-128],A      ; 9E02 DD CB 80 FF
10813   9E06 DD CB FF FF         set  7,[ix+-1],a        ; 9E06 DD CB FF FF
10814   9E0A DD CB FF FF         SET  7,[IX+-1],A        ; 9E0A DD CB FF FF
10815   9E0E DD CB 00 FF         set  7,[ix+0],a         ; 9E0E DD CB 00 FF
10816   9E12 DD CB 00 FF         SET  7,[IX+0],A         ; 9E12 DD CB 00 FF
10817   9E16 DD CB 7F FF         set  7,[ix+127],a       ; 9E16 DD CB 7F FF
10818   9E1A DD CB 7F FF         SET  7,[IX+127],A       ; 9E1A DD CB 7F FF
10819   9E1E DD CB 80 F8         set  7,[ix+-128],b      ; 9E1E DD CB 80 F8
10820   9E22 DD CB 80 F8         SET  7,[IX+-128],B      ; 9E22 DD CB 80 F8
10821   9E26 DD CB FF F8         set  7,[ix+-1],b        ; 9E26 DD CB FF F8
10822   9E2A DD CB FF F8         SET  7,[IX+-1],B        ; 9E2A DD CB FF F8
10823   9E2E DD CB 00 F8         set  7,[ix+0],b         ; 9E2E DD CB 00 F8
10824   9E32 DD CB 00 F8         SET  7,[IX+0],B         ; 9E32 DD CB 00 F8
10825   9E36 DD CB 7F F8         set  7,[ix+127],b       ; 9E36 DD CB 7F F8
10826   9E3A DD CB 7F F8         SET  7,[IX+127],B       ; 9E3A DD CB 7F F8
10827   9E3E DD CB 80 F9         set  7,[ix+-128],c      ; 9E3E DD CB 80 F9
10828   9E42 DD CB 80 F9         SET  7,[IX+-128],C      ; 9E42 DD CB 80 F9
10829   9E46 DD CB FF F9         set  7,[ix+-1],c        ; 9E46 DD CB FF F9
10830   9E4A DD CB FF F9         SET  7,[IX+-1],C        ; 9E4A DD CB FF F9
10831   9E4E DD CB 00 F9         set  7,[ix+0],c         ; 9E4E DD CB 00 F9
10832   9E52 DD CB 00 F9         SET  7,[IX+0],C         ; 9E52 DD CB 00 F9
10833   9E56 DD CB 7F F9         set  7,[ix+127],c       ; 9E56 DD CB 7F F9
10834   9E5A DD CB 7F F9         SET  7,[IX+127],C       ; 9E5A DD CB 7F F9
10835   9E5E DD CB 80 FA         set  7,[ix+-128],d      ; 9E5E DD CB 80 FA
10836   9E62 DD CB 80 FA         SET  7,[IX+-128],D      ; 9E62 DD CB 80 FA
10837   9E66 DD CB FF FA         set  7,[ix+-1],d        ; 9E66 DD CB FF FA
10838   9E6A DD CB FF FA         SET  7,[IX+-1],D        ; 9E6A DD CB FF FA
10839   9E6E DD CB 00 FA         set  7,[ix+0],d         ; 9E6E DD CB 00 FA
10840   9E72 DD CB 00 FA         SET  7,[IX+0],D         ; 9E72 DD CB 00 FA
10841   9E76 DD CB 7F FA         set  7,[ix+127],d       ; 9E76 DD CB 7F FA
10842   9E7A DD CB 7F FA         SET  7,[IX+127],D       ; 9E7A DD CB 7F FA
10843   9E7E DD CB 80 FB         set  7,[ix+-128],e      ; 9E7E DD CB 80 FB
10844   9E82 DD CB 80 FB         SET  7,[IX+-128],E      ; 9E82 DD CB 80 FB
10845   9E86 DD CB FF FB         set  7,[ix+-1],e        ; 9E86 DD CB FF FB
10846   9E8A DD CB FF FB         SET  7,[IX+-1],E        ; 9E8A DD CB FF FB
10847   9E8E DD CB 00 FB         set  7,[ix+0],e         ; 9E8E DD CB 00 FB
10848   9E92 DD CB 00 FB         SET  7,[IX+0],E         ; 9E92 DD CB 00 FB
10849   9E96 DD CB 7F FB         set  7,[ix+127],e       ; 9E96 DD CB 7F FB
10850   9E9A DD CB 7F FB         SET  7,[IX+127],E       ; 9E9A DD CB 7F FB
10851   9E9E DD CB 80 FC         set  7,[ix+-128],h      ; 9E9E DD CB 80 FC
10852   9EA2 DD CB 80 FC         SET  7,[IX+-128],H      ; 9EA2 DD CB 80 FC
10853   9EA6 DD CB FF FC         set  7,[ix+-1],h        ; 9EA6 DD CB FF FC
10854   9EAA DD CB FF FC         SET  7,[IX+-1],H        ; 9EAA DD CB FF FC
10855   9EAE DD CB 00 FC         set  7,[ix+0],h         ; 9EAE DD CB 00 FC
10856   9EB2 DD CB 00 FC         SET  7,[IX+0],H         ; 9EB2 DD CB 00 FC
10857   9EB6 DD CB 7F FC         set  7,[ix+127],h       ; 9EB6 DD CB 7F FC
10858   9EBA DD CB 7F FC         SET  7,[IX+127],H       ; 9EBA DD CB 7F FC
10859   9EBE DD CB 80 FD         set  7,[ix+-128],l      ; 9EBE DD CB 80 FD
10860   9EC2 DD CB 80 FD         SET  7,[IX+-128],L      ; 9EC2 DD CB 80 FD
10861   9EC6 DD CB FF FD         set  7,[ix+-1],l        ; 9EC6 DD CB FF FD
10862   9ECA DD CB FF FD         SET  7,[IX+-1],L        ; 9ECA DD CB FF FD
10863   9ECE DD CB 00 FD         set  7,[ix+0],l         ; 9ECE DD CB 00 FD
10864   9ED2 DD CB 00 FD         SET  7,[IX+0],L         ; 9ED2 DD CB 00 FD
10865   9ED6 DD CB 7F FD         set  7,[ix+127],l       ; 9ED6 DD CB 7F FD
10866   9EDA DD CB 7F FD         SET  7,[IX+127],L       ; 9EDA DD CB 7F FD
10867   9EDE FD CB 80 FE         set  7,[iy+-128]        ; 9EDE FD CB 80 FE
10868   9EE2 FD CB 80 FE         SET  7,[IY+-128]        ; 9EE2 FD CB 80 FE
10869   9EE6 FD CB FF FE         set  7,[iy+-1]          ; 9EE6 FD CB FF FE
10870   9EEA FD CB FF FE         SET  7,[IY+-1]          ; 9EEA FD CB FF FE
10871   9EEE FD CB 00 FE         set  7,[iy+0]           ; 9EEE FD CB 00 FE
10872   9EF2 FD CB 00 FE         SET  7,[IY+0]           ; 9EF2 FD CB 00 FE
10873   9EF6 FD CB 7F FE         set  7,[iy+127]         ; 9EF6 FD CB 7F FE
10874   9EFA FD CB 7F FE         SET  7,[IY+127]         ; 9EFA FD CB 7F FE
10875   9EFE FD CB 80 FF         set  7,[iy+-128],a      ; 9EFE FD CB 80 FF
10876   9F02 FD CB 80 FF         SET  7,[IY+-128],A      ; 9F02 FD CB 80 FF
10877   9F06 FD CB FF FF         set  7,[iy+-1],a        ; 9F06 FD CB FF FF
10878   9F0A FD CB FF FF         SET  7,[IY+-1],A        ; 9F0A FD CB FF FF
10879   9F0E FD CB 00 FF         set  7,[iy+0],a         ; 9F0E FD CB 00 FF
10880   9F12 FD CB 00 FF         SET  7,[IY+0],A         ; 9F12 FD CB 00 FF
10881   9F16 FD CB 7F FF         set  7,[iy+127],a       ; 9F16 FD CB 7F FF
10882   9F1A FD CB 7F FF         SET  7,[IY+127],A       ; 9F1A FD CB 7F FF
10883   9F1E FD CB 80 F8         set  7,[iy+-128],b      ; 9F1E FD CB 80 F8
10884   9F22 FD CB 80 F8         SET  7,[IY+-128],B      ; 9F22 FD CB 80 F8
10885   9F26 FD CB FF F8         set  7,[iy+-1],b        ; 9F26 FD CB FF F8
10886   9F2A FD CB FF F8         SET  7,[IY+-1],B        ; 9F2A FD CB FF F8
10887   9F2E FD CB 00 F8         set  7,[iy+0],b         ; 9F2E FD CB 00 F8
10888   9F32 FD CB 00 F8         SET  7,[IY+0],B         ; 9F32 FD CB 00 F8
10889   9F36 FD CB 7F F8         set  7,[iy+127],b       ; 9F36 FD CB 7F F8
10890   9F3A FD CB 7F F8         SET  7,[IY+127],B       ; 9F3A FD CB 7F F8
10891   9F3E FD CB 80 F9         set  7,[iy+-128],c      ; 9F3E FD CB 80 F9
10892   9F42 FD CB 80 F9         SET  7,[IY+-128],C      ; 9F42 FD CB 80 F9
10893   9F46 FD CB FF F9         set  7,[iy+-1],c        ; 9F46 FD CB FF F9
10894   9F4A FD CB FF F9         SET  7,[IY+-1],C        ; 9F4A FD CB FF F9
10895   9F4E FD CB 00 F9         set  7,[iy+0],c         ; 9F4E FD CB 00 F9
10896   9F52 FD CB 00 F9         SET  7,[IY+0],C         ; 9F52 FD CB 00 F9
10897   9F56 FD CB 7F F9         set  7,[iy+127],c       ; 9F56 FD CB 7F F9
10898   9F5A FD CB 7F F9         SET  7,[IY+127],C       ; 9F5A FD CB 7F F9
10899   9F5E FD CB 80 FA         set  7,[iy+-128],d      ; 9F5E FD CB 80 FA
10900   9F62 FD CB 80 FA         SET  7,[IY+-128],D      ; 9F62 FD CB 80 FA
10901   9F66 FD CB FF FA         set  7,[iy+-1],d        ; 9F66 FD CB FF FA
10902   9F6A FD CB FF FA         SET  7,[IY+-1],D        ; 9F6A FD CB FF FA
10903   9F6E FD CB 00 FA         set  7,[iy+0],d         ; 9F6E FD CB 00 FA
10904   9F72 FD CB 00 FA         SET  7,[IY+0],D         ; 9F72 FD CB 00 FA
10905   9F76 FD CB 7F FA         set  7,[iy+127],d       ; 9F76 FD CB 7F FA
10906   9F7A FD CB 7F FA         SET  7,[IY+127],D       ; 9F7A FD CB 7F FA
10907   9F7E FD CB 80 FB         set  7,[iy+-128],e      ; 9F7E FD CB 80 FB
10908   9F82 FD CB 80 FB         SET  7,[IY+-128],E      ; 9F82 FD CB 80 FB
10909   9F86 FD CB FF FB         set  7,[iy+-1],e        ; 9F86 FD CB FF FB
10910   9F8A FD CB FF FB         SET  7,[IY+-1],E        ; 9F8A FD CB FF FB
10911   9F8E FD CB 00 FB         set  7,[iy+0],e         ; 9F8E FD CB 00 FB
10912   9F92 FD CB 00 FB         SET  7,[IY+0],E         ; 9F92 FD CB 00 FB
10913   9F96 FD CB 7F FB         set  7,[iy+127],e       ; 9F96 FD CB 7F FB
10914   9F9A FD CB 7F FB         SET  7,[IY+127],E       ; 9F9A FD CB 7F FB
10915   9F9E FD CB 80 FC         set  7,[iy+-128],h      ; 9F9E FD CB 80 FC
10916   9FA2 FD CB 80 FC         SET  7,[IY+-128],H      ; 9FA2 FD CB 80 FC
10917   9FA6 FD CB FF FC         set  7,[iy+-1],h        ; 9FA6 FD CB FF FC
10918   9FAA FD CB FF FC         SET  7,[IY+-1],H        ; 9FAA FD CB FF FC
10919   9FAE FD CB 00 FC         set  7,[iy+0],h         ; 9FAE FD CB 00 FC
10920   9FB2 FD CB 00 FC         SET  7,[IY+0],H         ; 9FB2 FD CB 00 FC
10921   9FB6 FD CB 7F FC         set  7,[iy+127],h       ; 9FB6 FD CB 7F FC
10922   9FBA FD CB 7F FC         SET  7,[IY+127],H       ; 9FBA FD CB 7F FC
10923   9FBE FD CB 80 FD         set  7,[iy+-128],l      ; 9FBE FD CB 80 FD
10924   9FC2 FD CB 80 FD         SET  7,[IY+-128],L      ; 9FC2 FD CB 80 FD
10925   9FC6 FD CB FF FD         set  7,[iy+-1],l        ; 9FC6 FD CB FF FD
10926   9FCA FD CB FF FD         SET  7,[IY+-1],L        ; 9FCA FD CB FF FD
10927   9FCE FD CB 00 FD         set  7,[iy+0],l         ; 9FCE FD CB 00 FD
10928   9FD2 FD CB 00 FD         SET  7,[IY+0],L         ; 9FD2 FD CB 00 FD
10929   9FD6 FD CB 7F FD         set  7,[iy+127],l       ; 9FD6 FD CB 7F FD
10930   9FDA FD CB 7F FD         SET  7,[IY+127],L       ; 9FDA FD CB 7F FD
10931   9FDE CB FF               set  7,a                ; 9FDE CB FF
10932   9FE0 CB FF               SET  7,A                ; 9FE0 CB FF
10933   9FE2 CB F8               set  7,b                ; 9FE2 CB F8
10934   9FE4 CB F8               SET  7,B                ; 9FE4 CB F8
10935   9FE6 CB F9               set  7,c                ; 9FE6 CB F9
10936   9FE8 CB F9               SET  7,C                ; 9FE8 CB F9
10937   9FEA CB FA               set  7,d                ; 9FEA CB FA
10938   9FEC CB FA               SET  7,D                ; 9FEC CB FA
10939   9FEE CB FB               set  7,e                ; 9FEE CB FB
10940   9FF0 CB FB               SET  7,E                ; 9FF0 CB FB
10941   9FF2 CB FC               set  7,h                ; 9FF2 CB FC
10942   9FF4 CB FC               SET  7,H                ; 9FF4 CB FC
10943   9FF6 CB FD               set  7,l                ; 9FF6 CB FD
10944   9FF8 CB FD               SET  7,L                ; 9FF8 CB FD
10945   9FFA CB 26               sla  (hl)               ; 9FFA CB 26
10946   9FFC CB 26               SLA  (HL)               ; 9FFC CB 26
10947   9FFE DD CB 80 26         sla  (ix+-128)          ; 9FFE DD CB 80 26
10948   A002 DD CB 80 26         SLA  (IX+-128)          ; A002 DD CB 80 26
10949   A006 DD CB FF 26         sla  (ix+-1)            ; A006 DD CB FF 26
10950   A00A DD CB FF 26         SLA  (IX+-1)            ; A00A DD CB FF 26
10951   A00E DD CB 00 26         sla  (ix+0)             ; A00E DD CB 00 26
10952   A012 DD CB 00 26         SLA  (IX+0)             ; A012 DD CB 00 26
10953   A016 DD CB 7F 26         sla  (ix+127)           ; A016 DD CB 7F 26
10954   A01A DD CB 7F 26         SLA  (IX+127)           ; A01A DD CB 7F 26
10955   A01E DD CB 80 27         sla  (ix+-128),a        ; A01E DD CB 80 27
10956   A022 DD CB 80 27         SLA  (IX+-128),A        ; A022 DD CB 80 27
10957   A026 DD CB FF 27         sla  (ix+-1),a          ; A026 DD CB FF 27
10958   A02A DD CB FF 27         SLA  (IX+-1),A          ; A02A DD CB FF 27
10959   A02E DD CB 00 27         sla  (ix+0),a           ; A02E DD CB 00 27
10960   A032 DD CB 00 27         SLA  (IX+0),A           ; A032 DD CB 00 27
10961   A036 DD CB 7F 27         sla  (ix+127),a         ; A036 DD CB 7F 27
10962   A03A DD CB 7F 27         SLA  (IX+127),A         ; A03A DD CB 7F 27
10963   A03E DD CB 80 20         sla  (ix+-128),b        ; A03E DD CB 80 20
10964   A042 DD CB 80 20         SLA  (IX+-128),B        ; A042 DD CB 80 20
10965   A046 DD CB FF 20         sla  (ix+-1),b          ; A046 DD CB FF 20
10966   A04A DD CB FF 20         SLA  (IX+-1),B          ; A04A DD CB FF 20
10967   A04E DD CB 00 20         sla  (ix+0),b           ; A04E DD CB 00 20
10968   A052 DD CB 00 20         SLA  (IX+0),B           ; A052 DD CB 00 20
10969   A056 DD CB 7F 20         sla  (ix+127),b         ; A056 DD CB 7F 20
10970   A05A DD CB 7F 20         SLA  (IX+127),B         ; A05A DD CB 7F 20
10971   A05E DD CB 80 21         sla  (ix+-128),c        ; A05E DD CB 80 21
10972   A062 DD CB 80 21         SLA  (IX+-128),C        ; A062 DD CB 80 21
10973   A066 DD CB FF 21         sla  (ix+-1),c          ; A066 DD CB FF 21
10974   A06A DD CB FF 21         SLA  (IX+-1),C          ; A06A DD CB FF 21
10975   A06E DD CB 00 21         sla  (ix+0),c           ; A06E DD CB 00 21
10976   A072 DD CB 00 21         SLA  (IX+0),C           ; A072 DD CB 00 21
10977   A076 DD CB 7F 21         sla  (ix+127),c         ; A076 DD CB 7F 21
10978   A07A DD CB 7F 21         SLA  (IX+127),C         ; A07A DD CB 7F 21
10979   A07E DD CB 80 22         sla  (ix+-128),d        ; A07E DD CB 80 22
10980   A082 DD CB 80 22         SLA  (IX+-128),D        ; A082 DD CB 80 22
10981   A086 DD CB FF 22         sla  (ix+-1),d          ; A086 DD CB FF 22
10982   A08A DD CB FF 22         SLA  (IX+-1),D          ; A08A DD CB FF 22
10983   A08E DD CB 00 22         sla  (ix+0),d           ; A08E DD CB 00 22
10984   A092 DD CB 00 22         SLA  (IX+0),D           ; A092 DD CB 00 22
10985   A096 DD CB 7F 22         sla  (ix+127),d         ; A096 DD CB 7F 22
10986   A09A DD CB 7F 22         SLA  (IX+127),D         ; A09A DD CB 7F 22
10987   A09E DD CB 80 23         sla  (ix+-128),e        ; A09E DD CB 80 23
10988   A0A2 DD CB 80 23         SLA  (IX+-128),E        ; A0A2 DD CB 80 23
10989   A0A6 DD CB FF 23         sla  (ix+-1),e          ; A0A6 DD CB FF 23
10990   A0AA DD CB FF 23         SLA  (IX+-1),E          ; A0AA DD CB FF 23
10991   A0AE DD CB 00 23         sla  (ix+0),e           ; A0AE DD CB 00 23
10992   A0B2 DD CB 00 23         SLA  (IX+0),E           ; A0B2 DD CB 00 23
10993   A0B6 DD CB 7F 23         sla  (ix+127),e         ; A0B6 DD CB 7F 23
10994   A0BA DD CB 7F 23         SLA  (IX+127),E         ; A0BA DD CB 7F 23
10995   A0BE DD CB 80 24         sla  (ix+-128),h        ; A0BE DD CB 80 24
10996   A0C2 DD CB 80 24         SLA  (IX+-128),H        ; A0C2 DD CB 80 24
10997   A0C6 DD CB FF 24         sla  (ix+-1),h          ; A0C6 DD CB FF 24
10998   A0CA DD CB FF 24         SLA  (IX+-1),H          ; A0CA DD CB FF 24
10999   A0CE DD CB 00 24         sla  (ix+0),h           ; A0CE DD CB 00 24
11000   A0D2 DD CB 00 24         SLA  (IX+0),H           ; A0D2 DD CB 00 24
11001   A0D6 DD CB 7F 24         sla  (ix+127),h         ; A0D6 DD CB 7F 24
11002   A0DA DD CB 7F 24         SLA  (IX+127),H         ; A0DA DD CB 7F 24
11003   A0DE DD CB 80 25         sla  (ix+-128),l        ; A0DE DD CB 80 25
11004   A0E2 DD CB 80 25         SLA  (IX+-128),L        ; A0E2 DD CB 80 25
11005   A0E6 DD CB FF 25         sla  (ix+-1),l          ; A0E6 DD CB FF 25
11006   A0EA DD CB FF 25         SLA  (IX+-1),L          ; A0EA DD CB FF 25
11007   A0EE DD CB 00 25         sla  (ix+0),l           ; A0EE DD CB 00 25
11008   A0F2 DD CB 00 25         SLA  (IX+0),L           ; A0F2 DD CB 00 25
11009   A0F6 DD CB 7F 25         sla  (ix+127),l         ; A0F6 DD CB 7F 25
11010   A0FA DD CB 7F 25         SLA  (IX+127),L         ; A0FA DD CB 7F 25
11011   A0FE FD CB 80 26         sla  (iy+-128)          ; A0FE FD CB 80 26
11012   A102 FD CB 80 26         SLA  (IY+-128)          ; A102 FD CB 80 26
11013   A106 FD CB FF 26         sla  (iy+-1)            ; A106 FD CB FF 26
11014   A10A FD CB FF 26         SLA  (IY+-1)            ; A10A FD CB FF 26
11015   A10E FD CB 00 26         sla  (iy+0)             ; A10E FD CB 00 26
11016   A112 FD CB 00 26         SLA  (IY+0)             ; A112 FD CB 00 26
11017   A116 FD CB 7F 26         sla  (iy+127)           ; A116 FD CB 7F 26
11018   A11A FD CB 7F 26         SLA  (IY+127)           ; A11A FD CB 7F 26
11019   A11E FD CB 80 27         sla  (iy+-128),a        ; A11E FD CB 80 27
11020   A122 FD CB 80 27         SLA  (IY+-128),A        ; A122 FD CB 80 27
11021   A126 FD CB FF 27         sla  (iy+-1),a          ; A126 FD CB FF 27
11022   A12A FD CB FF 27         SLA  (IY+-1),A          ; A12A FD CB FF 27
11023   A12E FD CB 00 27         sla  (iy+0),a           ; A12E FD CB 00 27
11024   A132 FD CB 00 27         SLA  (IY+0),A           ; A132 FD CB 00 27
11025   A136 FD CB 7F 27         sla  (iy+127),a         ; A136 FD CB 7F 27
11026   A13A FD CB 7F 27         SLA  (IY+127),A         ; A13A FD CB 7F 27
11027   A13E FD CB 80 20         sla  (iy+-128),b        ; A13E FD CB 80 20
11028   A142 FD CB 80 20         SLA  (IY+-128),B        ; A142 FD CB 80 20
11029   A146 FD CB FF 20         sla  (iy+-1),b          ; A146 FD CB FF 20
11030   A14A FD CB FF 20         SLA  (IY+-1),B          ; A14A FD CB FF 20
11031   A14E FD CB 00 20         sla  (iy+0),b           ; A14E FD CB 00 20
11032   A152 FD CB 00 20         SLA  (IY+0),B           ; A152 FD CB 00 20
11033   A156 FD CB 7F 20         sla  (iy+127),b         ; A156 FD CB 7F 20
11034   A15A FD CB 7F 20         SLA  (IY+127),B         ; A15A FD CB 7F 20
11035   A15E FD CB 80 21         sla  (iy+-128),c        ; A15E FD CB 80 21
11036   A162 FD CB 80 21         SLA  (IY+-128),C        ; A162 FD CB 80 21
11037   A166 FD CB FF 21         sla  (iy+-1),c          ; A166 FD CB FF 21
11038   A16A FD CB FF 21         SLA  (IY+-1),C          ; A16A FD CB FF 21
11039   A16E FD CB 00 21         sla  (iy+0),c           ; A16E FD CB 00 21
11040   A172 FD CB 00 21         SLA  (IY+0),C           ; A172 FD CB 00 21
11041   A176 FD CB 7F 21         sla  (iy+127),c         ; A176 FD CB 7F 21
11042   A17A FD CB 7F 21         SLA  (IY+127),C         ; A17A FD CB 7F 21
11043   A17E FD CB 80 22         sla  (iy+-128),d        ; A17E FD CB 80 22
11044   A182 FD CB 80 22         SLA  (IY+-128),D        ; A182 FD CB 80 22
11045   A186 FD CB FF 22         sla  (iy+-1),d          ; A186 FD CB FF 22
11046   A18A FD CB FF 22         SLA  (IY+-1),D          ; A18A FD CB FF 22
11047   A18E FD CB 00 22         sla  (iy+0),d           ; A18E FD CB 00 22
11048   A192 FD CB 00 22         SLA  (IY+0),D           ; A192 FD CB 00 22
11049   A196 FD CB 7F 22         sla  (iy+127),d         ; A196 FD CB 7F 22
11050   A19A FD CB 7F 22         SLA  (IY+127),D         ; A19A FD CB 7F 22
11051   A19E FD CB 80 23         sla  (iy+-128),e        ; A19E FD CB 80 23
11052   A1A2 FD CB 80 23         SLA  (IY+-128),E        ; A1A2 FD CB 80 23
11053   A1A6 FD CB FF 23         sla  (iy+-1),e          ; A1A6 FD CB FF 23
11054   A1AA FD CB FF 23         SLA  (IY+-1),E          ; A1AA FD CB FF 23
11055   A1AE FD CB 00 23         sla  (iy+0),e           ; A1AE FD CB 00 23
11056   A1B2 FD CB 00 23         SLA  (IY+0),E           ; A1B2 FD CB 00 23
11057   A1B6 FD CB 7F 23         sla  (iy+127),e         ; A1B6 FD CB 7F 23
11058   A1BA FD CB 7F 23         SLA  (IY+127),E         ; A1BA FD CB 7F 23
11059   A1BE FD CB 80 24         sla  (iy+-128),h        ; A1BE FD CB 80 24
11060   A1C2 FD CB 80 24         SLA  (IY+-128),H        ; A1C2 FD CB 80 24
11061   A1C6 FD CB FF 24         sla  (iy+-1),h          ; A1C6 FD CB FF 24
11062   A1CA FD CB FF 24         SLA  (IY+-1),H          ; A1CA FD CB FF 24
11063   A1CE FD CB 00 24         sla  (iy+0),h           ; A1CE FD CB 00 24
11064   A1D2 FD CB 00 24         SLA  (IY+0),H           ; A1D2 FD CB 00 24
11065   A1D6 FD CB 7F 24         sla  (iy+127),h         ; A1D6 FD CB 7F 24
11066   A1DA FD CB 7F 24         SLA  (IY+127),H         ; A1DA FD CB 7F 24
11067   A1DE FD CB 80 25         sla  (iy+-128),l        ; A1DE FD CB 80 25
11068   A1E2 FD CB 80 25         SLA  (IY+-128),L        ; A1E2 FD CB 80 25
11069   A1E6 FD CB FF 25         sla  (iy+-1),l          ; A1E6 FD CB FF 25
11070   A1EA FD CB FF 25         SLA  (IY+-1),L          ; A1EA FD CB FF 25
11071   A1EE FD CB 00 25         sla  (iy+0),l           ; A1EE FD CB 00 25
11072   A1F2 FD CB 00 25         SLA  (IY+0),L           ; A1F2 FD CB 00 25
11073   A1F6 FD CB 7F 25         sla  (iy+127),l         ; A1F6 FD CB 7F 25
11074   A1FA FD CB 7F 25         SLA  (IY+127),L         ; A1FA FD CB 7F 25
11075   A1FE CB 26               sla  [hl]               ; A1FE CB 26
11076   A200 CB 26               SLA  [HL]               ; A200 CB 26
11077   A202 DD CB 80 26         sla  [ix+-128]          ; A202 DD CB 80 26
11078   A206 DD CB 80 26         SLA  [IX+-128]          ; A206 DD CB 80 26
11079   A20A DD CB FF 26         sla  [ix+-1]            ; A20A DD CB FF 26
11080   A20E DD CB FF 26         SLA  [IX+-1]            ; A20E DD CB FF 26
11081   A212 DD CB 00 26         sla  [ix+0]             ; A212 DD CB 00 26
11082   A216 DD CB 00 26         SLA  [IX+0]             ; A216 DD CB 00 26
11083   A21A DD CB 7F 26         sla  [ix+127]           ; A21A DD CB 7F 26
11084   A21E DD CB 7F 26         SLA  [IX+127]           ; A21E DD CB 7F 26
11085   A222 DD CB 80 27         sla  [ix+-128],a        ; A222 DD CB 80 27
11086   A226 DD CB 80 27         SLA  [IX+-128],A        ; A226 DD CB 80 27
11087   A22A DD CB FF 27         sla  [ix+-1],a          ; A22A DD CB FF 27
11088   A22E DD CB FF 27         SLA  [IX+-1],A          ; A22E DD CB FF 27
11089   A232 DD CB 00 27         sla  [ix+0],a           ; A232 DD CB 00 27
11090   A236 DD CB 00 27         SLA  [IX+0],A           ; A236 DD CB 00 27
11091   A23A DD CB 7F 27         sla  [ix+127],a         ; A23A DD CB 7F 27
11092   A23E DD CB 7F 27         SLA  [IX+127],A         ; A23E DD CB 7F 27
11093   A242 DD CB 80 20         sla  [ix+-128],b        ; A242 DD CB 80 20
11094   A246 DD CB 80 20         SLA  [IX+-128],B        ; A246 DD CB 80 20
11095   A24A DD CB FF 20         sla  [ix+-1],b          ; A24A DD CB FF 20
11096   A24E DD CB FF 20         SLA  [IX+-1],B          ; A24E DD CB FF 20
11097   A252 DD CB 00 20         sla  [ix+0],b           ; A252 DD CB 00 20
11098   A256 DD CB 00 20         SLA  [IX+0],B           ; A256 DD CB 00 20
11099   A25A DD CB 7F 20         sla  [ix+127],b         ; A25A DD CB 7F 20
11100   A25E DD CB 7F 20         SLA  [IX+127],B         ; A25E DD CB 7F 20
11101   A262 DD CB 80 21         sla  [ix+-128],c        ; A262 DD CB 80 21
11102   A266 DD CB 80 21         SLA  [IX+-128],C        ; A266 DD CB 80 21
11103   A26A DD CB FF 21         sla  [ix+-1],c          ; A26A DD CB FF 21
11104   A26E DD CB FF 21         SLA  [IX+-1],C          ; A26E DD CB FF 21
11105   A272 DD CB 00 21         sla  [ix+0],c           ; A272 DD CB 00 21
11106   A276 DD CB 00 21         SLA  [IX+0],C           ; A276 DD CB 00 21
11107   A27A DD CB 7F 21         sla  [ix+127],c         ; A27A DD CB 7F 21
11108   A27E DD CB 7F 21         SLA  [IX+127],C         ; A27E DD CB 7F 21
11109   A282 DD CB 80 22         sla  [ix+-128],d        ; A282 DD CB 80 22
11110   A286 DD CB 80 22         SLA  [IX+-128],D        ; A286 DD CB 80 22
11111   A28A DD CB FF 22         sla  [ix+-1],d          ; A28A DD CB FF 22
11112   A28E DD CB FF 22         SLA  [IX+-1],D          ; A28E DD CB FF 22
11113   A292 DD CB 00 22         sla  [ix+0],d           ; A292 DD CB 00 22
11114   A296 DD CB 00 22         SLA  [IX+0],D           ; A296 DD CB 00 22
11115   A29A DD CB 7F 22         sla  [ix+127],d         ; A29A DD CB 7F 22
11116   A29E DD CB 7F 22         SLA  [IX+127],D         ; A29E DD CB 7F 22
11117   A2A2 DD CB 80 23         sla  [ix+-128],e        ; A2A2 DD CB 80 23
11118   A2A6 DD CB 80 23         SLA  [IX+-128],E        ; A2A6 DD CB 80 23
11119   A2AA DD CB FF 23         sla  [ix+-1],e          ; A2AA DD CB FF 23
11120   A2AE DD CB FF 23         SLA  [IX+-1],E          ; A2AE DD CB FF 23
11121   A2B2 DD CB 00 23         sla  [ix+0],e           ; A2B2 DD CB 00 23
11122   A2B6 DD CB 00 23         SLA  [IX+0],E           ; A2B6 DD CB 00 23
11123   A2BA DD CB 7F 23         sla  [ix+127],e         ; A2BA DD CB 7F 23
11124   A2BE DD CB 7F 23         SLA  [IX+127],E         ; A2BE DD CB 7F 23
11125   A2C2 DD CB 80 24         sla  [ix+-128],h        ; A2C2 DD CB 80 24
11126   A2C6 DD CB 80 24         SLA  [IX+-128],H        ; A2C6 DD CB 80 24
11127   A2CA DD CB FF 24         sla  [ix+-1],h          ; A2CA DD CB FF 24
11128   A2CE DD CB FF 24         SLA  [IX+-1],H          ; A2CE DD CB FF 24
11129   A2D2 DD CB 00 24         sla  [ix+0],h           ; A2D2 DD CB 00 24
11130   A2D6 DD CB 00 24         SLA  [IX+0],H           ; A2D6 DD CB 00 24
11131   A2DA DD CB 7F 24         sla  [ix+127],h         ; A2DA DD CB 7F 24
11132   A2DE DD CB 7F 24         SLA  [IX+127],H         ; A2DE DD CB 7F 24
11133   A2E2 DD CB 80 25         sla  [ix+-128],l        ; A2E2 DD CB 80 25
11134   A2E6 DD CB 80 25         SLA  [IX+-128],L        ; A2E6 DD CB 80 25
11135   A2EA DD CB FF 25         sla  [ix+-1],l          ; A2EA DD CB FF 25
11136   A2EE DD CB FF 25         SLA  [IX+-1],L          ; A2EE DD CB FF 25
11137   A2F2 DD CB 00 25         sla  [ix+0],l           ; A2F2 DD CB 00 25
11138   A2F6 DD CB 00 25         SLA  [IX+0],L           ; A2F6 DD CB 00 25
11139   A2FA DD CB 7F 25         sla  [ix+127],l         ; A2FA DD CB 7F 25
11140   A2FE DD CB 7F 25         SLA  [IX+127],L         ; A2FE DD CB 7F 25
11141   A302 FD CB 80 26         sla  [iy+-128]          ; A302 FD CB 80 26
11142   A306 FD CB 80 26         SLA  [IY+-128]          ; A306 FD CB 80 26
11143   A30A FD CB FF 26         sla  [iy+-1]            ; A30A FD CB FF 26
11144   A30E FD CB FF 26         SLA  [IY+-1]            ; A30E FD CB FF 26
11145   A312 FD CB 00 26         sla  [iy+0]             ; A312 FD CB 00 26
11146   A316 FD CB 00 26         SLA  [IY+0]             ; A316 FD CB 00 26
11147   A31A FD CB 7F 26         sla  [iy+127]           ; A31A FD CB 7F 26
11148   A31E FD CB 7F 26         SLA  [IY+127]           ; A31E FD CB 7F 26
11149   A322 FD CB 80 27         sla  [iy+-128],a        ; A322 FD CB 80 27
11150   A326 FD CB 80 27         SLA  [IY+-128],A        ; A326 FD CB 80 27
11151   A32A FD CB FF 27         sla  [iy+-1],a          ; A32A FD CB FF 27
11152   A32E FD CB FF 27         SLA  [IY+-1],A          ; A32E FD CB FF 27
11153   A332 FD CB 00 27         sla  [iy+0],a           ; A332 FD CB 00 27
11154   A336 FD CB 00 27         SLA  [IY+0],A           ; A336 FD CB 00 27
11155   A33A FD CB 7F 27         sla  [iy+127],a         ; A33A FD CB 7F 27
11156   A33E FD CB 7F 27         SLA  [IY+127],A         ; A33E FD CB 7F 27
11157   A342 FD CB 80 20         sla  [iy+-128],b        ; A342 FD CB 80 20
11158   A346 FD CB 80 20         SLA  [IY+-128],B        ; A346 FD CB 80 20
11159   A34A FD CB FF 20         sla  [iy+-1],b          ; A34A FD CB FF 20
11160   A34E FD CB FF 20         SLA  [IY+-1],B          ; A34E FD CB FF 20
11161   A352 FD CB 00 20         sla  [iy+0],b           ; A352 FD CB 00 20
11162   A356 FD CB 00 20         SLA  [IY+0],B           ; A356 FD CB 00 20
11163   A35A FD CB 7F 20         sla  [iy+127],b         ; A35A FD CB 7F 20
11164   A35E FD CB 7F 20         SLA  [IY+127],B         ; A35E FD CB 7F 20
11165   A362 FD CB 80 21         sla  [iy+-128],c        ; A362 FD CB 80 21
11166   A366 FD CB 80 21         SLA  [IY+-128],C        ; A366 FD CB 80 21
11167   A36A FD CB FF 21         sla  [iy+-1],c          ; A36A FD CB FF 21
11168   A36E FD CB FF 21         SLA  [IY+-1],C          ; A36E FD CB FF 21
11169   A372 FD CB 00 21         sla  [iy+0],c           ; A372 FD CB 00 21
11170   A376 FD CB 00 21         SLA  [IY+0],C           ; A376 FD CB 00 21
11171   A37A FD CB 7F 21         sla  [iy+127],c         ; A37A FD CB 7F 21
11172   A37E FD CB 7F 21         SLA  [IY+127],C         ; A37E FD CB 7F 21
11173   A382 FD CB 80 22         sla  [iy+-128],d        ; A382 FD CB 80 22
11174   A386 FD CB 80 22         SLA  [IY+-128],D        ; A386 FD CB 80 22
11175   A38A FD CB FF 22         sla  [iy+-1],d          ; A38A FD CB FF 22
11176   A38E FD CB FF 22         SLA  [IY+-1],D          ; A38E FD CB FF 22
11177   A392 FD CB 00 22         sla  [iy+0],d           ; A392 FD CB 00 22
11178   A396 FD CB 00 22         SLA  [IY+0],D           ; A396 FD CB 00 22
11179   A39A FD CB 7F 22         sla  [iy+127],d         ; A39A FD CB 7F 22
11180   A39E FD CB 7F 22         SLA  [IY+127],D         ; A39E FD CB 7F 22
11181   A3A2 FD CB 80 23         sla  [iy+-128],e        ; A3A2 FD CB 80 23
11182   A3A6 FD CB 80 23         SLA  [IY+-128],E        ; A3A6 FD CB 80 23
11183   A3AA FD CB FF 23         sla  [iy+-1],e          ; A3AA FD CB FF 23
11184   A3AE FD CB FF 23         SLA  [IY+-1],E          ; A3AE FD CB FF 23
11185   A3B2 FD CB 00 23         sla  [iy+0],e           ; A3B2 FD CB 00 23
11186   A3B6 FD CB 00 23         SLA  [IY+0],E           ; A3B6 FD CB 00 23
11187   A3BA FD CB 7F 23         sla  [iy+127],e         ; A3BA FD CB 7F 23
11188   A3BE FD CB 7F 23         SLA  [IY+127],E         ; A3BE FD CB 7F 23
11189   A3C2 FD CB 80 24         sla  [iy+-128],h        ; A3C2 FD CB 80 24
11190   A3C6 FD CB 80 24         SLA  [IY+-128],H        ; A3C6 FD CB 80 24
11191   A3CA FD CB FF 24         sla  [iy+-1],h          ; A3CA FD CB FF 24
11192   A3CE FD CB FF 24         SLA  [IY+-1],H          ; A3CE FD CB FF 24
11193   A3D2 FD CB 00 24         sla  [iy+0],h           ; A3D2 FD CB 00 24
11194   A3D6 FD CB 00 24         SLA  [IY+0],H           ; A3D6 FD CB 00 24
11195   A3DA FD CB 7F 24         sla  [iy+127],h         ; A3DA FD CB 7F 24
11196   A3DE FD CB 7F 24         SLA  [IY+127],H         ; A3DE FD CB 7F 24
11197   A3E2 FD CB 80 25         sla  [iy+-128],l        ; A3E2 FD CB 80 25
11198   A3E6 FD CB 80 25         SLA  [IY+-128],L        ; A3E6 FD CB 80 25
11199   A3EA FD CB FF 25         sla  [iy+-1],l          ; A3EA FD CB FF 25
11200   A3EE FD CB FF 25         SLA  [IY+-1],L          ; A3EE FD CB FF 25
11201   A3F2 FD CB 00 25         sla  [iy+0],l           ; A3F2 FD CB 00 25
11202   A3F6 FD CB 00 25         SLA  [IY+0],L           ; A3F6 FD CB 00 25
11203   A3FA FD CB 7F 25         sla  [iy+127],l         ; A3FA FD CB 7F 25
11204   A3FE FD CB 7F 25         SLA  [IY+127],L         ; A3FE FD CB 7F 25
11205   A402 CB 27               sla  a                  ; A402 CB 27
11206   A404 CB 27               SLA  A                  ; A404 CB 27
11207   A406 CB 20               sla  b                  ; A406 CB 20
11208   A408 CB 20               SLA  B                  ; A408 CB 20
11209   A40A CB 21 CB 10         sla  bc                 ; A40A CB 21 CB 10
11210   A40E CB 21 CB 10         SLA  BC                 ; A40E CB 21 CB 10
11211   A412 CB 21               sla  c                  ; A412 CB 21
11212   A414 CB 21               SLA  C                  ; A414 CB 21
11213   A416 CB 22               sla  d                  ; A416 CB 22
11214   A418 CB 22               SLA  D                  ; A418 CB 22
11215   A41A CB 23 CB 12         sla  de                 ; A41A CB 23 CB 12
11216   A41E CB 23 CB 12         SLA  DE                 ; A41E CB 23 CB 12
11217   A422 CB 23               sla  e                  ; A422 CB 23
11218   A424 CB 23               SLA  E                  ; A424 CB 23
11219   A426 CB 24               sla  h                  ; A426 CB 24
11220   A428 CB 24               SLA  H                  ; A428 CB 24
11221   A42A 29                  sla  hl                 ; A42A 29
11222   A42B 29                  SLA  HL                 ; A42B 29
11223   A42C CB 25               sla  l                  ; A42C CB 25
11224   A42E CB 25               SLA  L                  ; A42E CB 25
11225   A430 CB 36               sli  (hl)               ; A430 CB 36
11226   A432 CB 36               SLI  (HL)               ; A432 CB 36
11227   A434 DD CB 80 36         sli  (ix+-128)          ; A434 DD CB 80 36
11228   A438 DD CB 80 36         SLI  (IX+-128)          ; A438 DD CB 80 36
11229   A43C DD CB FF 36         sli  (ix+-1)            ; A43C DD CB FF 36
11230   A440 DD CB FF 36         SLI  (IX+-1)            ; A440 DD CB FF 36
11231   A444 DD CB 00 36         sli  (ix+0)             ; A444 DD CB 00 36
11232   A448 DD CB 00 36         SLI  (IX+0)             ; A448 DD CB 00 36
11233   A44C DD CB 7F 36         sli  (ix+127)           ; A44C DD CB 7F 36
11234   A450 DD CB 7F 36         SLI  (IX+127)           ; A450 DD CB 7F 36
11235   A454 DD CB 80 37         sli  (ix+-128),a        ; A454 DD CB 80 37
11236   A458 DD CB 80 37         SLI  (IX+-128),A        ; A458 DD CB 80 37
11237   A45C DD CB FF 37         sli  (ix+-1),a          ; A45C DD CB FF 37
11238   A460 DD CB FF 37         SLI  (IX+-1),A          ; A460 DD CB FF 37
11239   A464 DD CB 00 37         sli  (ix+0),a           ; A464 DD CB 00 37
11240   A468 DD CB 00 37         SLI  (IX+0),A           ; A468 DD CB 00 37
11241   A46C DD CB 7F 37         sli  (ix+127),a         ; A46C DD CB 7F 37
11242   A470 DD CB 7F 37         SLI  (IX+127),A         ; A470 DD CB 7F 37
11243   A474 DD CB 80 30         sli  (ix+-128),b        ; A474 DD CB 80 30
11244   A478 DD CB 80 30         SLI  (IX+-128),B        ; A478 DD CB 80 30
11245   A47C DD CB FF 30         sli  (ix+-1),b          ; A47C DD CB FF 30
11246   A480 DD CB FF 30         SLI  (IX+-1),B          ; A480 DD CB FF 30
11247   A484 DD CB 00 30         sli  (ix+0),b           ; A484 DD CB 00 30
11248   A488 DD CB 00 30         SLI  (IX+0),B           ; A488 DD CB 00 30
11249   A48C DD CB 7F 30         sli  (ix+127),b         ; A48C DD CB 7F 30
11250   A490 DD CB 7F 30         SLI  (IX+127),B         ; A490 DD CB 7F 30
11251   A494 DD CB 80 31         sli  (ix+-128),c        ; A494 DD CB 80 31
11252   A498 DD CB 80 31         SLI  (IX+-128),C        ; A498 DD CB 80 31
11253   A49C DD CB FF 31         sli  (ix+-1),c          ; A49C DD CB FF 31
11254   A4A0 DD CB FF 31         SLI  (IX+-1),C          ; A4A0 DD CB FF 31
11255   A4A4 DD CB 00 31         sli  (ix+0),c           ; A4A4 DD CB 00 31
11256   A4A8 DD CB 00 31         SLI  (IX+0),C           ; A4A8 DD CB 00 31
11257   A4AC DD CB 7F 31         sli  (ix+127),c         ; A4AC DD CB 7F 31
11258   A4B0 DD CB 7F 31         SLI  (IX+127),C         ; A4B0 DD CB 7F 31
11259   A4B4 DD CB 80 32         sli  (ix+-128),d        ; A4B4 DD CB 80 32
11260   A4B8 DD CB 80 32         SLI  (IX+-128),D        ; A4B8 DD CB 80 32
11261   A4BC DD CB FF 32         sli  (ix+-1),d          ; A4BC DD CB FF 32
11262   A4C0 DD CB FF 32         SLI  (IX+-1),D          ; A4C0 DD CB FF 32
11263   A4C4 DD CB 00 32         sli  (ix+0),d           ; A4C4 DD CB 00 32
11264   A4C8 DD CB 00 32         SLI  (IX+0),D           ; A4C8 DD CB 00 32
11265   A4CC DD CB 7F 32         sli  (ix+127),d         ; A4CC DD CB 7F 32
11266   A4D0 DD CB 7F 32         SLI  (IX+127),D         ; A4D0 DD CB 7F 32
11267   A4D4 DD CB 80 33         sli  (ix+-128),e        ; A4D4 DD CB 80 33
11268   A4D8 DD CB 80 33         SLI  (IX+-128),E        ; A4D8 DD CB 80 33
11269   A4DC DD CB FF 33         sli  (ix+-1),e          ; A4DC DD CB FF 33
11270   A4E0 DD CB FF 33         SLI  (IX+-1),E          ; A4E0 DD CB FF 33
11271   A4E4 DD CB 00 33         sli  (ix+0),e           ; A4E4 DD CB 00 33
11272   A4E8 DD CB 00 33         SLI  (IX+0),E           ; A4E8 DD CB 00 33
11273   A4EC DD CB 7F 33         sli  (ix+127),e         ; A4EC DD CB 7F 33
11274   A4F0 DD CB 7F 33         SLI  (IX+127),E         ; A4F0 DD CB 7F 33
11275   A4F4 DD CB 80 34         sli  (ix+-128),h        ; A4F4 DD CB 80 34
11276   A4F8 DD CB 80 34         SLI  (IX+-128),H        ; A4F8 DD CB 80 34
11277   A4FC DD CB FF 34         sli  (ix+-1),h          ; A4FC DD CB FF 34
11278   A500 DD CB FF 34         SLI  (IX+-1),H          ; A500 DD CB FF 34
11279   A504 DD CB 00 34         sli  (ix+0),h           ; A504 DD CB 00 34
11280   A508 DD CB 00 34         SLI  (IX+0),H           ; A508 DD CB 00 34
11281   A50C DD CB 7F 34         sli  (ix+127),h         ; A50C DD CB 7F 34
11282   A510 DD CB 7F 34         SLI  (IX+127),H         ; A510 DD CB 7F 34
11283   A514 DD CB 80 35         sli  (ix+-128),l        ; A514 DD CB 80 35
11284   A518 DD CB 80 35         SLI  (IX+-128),L        ; A518 DD CB 80 35
11285   A51C DD CB FF 35         sli  (ix+-1),l          ; A51C DD CB FF 35
11286   A520 DD CB FF 35         SLI  (IX+-1),L          ; A520 DD CB FF 35
11287   A524 DD CB 00 35         sli  (ix+0),l           ; A524 DD CB 00 35
11288   A528 DD CB 00 35         SLI  (IX+0),L           ; A528 DD CB 00 35
11289   A52C DD CB 7F 35         sli  (ix+127),l         ; A52C DD CB 7F 35
11290   A530 DD CB 7F 35         SLI  (IX+127),L         ; A530 DD CB 7F 35
11291   A534 FD CB 80 36         sli  (iy+-128)          ; A534 FD CB 80 36
11292   A538 FD CB 80 36         SLI  (IY+-128)          ; A538 FD CB 80 36
11293   A53C FD CB FF 36         sli  (iy+-1)            ; A53C FD CB FF 36
11294   A540 FD CB FF 36         SLI  (IY+-1)            ; A540 FD CB FF 36
11295   A544 FD CB 00 36         sli  (iy+0)             ; A544 FD CB 00 36
11296   A548 FD CB 00 36         SLI  (IY+0)             ; A548 FD CB 00 36
11297   A54C FD CB 7F 36         sli  (iy+127)           ; A54C FD CB 7F 36
11298   A550 FD CB 7F 36         SLI  (IY+127)           ; A550 FD CB 7F 36
11299   A554 FD CB 80 37         sli  (iy+-128),a        ; A554 FD CB 80 37
11300   A558 FD CB 80 37         SLI  (IY+-128),A        ; A558 FD CB 80 37
11301   A55C FD CB FF 37         sli  (iy+-1),a          ; A55C FD CB FF 37
11302   A560 FD CB FF 37         SLI  (IY+-1),A          ; A560 FD CB FF 37
11303   A564 FD CB 00 37         sli  (iy+0),a           ; A564 FD CB 00 37
11304   A568 FD CB 00 37         SLI  (IY+0),A           ; A568 FD CB 00 37
11305   A56C FD CB 7F 37         sli  (iy+127),a         ; A56C FD CB 7F 37
11306   A570 FD CB 7F 37         SLI  (IY+127),A         ; A570 FD CB 7F 37
11307   A574 FD CB 80 30         sli  (iy+-128),b        ; A574 FD CB 80 30
11308   A578 FD CB 80 30         SLI  (IY+-128),B        ; A578 FD CB 80 30
11309   A57C FD CB FF 30         sli  (iy+-1),b          ; A57C FD CB FF 30
11310   A580 FD CB FF 30         SLI  (IY+-1),B          ; A580 FD CB FF 30
11311   A584 FD CB 00 30         sli  (iy+0),b           ; A584 FD CB 00 30
11312   A588 FD CB 00 30         SLI  (IY+0),B           ; A588 FD CB 00 30
11313   A58C FD CB 7F 30         sli  (iy+127),b         ; A58C FD CB 7F 30
11314   A590 FD CB 7F 30         SLI  (IY+127),B         ; A590 FD CB 7F 30
11315   A594 FD CB 80 31         sli  (iy+-128),c        ; A594 FD CB 80 31
11316   A598 FD CB 80 31         SLI  (IY+-128),C        ; A598 FD CB 80 31
11317   A59C FD CB FF 31         sli  (iy+-1),c          ; A59C FD CB FF 31
11318   A5A0 FD CB FF 31         SLI  (IY+-1),C          ; A5A0 FD CB FF 31
11319   A5A4 FD CB 00 31         sli  (iy+0),c           ; A5A4 FD CB 00 31
11320   A5A8 FD CB 00 31         SLI  (IY+0),C           ; A5A8 FD CB 00 31
11321   A5AC FD CB 7F 31         sli  (iy+127),c         ; A5AC FD CB 7F 31
11322   A5B0 FD CB 7F 31         SLI  (IY+127),C         ; A5B0 FD CB 7F 31
11323   A5B4 FD CB 80 32         sli  (iy+-128),d        ; A5B4 FD CB 80 32
11324   A5B8 FD CB 80 32         SLI  (IY+-128),D        ; A5B8 FD CB 80 32
11325   A5BC FD CB FF 32         sli  (iy+-1),d          ; A5BC FD CB FF 32
11326   A5C0 FD CB FF 32         SLI  (IY+-1),D          ; A5C0 FD CB FF 32
11327   A5C4 FD CB 00 32         sli  (iy+0),d           ; A5C4 FD CB 00 32
11328   A5C8 FD CB 00 32         SLI  (IY+0),D           ; A5C8 FD CB 00 32
11329   A5CC FD CB 7F 32         sli  (iy+127),d         ; A5CC FD CB 7F 32
11330   A5D0 FD CB 7F 32         SLI  (IY+127),D         ; A5D0 FD CB 7F 32
11331   A5D4 FD CB 80 33         sli  (iy+-128),e        ; A5D4 FD CB 80 33
11332   A5D8 FD CB 80 33         SLI  (IY+-128),E        ; A5D8 FD CB 80 33
11333   A5DC FD CB FF 33         sli  (iy+-1),e          ; A5DC FD CB FF 33
11334   A5E0 FD CB FF 33         SLI  (IY+-1),E          ; A5E0 FD CB FF 33
11335   A5E4 FD CB 00 33         sli  (iy+0),e           ; A5E4 FD CB 00 33
11336   A5E8 FD CB 00 33         SLI  (IY+0),E           ; A5E8 FD CB 00 33
11337   A5EC FD CB 7F 33         sli  (iy+127),e         ; A5EC FD CB 7F 33
11338   A5F0 FD CB 7F 33         SLI  (IY+127),E         ; A5F0 FD CB 7F 33
11339   A5F4 FD CB 80 34         sli  (iy+-128),h        ; A5F4 FD CB 80 34
11340   A5F8 FD CB 80 34         SLI  (IY+-128),H        ; A5F8 FD CB 80 34
11341   A5FC FD CB FF 34         sli  (iy+-1),h          ; A5FC FD CB FF 34
11342   A600 FD CB FF 34         SLI  (IY+-1),H          ; A600 FD CB FF 34
11343   A604 FD CB 00 34         sli  (iy+0),h           ; A604 FD CB 00 34
11344   A608 FD CB 00 34         SLI  (IY+0),H           ; A608 FD CB 00 34
11345   A60C FD CB 7F 34         sli  (iy+127),h         ; A60C FD CB 7F 34
11346   A610 FD CB 7F 34         SLI  (IY+127),H         ; A610 FD CB 7F 34
11347   A614 FD CB 80 35         sli  (iy+-128),l        ; A614 FD CB 80 35
11348   A618 FD CB 80 35         SLI  (IY+-128),L        ; A618 FD CB 80 35
11349   A61C FD CB FF 35         sli  (iy+-1),l          ; A61C FD CB FF 35
11350   A620 FD CB FF 35         SLI  (IY+-1),L          ; A620 FD CB FF 35
11351   A624 FD CB 00 35         sli  (iy+0),l           ; A624 FD CB 00 35
11352   A628 FD CB 00 35         SLI  (IY+0),L           ; A628 FD CB 00 35
11353   A62C FD CB 7F 35         sli  (iy+127),l         ; A62C FD CB 7F 35
11354   A630 FD CB 7F 35         SLI  (IY+127),L         ; A630 FD CB 7F 35
11355   A634 CB 36               sli  [hl]               ; A634 CB 36
11356   A636 CB 36               SLI  [HL]               ; A636 CB 36
11357   A638 DD CB 80 36         sli  [ix+-128]          ; A638 DD CB 80 36
11358   A63C DD CB 80 36         SLI  [IX+-128]          ; A63C DD CB 80 36
11359   A640 DD CB FF 36         sli  [ix+-1]            ; A640 DD CB FF 36
11360   A644 DD CB FF 36         SLI  [IX+-1]            ; A644 DD CB FF 36
11361   A648 DD CB 00 36         sli  [ix+0]             ; A648 DD CB 00 36
11362   A64C DD CB 00 36         SLI  [IX+0]             ; A64C DD CB 00 36
11363   A650 DD CB 7F 36         sli  [ix+127]           ; A650 DD CB 7F 36
11364   A654 DD CB 7F 36         SLI  [IX+127]           ; A654 DD CB 7F 36
11365   A658 DD CB 80 37         sli  [ix+-128],a        ; A658 DD CB 80 37
11366   A65C DD CB 80 37         SLI  [IX+-128],A        ; A65C DD CB 80 37
11367   A660 DD CB FF 37         sli  [ix+-1],a          ; A660 DD CB FF 37
11368   A664 DD CB FF 37         SLI  [IX+-1],A          ; A664 DD CB FF 37
11369   A668 DD CB 00 37         sli  [ix+0],a           ; A668 DD CB 00 37
11370   A66C DD CB 00 37         SLI  [IX+0],A           ; A66C DD CB 00 37
11371   A670 DD CB 7F 37         sli  [ix+127],a         ; A670 DD CB 7F 37
11372   A674 DD CB 7F 37         SLI  [IX+127],A         ; A674 DD CB 7F 37
11373   A678 DD CB 80 30         sli  [ix+-128],b        ; A678 DD CB 80 30
11374   A67C DD CB 80 30         SLI  [IX+-128],B        ; A67C DD CB 80 30
11375   A680 DD CB FF 30         sli  [ix+-1],b          ; A680 DD CB FF 30
11376   A684 DD CB FF 30         SLI  [IX+-1],B          ; A684 DD CB FF 30
11377   A688 DD CB 00 30         sli  [ix+0],b           ; A688 DD CB 00 30
11378   A68C DD CB 00 30         SLI  [IX+0],B           ; A68C DD CB 00 30
11379   A690 DD CB 7F 30         sli  [ix+127],b         ; A690 DD CB 7F 30
11380   A694 DD CB 7F 30         SLI  [IX+127],B         ; A694 DD CB 7F 30
11381   A698 DD CB 80 31         sli  [ix+-128],c        ; A698 DD CB 80 31
11382   A69C DD CB 80 31         SLI  [IX+-128],C        ; A69C DD CB 80 31
11383   A6A0 DD CB FF 31         sli  [ix+-1],c          ; A6A0 DD CB FF 31
11384   A6A4 DD CB FF 31         SLI  [IX+-1],C          ; A6A4 DD CB FF 31
11385   A6A8 DD CB 00 31         sli  [ix+0],c           ; A6A8 DD CB 00 31
11386   A6AC DD CB 00 31         SLI  [IX+0],C           ; A6AC DD CB 00 31
11387   A6B0 DD CB 7F 31         sli  [ix+127],c         ; A6B0 DD CB 7F 31
11388   A6B4 DD CB 7F 31         SLI  [IX+127],C         ; A6B4 DD CB 7F 31
11389   A6B8 DD CB 80 32         sli  [ix+-128],d        ; A6B8 DD CB 80 32
11390   A6BC DD CB 80 32         SLI  [IX+-128],D        ; A6BC DD CB 80 32
11391   A6C0 DD CB FF 32         sli  [ix+-1],d          ; A6C0 DD CB FF 32
11392   A6C4 DD CB FF 32         SLI  [IX+-1],D          ; A6C4 DD CB FF 32
11393   A6C8 DD CB 00 32         sli  [ix+0],d           ; A6C8 DD CB 00 32
11394   A6CC DD CB 00 32         SLI  [IX+0],D           ; A6CC DD CB 00 32
11395   A6D0 DD CB 7F 32         sli  [ix+127],d         ; A6D0 DD CB 7F 32
11396   A6D4 DD CB 7F 32         SLI  [IX+127],D         ; A6D4 DD CB 7F 32
11397   A6D8 DD CB 80 33         sli  [ix+-128],e        ; A6D8 DD CB 80 33
11398   A6DC DD CB 80 33         SLI  [IX+-128],E        ; A6DC DD CB 80 33
11399   A6E0 DD CB FF 33         sli  [ix+-1],e          ; A6E0 DD CB FF 33
11400   A6E4 DD CB FF 33         SLI  [IX+-1],E          ; A6E4 DD CB FF 33
11401   A6E8 DD CB 00 33         sli  [ix+0],e           ; A6E8 DD CB 00 33
11402   A6EC DD CB 00 33         SLI  [IX+0],E           ; A6EC DD CB 00 33
11403   A6F0 DD CB 7F 33         sli  [ix+127],e         ; A6F0 DD CB 7F 33
11404   A6F4 DD CB 7F 33         SLI  [IX+127],E         ; A6F4 DD CB 7F 33
11405   A6F8 DD CB 80 34         sli  [ix+-128],h        ; A6F8 DD CB 80 34
11406   A6FC DD CB 80 34         SLI  [IX+-128],H        ; A6FC DD CB 80 34
11407   A700 DD CB FF 34         sli  [ix+-1],h          ; A700 DD CB FF 34
11408   A704 DD CB FF 34         SLI  [IX+-1],H          ; A704 DD CB FF 34
11409   A708 DD CB 00 34         sli  [ix+0],h           ; A708 DD CB 00 34
11410   A70C DD CB 00 34         SLI  [IX+0],H           ; A70C DD CB 00 34
11411   A710 DD CB 7F 34         sli  [ix+127],h         ; A710 DD CB 7F 34
11412   A714 DD CB 7F 34         SLI  [IX+127],H         ; A714 DD CB 7F 34
11413   A718 DD CB 80 35         sli  [ix+-128],l        ; A718 DD CB 80 35
11414   A71C DD CB 80 35         SLI  [IX+-128],L        ; A71C DD CB 80 35
11415   A720 DD CB FF 35         sli  [ix+-1],l          ; A720 DD CB FF 35
11416   A724 DD CB FF 35         SLI  [IX+-1],L          ; A724 DD CB FF 35
11417   A728 DD CB 00 35         sli  [ix+0],l           ; A728 DD CB 00 35
11418   A72C DD CB 00 35         SLI  [IX+0],L           ; A72C DD CB 00 35
11419   A730 DD CB 7F 35         sli  [ix+127],l         ; A730 DD CB 7F 35
11420   A734 DD CB 7F 35         SLI  [IX+127],L         ; A734 DD CB 7F 35
11421   A738 FD CB 80 36         sli  [iy+-128]          ; A738 FD CB 80 36
11422   A73C FD CB 80 36         SLI  [IY+-128]          ; A73C FD CB 80 36
11423   A740 FD CB FF 36         sli  [iy+-1]            ; A740 FD CB FF 36
11424   A744 FD CB FF 36         SLI  [IY+-1]            ; A744 FD CB FF 36
11425   A748 FD CB 00 36         sli  [iy+0]             ; A748 FD CB 00 36
11426   A74C FD CB 00 36         SLI  [IY+0]             ; A74C FD CB 00 36
11427   A750 FD CB 7F 36         sli  [iy+127]           ; A750 FD CB 7F 36
11428   A754 FD CB 7F 36         SLI  [IY+127]           ; A754 FD CB 7F 36
11429   A758 FD CB 80 37         sli  [iy+-128],a        ; A758 FD CB 80 37
11430   A75C FD CB 80 37         SLI  [IY+-128],A        ; A75C FD CB 80 37
11431   A760 FD CB FF 37         sli  [iy+-1],a          ; A760 FD CB FF 37
11432   A764 FD CB FF 37         SLI  [IY+-1],A          ; A764 FD CB FF 37
11433   A768 FD CB 00 37         sli  [iy+0],a           ; A768 FD CB 00 37
11434   A76C FD CB 00 37         SLI  [IY+0],A           ; A76C FD CB 00 37
11435   A770 FD CB 7F 37         sli  [iy+127],a         ; A770 FD CB 7F 37
11436   A774 FD CB 7F 37         SLI  [IY+127],A         ; A774 FD CB 7F 37
11437   A778 FD CB 80 30         sli  [iy+-128],b        ; A778 FD CB 80 30
11438   A77C FD CB 80 30         SLI  [IY+-128],B        ; A77C FD CB 80 30
11439   A780 FD CB FF 30         sli  [iy+-1],b          ; A780 FD CB FF 30
11440   A784 FD CB FF 30         SLI  [IY+-1],B          ; A784 FD CB FF 30
11441   A788 FD CB 00 30         sli  [iy+0],b           ; A788 FD CB 00 30
11442   A78C FD CB 00 30         SLI  [IY+0],B           ; A78C FD CB 00 30
11443   A790 FD CB 7F 30         sli  [iy+127],b         ; A790 FD CB 7F 30
11444   A794 FD CB 7F 30         SLI  [IY+127],B         ; A794 FD CB 7F 30
11445   A798 FD CB 80 31         sli  [iy+-128],c        ; A798 FD CB 80 31
11446   A79C FD CB 80 31         SLI  [IY+-128],C        ; A79C FD CB 80 31
11447   A7A0 FD CB FF 31         sli  [iy+-1],c          ; A7A0 FD CB FF 31
11448   A7A4 FD CB FF 31         SLI  [IY+-1],C          ; A7A4 FD CB FF 31
11449   A7A8 FD CB 00 31         sli  [iy+0],c           ; A7A8 FD CB 00 31
11450   A7AC FD CB 00 31         SLI  [IY+0],C           ; A7AC FD CB 00 31
11451   A7B0 FD CB 7F 31         sli  [iy+127],c         ; A7B0 FD CB 7F 31
11452   A7B4 FD CB 7F 31         SLI  [IY+127],C         ; A7B4 FD CB 7F 31
11453   A7B8 FD CB 80 32         sli  [iy+-128],d        ; A7B8 FD CB 80 32
11454   A7BC FD CB 80 32         SLI  [IY+-128],D        ; A7BC FD CB 80 32
11455   A7C0 FD CB FF 32         sli  [iy+-1],d          ; A7C0 FD CB FF 32
11456   A7C4 FD CB FF 32         SLI  [IY+-1],D          ; A7C4 FD CB FF 32
11457   A7C8 FD CB 00 32         sli  [iy+0],d           ; A7C8 FD CB 00 32
11458   A7CC FD CB 00 32         SLI  [IY+0],D           ; A7CC FD CB 00 32
11459   A7D0 FD CB 7F 32         sli  [iy+127],d         ; A7D0 FD CB 7F 32
11460   A7D4 FD CB 7F 32         SLI  [IY+127],D         ; A7D4 FD CB 7F 32
11461   A7D8 FD CB 80 33         sli  [iy+-128],e        ; A7D8 FD CB 80 33
11462   A7DC FD CB 80 33         SLI  [IY+-128],E        ; A7DC FD CB 80 33
11463   A7E0 FD CB FF 33         sli  [iy+-1],e          ; A7E0 FD CB FF 33
11464   A7E4 FD CB FF 33         SLI  [IY+-1],E          ; A7E4 FD CB FF 33
11465   A7E8 FD CB 00 33         sli  [iy+0],e           ; A7E8 FD CB 00 33
11466   A7EC FD CB 00 33         SLI  [IY+0],E           ; A7EC FD CB 00 33
11467   A7F0 FD CB 7F 33         sli  [iy+127],e         ; A7F0 FD CB 7F 33
11468   A7F4 FD CB 7F 33         SLI  [IY+127],E         ; A7F4 FD CB 7F 33
11469   A7F8 FD CB 80 34         sli  [iy+-128],h        ; A7F8 FD CB 80 34
11470   A7FC FD CB 80 34         SLI  [IY+-128],H        ; A7FC FD CB 80 34
11471   A800 FD CB FF 34         sli  [iy+-1],h          ; A800 FD CB FF 34
11472   A804 FD CB FF 34         SLI  [IY+-1],H          ; A804 FD CB FF 34
11473   A808 FD CB 00 34         sli  [iy+0],h           ; A808 FD CB 00 34
11474   A80C FD CB 00 34         SLI  [IY+0],H           ; A80C FD CB 00 34
11475   A810 FD CB 7F 34         sli  [iy+127],h         ; A810 FD CB 7F 34
11476   A814 FD CB 7F 34         SLI  [IY+127],H         ; A814 FD CB 7F 34
11477   A818 FD CB 80 35         sli  [iy+-128],l        ; A818 FD CB 80 35
11478   A81C FD CB 80 35         SLI  [IY+-128],L        ; A81C FD CB 80 35
11479   A820 FD CB FF 35         sli  [iy+-1],l          ; A820 FD CB FF 35
11480   A824 FD CB FF 35         SLI  [IY+-1],L          ; A824 FD CB FF 35
11481   A828 FD CB 00 35         sli  [iy+0],l           ; A828 FD CB 00 35
11482   A82C FD CB 00 35         SLI  [IY+0],L           ; A82C FD CB 00 35
11483   A830 FD CB 7F 35         sli  [iy+127],l         ; A830 FD CB 7F 35
11484   A834 FD CB 7F 35         SLI  [IY+127],L         ; A834 FD CB 7F 35
11485   A838 CB 37               sli  a                  ; A838 CB 37
11486   A83A CB 37               SLI  A                  ; A83A CB 37
11487   A83C CB 30               sli  b                  ; A83C CB 30
11488   A83E CB 30               SLI  B                  ; A83E CB 30
11489   A840 CB 31 CB 10         sli  bc                 ; A840 CB 31 CB 10
11490   A844 CB 31 CB 10         SLI  BC                 ; A844 CB 31 CB 10
11491   A848 CB 31               sli  c                  ; A848 CB 31
11492   A84A CB 31               SLI  C                  ; A84A CB 31
11493   A84C CB 32               sli  d                  ; A84C CB 32
11494   A84E CB 32               SLI  D                  ; A84E CB 32
11495   A850 CB 33 CB 12         sli  de                 ; A850 CB 33 CB 12
11496   A854 CB 33 CB 12         SLI  DE                 ; A854 CB 33 CB 12
11497   A858 CB 33               sli  e                  ; A858 CB 33
11498   A85A CB 33               SLI  E                  ; A85A CB 33
11499   A85C CB 34               sli  h                  ; A85C CB 34
11500   A85E CB 34               SLI  H                  ; A85E CB 34
11501   A860 CB 35 CB 14         sli  hl                 ; A860 CB 35 CB 14
11502   A864 CB 35 CB 14         SLI  HL                 ; A864 CB 35 CB 14
11503   A868 CB 35               sli  l                  ; A868 CB 35
11504   A86A CB 35               SLI  L                  ; A86A CB 35
11505   A86C CB 36               sll  (hl)               ; A86C CB 36
11506   A86E CB 36               SLL  (HL)               ; A86E CB 36
11507   A870 DD CB 80 36         sll  (ix+-128)          ; A870 DD CB 80 36
11508   A874 DD CB 80 36         SLL  (IX+-128)          ; A874 DD CB 80 36
11509   A878 DD CB FF 36         sll  (ix+-1)            ; A878 DD CB FF 36
11510   A87C DD CB FF 36         SLL  (IX+-1)            ; A87C DD CB FF 36
11511   A880 DD CB 00 36         sll  (ix+0)             ; A880 DD CB 00 36
11512   A884 DD CB 00 36         SLL  (IX+0)             ; A884 DD CB 00 36
11513   A888 DD CB 7F 36         sll  (ix+127)           ; A888 DD CB 7F 36
11514   A88C DD CB 7F 36         SLL  (IX+127)           ; A88C DD CB 7F 36
11515   A890 DD CB 80 37         sll  (ix+-128),a        ; A890 DD CB 80 37
11516   A894 DD CB 80 37         SLL  (IX+-128),A        ; A894 DD CB 80 37
11517   A898 DD CB FF 37         sll  (ix+-1),a          ; A898 DD CB FF 37
11518   A89C DD CB FF 37         SLL  (IX+-1),A          ; A89C DD CB FF 37
11519   A8A0 DD CB 00 37         sll  (ix+0),a           ; A8A0 DD CB 00 37
11520   A8A4 DD CB 00 37         SLL  (IX+0),A           ; A8A4 DD CB 00 37
11521   A8A8 DD CB 7F 37         sll  (ix+127),a         ; A8A8 DD CB 7F 37
11522   A8AC DD CB 7F 37         SLL  (IX+127),A         ; A8AC DD CB 7F 37
11523   A8B0 DD CB 80 30         sll  (ix+-128),b        ; A8B0 DD CB 80 30
11524   A8B4 DD CB 80 30         SLL  (IX+-128),B        ; A8B4 DD CB 80 30
11525   A8B8 DD CB FF 30         sll  (ix+-1),b          ; A8B8 DD CB FF 30
11526   A8BC DD CB FF 30         SLL  (IX+-1),B          ; A8BC DD CB FF 30
11527   A8C0 DD CB 00 30         sll  (ix+0),b           ; A8C0 DD CB 00 30
11528   A8C4 DD CB 00 30         SLL  (IX+0),B           ; A8C4 DD CB 00 30
11529   A8C8 DD CB 7F 30         sll  (ix+127),b         ; A8C8 DD CB 7F 30
11530   A8CC DD CB 7F 30         SLL  (IX+127),B         ; A8CC DD CB 7F 30
11531   A8D0 DD CB 80 31         sll  (ix+-128),c        ; A8D0 DD CB 80 31
11532   A8D4 DD CB 80 31         SLL  (IX+-128),C        ; A8D4 DD CB 80 31
11533   A8D8 DD CB FF 31         sll  (ix+-1),c          ; A8D8 DD CB FF 31
11534   A8DC DD CB FF 31         SLL  (IX+-1),C          ; A8DC DD CB FF 31
11535   A8E0 DD CB 00 31         sll  (ix+0),c           ; A8E0 DD CB 00 31
11536   A8E4 DD CB 00 31         SLL  (IX+0),C           ; A8E4 DD CB 00 31
11537   A8E8 DD CB 7F 31         sll  (ix+127),c         ; A8E8 DD CB 7F 31
11538   A8EC DD CB 7F 31         SLL  (IX+127),C         ; A8EC DD CB 7F 31
11539   A8F0 DD CB 80 32         sll  (ix+-128),d        ; A8F0 DD CB 80 32
11540   A8F4 DD CB 80 32         SLL  (IX+-128),D        ; A8F4 DD CB 80 32
11541   A8F8 DD CB FF 32         sll  (ix+-1),d          ; A8F8 DD CB FF 32
11542   A8FC DD CB FF 32         SLL  (IX+-1),D          ; A8FC DD CB FF 32
11543   A900 DD CB 00 32         sll  (ix+0),d           ; A900 DD CB 00 32
11544   A904 DD CB 00 32         SLL  (IX+0),D           ; A904 DD CB 00 32
11545   A908 DD CB 7F 32         sll  (ix+127),d         ; A908 DD CB 7F 32
11546   A90C DD CB 7F 32         SLL  (IX+127),D         ; A90C DD CB 7F 32
11547   A910 DD CB 80 33         sll  (ix+-128),e        ; A910 DD CB 80 33
11548   A914 DD CB 80 33         SLL  (IX+-128),E        ; A914 DD CB 80 33
11549   A918 DD CB FF 33         sll  (ix+-1),e          ; A918 DD CB FF 33
11550   A91C DD CB FF 33         SLL  (IX+-1),E          ; A91C DD CB FF 33
11551   A920 DD CB 00 33         sll  (ix+0),e           ; A920 DD CB 00 33
11552   A924 DD CB 00 33         SLL  (IX+0),E           ; A924 DD CB 00 33
11553   A928 DD CB 7F 33         sll  (ix+127),e         ; A928 DD CB 7F 33
11554   A92C DD CB 7F 33         SLL  (IX+127),E         ; A92C DD CB 7F 33
11555   A930 DD CB 80 34         sll  (ix+-128),h        ; A930 DD CB 80 34
11556   A934 DD CB 80 34         SLL  (IX+-128),H        ; A934 DD CB 80 34
11557   A938 DD CB FF 34         sll  (ix+-1),h          ; A938 DD CB FF 34
11558   A93C DD CB FF 34         SLL  (IX+-1),H          ; A93C DD CB FF 34
11559   A940 DD CB 00 34         sll  (ix+0),h           ; A940 DD CB 00 34
11560   A944 DD CB 00 34         SLL  (IX+0),H           ; A944 DD CB 00 34
11561   A948 DD CB 7F 34         sll  (ix+127),h         ; A948 DD CB 7F 34
11562   A94C DD CB 7F 34         SLL  (IX+127),H         ; A94C DD CB 7F 34
11563   A950 DD CB 80 35         sll  (ix+-128),l        ; A950 DD CB 80 35
11564   A954 DD CB 80 35         SLL  (IX+-128),L        ; A954 DD CB 80 35
11565   A958 DD CB FF 35         sll  (ix+-1),l          ; A958 DD CB FF 35
11566   A95C DD CB FF 35         SLL  (IX+-1),L          ; A95C DD CB FF 35
11567   A960 DD CB 00 35         sll  (ix+0),l           ; A960 DD CB 00 35
11568   A964 DD CB 00 35         SLL  (IX+0),L           ; A964 DD CB 00 35
11569   A968 DD CB 7F 35         sll  (ix+127),l         ; A968 DD CB 7F 35
11570   A96C DD CB 7F 35         SLL  (IX+127),L         ; A96C DD CB 7F 35
11571   A970 FD CB 80 36         sll  (iy+-128)          ; A970 FD CB 80 36
11572   A974 FD CB 80 36         SLL  (IY+-128)          ; A974 FD CB 80 36
11573   A978 FD CB FF 36         sll  (iy+-1)            ; A978 FD CB FF 36
11574   A97C FD CB FF 36         SLL  (IY+-1)            ; A97C FD CB FF 36
11575   A980 FD CB 00 36         sll  (iy+0)             ; A980 FD CB 00 36
11576   A984 FD CB 00 36         SLL  (IY+0)             ; A984 FD CB 00 36
11577   A988 FD CB 7F 36         sll  (iy+127)           ; A988 FD CB 7F 36
11578   A98C FD CB 7F 36         SLL  (IY+127)           ; A98C FD CB 7F 36
11579   A990 FD CB 80 37         sll  (iy+-128),a        ; A990 FD CB 80 37
11580   A994 FD CB 80 37         SLL  (IY+-128),A        ; A994 FD CB 80 37
11581   A998 FD CB FF 37         sll  (iy+-1),a          ; A998 FD CB FF 37
11582   A99C FD CB FF 37         SLL  (IY+-1),A          ; A99C FD CB FF 37
11583   A9A0 FD CB 00 37         sll  (iy+0),a           ; A9A0 FD CB 00 37
11584   A9A4 FD CB 00 37         SLL  (IY+0),A           ; A9A4 FD CB 00 37
11585   A9A8 FD CB 7F 37         sll  (iy+127),a         ; A9A8 FD CB 7F 37
11586   A9AC FD CB 7F 37         SLL  (IY+127),A         ; A9AC FD CB 7F 37
11587   A9B0 FD CB 80 30         sll  (iy+-128),b        ; A9B0 FD CB 80 30
11588   A9B4 FD CB 80 30         SLL  (IY+-128),B        ; A9B4 FD CB 80 30
11589   A9B8 FD CB FF 30         sll  (iy+-1),b          ; A9B8 FD CB FF 30
11590   A9BC FD CB FF 30         SLL  (IY+-1),B          ; A9BC FD CB FF 30
11591   A9C0 FD CB 00 30         sll  (iy+0),b           ; A9C0 FD CB 00 30
11592   A9C4 FD CB 00 30         SLL  (IY+0),B           ; A9C4 FD CB 00 30
11593   A9C8 FD CB 7F 30         sll  (iy+127),b         ; A9C8 FD CB 7F 30
11594   A9CC FD CB 7F 30         SLL  (IY+127),B         ; A9CC FD CB 7F 30
11595   A9D0 FD CB 80 31         sll  (iy+-128),c        ; A9D0 FD CB 80 31
11596   A9D4 FD CB 80 31         SLL  (IY+-128),C        ; A9D4 FD CB 80 31
11597   A9D8 FD CB FF 31         sll  (iy+-1),c          ; A9D8 FD CB FF 31
11598   A9DC FD CB FF 31         SLL  (IY+-1),C          ; A9DC FD CB FF 31
11599   A9E0 FD CB 00 31         sll  (iy+0),c           ; A9E0 FD CB 00 31
11600   A9E4 FD CB 00 31         SLL  (IY+0),C           ; A9E4 FD CB 00 31
11601   A9E8 FD CB 7F 31         sll  (iy+127),c         ; A9E8 FD CB 7F 31
11602   A9EC FD CB 7F 31         SLL  (IY+127),C         ; A9EC FD CB 7F 31
11603   A9F0 FD CB 80 32         sll  (iy+-128),d        ; A9F0 FD CB 80 32
11604   A9F4 FD CB 80 32         SLL  (IY+-128),D        ; A9F4 FD CB 80 32
11605   A9F8 FD CB FF 32         sll  (iy+-1),d          ; A9F8 FD CB FF 32
11606   A9FC FD CB FF 32         SLL  (IY+-1),D          ; A9FC FD CB FF 32
11607   AA00 FD CB 00 32         sll  (iy+0),d           ; AA00 FD CB 00 32
11608   AA04 FD CB 00 32         SLL  (IY+0),D           ; AA04 FD CB 00 32
11609   AA08 FD CB 7F 32         sll  (iy+127),d         ; AA08 FD CB 7F 32
11610   AA0C FD CB 7F 32         SLL  (IY+127),D         ; AA0C FD CB 7F 32
11611   AA10 FD CB 80 33         sll  (iy+-128),e        ; AA10 FD CB 80 33
11612   AA14 FD CB 80 33         SLL  (IY+-128),E        ; AA14 FD CB 80 33
11613   AA18 FD CB FF 33         sll  (iy+-1),e          ; AA18 FD CB FF 33
11614   AA1C FD CB FF 33         SLL  (IY+-1),E          ; AA1C FD CB FF 33
11615   AA20 FD CB 00 33         sll  (iy+0),e           ; AA20 FD CB 00 33
11616   AA24 FD CB 00 33         SLL  (IY+0),E           ; AA24 FD CB 00 33
11617   AA28 FD CB 7F 33         sll  (iy+127),e         ; AA28 FD CB 7F 33
11618   AA2C FD CB 7F 33         SLL  (IY+127),E         ; AA2C FD CB 7F 33
11619   AA30 FD CB 80 34         sll  (iy+-128),h        ; AA30 FD CB 80 34
11620   AA34 FD CB 80 34         SLL  (IY+-128),H        ; AA34 FD CB 80 34
11621   AA38 FD CB FF 34         sll  (iy+-1),h          ; AA38 FD CB FF 34
11622   AA3C FD CB FF 34         SLL  (IY+-1),H          ; AA3C FD CB FF 34
11623   AA40 FD CB 00 34         sll  (iy+0),h           ; AA40 FD CB 00 34
11624   AA44 FD CB 00 34         SLL  (IY+0),H           ; AA44 FD CB 00 34
11625   AA48 FD CB 7F 34         sll  (iy+127),h         ; AA48 FD CB 7F 34
11626   AA4C FD CB 7F 34         SLL  (IY+127),H         ; AA4C FD CB 7F 34
11627   AA50 FD CB 80 35         sll  (iy+-128),l        ; AA50 FD CB 80 35
11628   AA54 FD CB 80 35         SLL  (IY+-128),L        ; AA54 FD CB 80 35
11629   AA58 FD CB FF 35         sll  (iy+-1),l          ; AA58 FD CB FF 35
11630   AA5C FD CB FF 35         SLL  (IY+-1),L          ; AA5C FD CB FF 35
11631   AA60 FD CB 00 35         sll  (iy+0),l           ; AA60 FD CB 00 35
11632   AA64 FD CB 00 35         SLL  (IY+0),L           ; AA64 FD CB 00 35
11633   AA68 FD CB 7F 35         sll  (iy+127),l         ; AA68 FD CB 7F 35
11634   AA6C FD CB 7F 35         SLL  (IY+127),L         ; AA6C FD CB 7F 35
11635   AA70 CB 36               sll  [hl]               ; AA70 CB 36
11636   AA72 CB 36               SLL  [HL]               ; AA72 CB 36
11637   AA74 DD CB 80 36         sll  [ix+-128]          ; AA74 DD CB 80 36
11638   AA78 DD CB 80 36         SLL  [IX+-128]          ; AA78 DD CB 80 36
11639   AA7C DD CB FF 36         sll  [ix+-1]            ; AA7C DD CB FF 36
11640   AA80 DD CB FF 36         SLL  [IX+-1]            ; AA80 DD CB FF 36
11641   AA84 DD CB 00 36         sll  [ix+0]             ; AA84 DD CB 00 36
11642   AA88 DD CB 00 36         SLL  [IX+0]             ; AA88 DD CB 00 36
11643   AA8C DD CB 7F 36         sll  [ix+127]           ; AA8C DD CB 7F 36
11644   AA90 DD CB 7F 36         SLL  [IX+127]           ; AA90 DD CB 7F 36
11645   AA94 DD CB 80 37         sll  [ix+-128],a        ; AA94 DD CB 80 37
11646   AA98 DD CB 80 37         SLL  [IX+-128],A        ; AA98 DD CB 80 37
11647   AA9C DD CB FF 37         sll  [ix+-1],a          ; AA9C DD CB FF 37
11648   AAA0 DD CB FF 37         SLL  [IX+-1],A          ; AAA0 DD CB FF 37
11649   AAA4 DD CB 00 37         sll  [ix+0],a           ; AAA4 DD CB 00 37
11650   AAA8 DD CB 00 37         SLL  [IX+0],A           ; AAA8 DD CB 00 37
11651   AAAC DD CB 7F 37         sll  [ix+127],a         ; AAAC DD CB 7F 37
11652   AAB0 DD CB 7F 37         SLL  [IX+127],A         ; AAB0 DD CB 7F 37
11653   AAB4 DD CB 80 30         sll  [ix+-128],b        ; AAB4 DD CB 80 30
11654   AAB8 DD CB 80 30         SLL  [IX+-128],B        ; AAB8 DD CB 80 30
11655   AABC DD CB FF 30         sll  [ix+-1],b          ; AABC DD CB FF 30
11656   AAC0 DD CB FF 30         SLL  [IX+-1],B          ; AAC0 DD CB FF 30
11657   AAC4 DD CB 00 30         sll  [ix+0],b           ; AAC4 DD CB 00 30
11658   AAC8 DD CB 00 30         SLL  [IX+0],B           ; AAC8 DD CB 00 30
11659   AACC DD CB 7F 30         sll  [ix+127],b         ; AACC DD CB 7F 30
11660   AAD0 DD CB 7F 30         SLL  [IX+127],B         ; AAD0 DD CB 7F 30
11661   AAD4 DD CB 80 31         sll  [ix+-128],c        ; AAD4 DD CB 80 31
11662   AAD8 DD CB 80 31         SLL  [IX+-128],C        ; AAD8 DD CB 80 31
11663   AADC DD CB FF 31         sll  [ix+-1],c          ; AADC DD CB FF 31
11664   AAE0 DD CB FF 31         SLL  [IX+-1],C          ; AAE0 DD CB FF 31
11665   AAE4 DD CB 00 31         sll  [ix+0],c           ; AAE4 DD CB 00 31
11666   AAE8 DD CB 00 31         SLL  [IX+0],C           ; AAE8 DD CB 00 31
11667   AAEC DD CB 7F 31         sll  [ix+127],c         ; AAEC DD CB 7F 31
11668   AAF0 DD CB 7F 31         SLL  [IX+127],C         ; AAF0 DD CB 7F 31
11669   AAF4 DD CB 80 32         sll  [ix+-128],d        ; AAF4 DD CB 80 32
11670   AAF8 DD CB 80 32         SLL  [IX+-128],D        ; AAF8 DD CB 80 32
11671   AAFC DD CB FF 32         sll  [ix+-1],d          ; AAFC DD CB FF 32
11672   AB00 DD CB FF 32         SLL  [IX+-1],D          ; AB00 DD CB FF 32
11673   AB04 DD CB 00 32         sll  [ix+0],d           ; AB04 DD CB 00 32
11674   AB08 DD CB 00 32         SLL  [IX+0],D           ; AB08 DD CB 00 32
11675   AB0C DD CB 7F 32         sll  [ix+127],d         ; AB0C DD CB 7F 32
11676   AB10 DD CB 7F 32         SLL  [IX+127],D         ; AB10 DD CB 7F 32
11677   AB14 DD CB 80 33         sll  [ix+-128],e        ; AB14 DD CB 80 33
11678   AB18 DD CB 80 33         SLL  [IX+-128],E        ; AB18 DD CB 80 33
11679   AB1C DD CB FF 33         sll  [ix+-1],e          ; AB1C DD CB FF 33
11680   AB20 DD CB FF 33         SLL  [IX+-1],E          ; AB20 DD CB FF 33
11681   AB24 DD CB 00 33         sll  [ix+0],e           ; AB24 DD CB 00 33
11682   AB28 DD CB 00 33         SLL  [IX+0],E           ; AB28 DD CB 00 33
11683   AB2C DD CB 7F 33         sll  [ix+127],e         ; AB2C DD CB 7F 33
11684   AB30 DD CB 7F 33         SLL  [IX+127],E         ; AB30 DD CB 7F 33
11685   AB34 DD CB 80 34         sll  [ix+-128],h        ; AB34 DD CB 80 34
11686   AB38 DD CB 80 34         SLL  [IX+-128],H        ; AB38 DD CB 80 34
11687   AB3C DD CB FF 34         sll  [ix+-1],h          ; AB3C DD CB FF 34
11688   AB40 DD CB FF 34         SLL  [IX+-1],H          ; AB40 DD CB FF 34
11689   AB44 DD CB 00 34         sll  [ix+0],h           ; AB44 DD CB 00 34
11690   AB48 DD CB 00 34         SLL  [IX+0],H           ; AB48 DD CB 00 34
11691   AB4C DD CB 7F 34         sll  [ix+127],h         ; AB4C DD CB 7F 34
11692   AB50 DD CB 7F 34         SLL  [IX+127],H         ; AB50 DD CB 7F 34
11693   AB54 DD CB 80 35         sll  [ix+-128],l        ; AB54 DD CB 80 35
11694   AB58 DD CB 80 35         SLL  [IX+-128],L        ; AB58 DD CB 80 35
11695   AB5C DD CB FF 35         sll  [ix+-1],l          ; AB5C DD CB FF 35
11696   AB60 DD CB FF 35         SLL  [IX+-1],L          ; AB60 DD CB FF 35
11697   AB64 DD CB 00 35         sll  [ix+0],l           ; AB64 DD CB 00 35
11698   AB68 DD CB 00 35         SLL  [IX+0],L           ; AB68 DD CB 00 35
11699   AB6C DD CB 7F 35         sll  [ix+127],l         ; AB6C DD CB 7F 35
11700   AB70 DD CB 7F 35         SLL  [IX+127],L         ; AB70 DD CB 7F 35
11701   AB74 FD CB 80 36         sll  [iy+-128]          ; AB74 FD CB 80 36
11702   AB78 FD CB 80 36         SLL  [IY+-128]          ; AB78 FD CB 80 36
11703   AB7C FD CB FF 36         sll  [iy+-1]            ; AB7C FD CB FF 36
11704   AB80 FD CB FF 36         SLL  [IY+-1]            ; AB80 FD CB FF 36
11705   AB84 FD CB 00 36         sll  [iy+0]             ; AB84 FD CB 00 36
11706   AB88 FD CB 00 36         SLL  [IY+0]             ; AB88 FD CB 00 36
11707   AB8C FD CB 7F 36         sll  [iy+127]           ; AB8C FD CB 7F 36
11708   AB90 FD CB 7F 36         SLL  [IY+127]           ; AB90 FD CB 7F 36
11709   AB94 FD CB 80 37         sll  [iy+-128],a        ; AB94 FD CB 80 37
11710   AB98 FD CB 80 37         SLL  [IY+-128],A        ; AB98 FD CB 80 37
11711   AB9C FD CB FF 37         sll  [iy+-1],a          ; AB9C FD CB FF 37
11712   ABA0 FD CB FF 37         SLL  [IY+-1],A          ; ABA0 FD CB FF 37
11713   ABA4 FD CB 00 37         sll  [iy+0],a           ; ABA4 FD CB 00 37
11714   ABA8 FD CB 00 37         SLL  [IY+0],A           ; ABA8 FD CB 00 37
11715   ABAC FD CB 7F 37         sll  [iy+127],a         ; ABAC FD CB 7F 37
11716   ABB0 FD CB 7F 37         SLL  [IY+127],A         ; ABB0 FD CB 7F 37
11717   ABB4 FD CB 80 30         sll  [iy+-128],b        ; ABB4 FD CB 80 30
11718   ABB8 FD CB 80 30         SLL  [IY+-128],B        ; ABB8 FD CB 80 30
11719   ABBC FD CB FF 30         sll  [iy+-1],b          ; ABBC FD CB FF 30
11720   ABC0 FD CB FF 30         SLL  [IY+-1],B          ; ABC0 FD CB FF 30
11721   ABC4 FD CB 00 30         sll  [iy+0],b           ; ABC4 FD CB 00 30
11722   ABC8 FD CB 00 30         SLL  [IY+0],B           ; ABC8 FD CB 00 30
11723   ABCC FD CB 7F 30         sll  [iy+127],b         ; ABCC FD CB 7F 30
11724   ABD0 FD CB 7F 30         SLL  [IY+127],B         ; ABD0 FD CB 7F 30
11725   ABD4 FD CB 80 31         sll  [iy+-128],c        ; ABD4 FD CB 80 31
11726   ABD8 FD CB 80 31         SLL  [IY+-128],C        ; ABD8 FD CB 80 31
11727   ABDC FD CB FF 31         sll  [iy+-1],c          ; ABDC FD CB FF 31
11728   ABE0 FD CB FF 31         SLL  [IY+-1],C          ; ABE0 FD CB FF 31
11729   ABE4 FD CB 00 31         sll  [iy+0],c           ; ABE4 FD CB 00 31
11730   ABE8 FD CB 00 31         SLL  [IY+0],C           ; ABE8 FD CB 00 31
11731   ABEC FD CB 7F 31         sll  [iy+127],c         ; ABEC FD CB 7F 31
11732   ABF0 FD CB 7F 31         SLL  [IY+127],C         ; ABF0 FD CB 7F 31
11733   ABF4 FD CB 80 32         sll  [iy+-128],d        ; ABF4 FD CB 80 32
11734   ABF8 FD CB 80 32         SLL  [IY+-128],D        ; ABF8 FD CB 80 32
11735   ABFC FD CB FF 32         sll  [iy+-1],d          ; ABFC FD CB FF 32
11736   AC00 FD CB FF 32         SLL  [IY+-1],D          ; AC00 FD CB FF 32
11737   AC04 FD CB 00 32         sll  [iy+0],d           ; AC04 FD CB 00 32
11738   AC08 FD CB 00 32         SLL  [IY+0],D           ; AC08 FD CB 00 32
11739   AC0C FD CB 7F 32         sll  [iy+127],d         ; AC0C FD CB 7F 32
11740   AC10 FD CB 7F 32         SLL  [IY+127],D         ; AC10 FD CB 7F 32
11741   AC14 FD CB 80 33         sll  [iy+-128],e        ; AC14 FD CB 80 33
11742   AC18 FD CB 80 33         SLL  [IY+-128],E        ; AC18 FD CB 80 33
11743   AC1C FD CB FF 33         sll  [iy+-1],e          ; AC1C FD CB FF 33
11744   AC20 FD CB FF 33         SLL  [IY+-1],E          ; AC20 FD CB FF 33
11745   AC24 FD CB 00 33         sll  [iy+0],e           ; AC24 FD CB 00 33
11746   AC28 FD CB 00 33         SLL  [IY+0],E           ; AC28 FD CB 00 33
11747   AC2C FD CB 7F 33         sll  [iy+127],e         ; AC2C FD CB 7F 33
11748   AC30 FD CB 7F 33         SLL  [IY+127],E         ; AC30 FD CB 7F 33
11749   AC34 FD CB 80 34         sll  [iy+-128],h        ; AC34 FD CB 80 34
11750   AC38 FD CB 80 34         SLL  [IY+-128],H        ; AC38 FD CB 80 34
11751   AC3C FD CB FF 34         sll  [iy+-1],h          ; AC3C FD CB FF 34
11752   AC40 FD CB FF 34         SLL  [IY+-1],H          ; AC40 FD CB FF 34
11753   AC44 FD CB 00 34         sll  [iy+0],h           ; AC44 FD CB 00 34
11754   AC48 FD CB 00 34         SLL  [IY+0],H           ; AC48 FD CB 00 34
11755   AC4C FD CB 7F 34         sll  [iy+127],h         ; AC4C FD CB 7F 34
11756   AC50 FD CB 7F 34         SLL  [IY+127],H         ; AC50 FD CB 7F 34
11757   AC54 FD CB 80 35         sll  [iy+-128],l        ; AC54 FD CB 80 35
11758   AC58 FD CB 80 35         SLL  [IY+-128],L        ; AC58 FD CB 80 35
11759   AC5C FD CB FF 35         sll  [iy+-1],l          ; AC5C FD CB FF 35
11760   AC60 FD CB FF 35         SLL  [IY+-1],L          ; AC60 FD CB FF 35
11761   AC64 FD CB 00 35         sll  [iy+0],l           ; AC64 FD CB 00 35
11762   AC68 FD CB 00 35         SLL  [IY+0],L           ; AC68 FD CB 00 35
11763   AC6C FD CB 7F 35         sll  [iy+127],l         ; AC6C FD CB 7F 35
11764   AC70 FD CB 7F 35         SLL  [IY+127],L         ; AC70 FD CB 7F 35
11765   AC74 CB 37               sll  a                  ; AC74 CB 37
11766   AC76 CB 37               SLL  A                  ; AC76 CB 37
11767   AC78 CB 30               sll  b                  ; AC78 CB 30
11768   AC7A CB 30               SLL  B                  ; AC7A CB 30
11769   AC7C CB 31 CB 10         sll  bc                 ; AC7C CB 31 CB 10
11770   AC80 CB 31 CB 10         SLL  BC                 ; AC80 CB 31 CB 10
11771   AC84 CB 31               sll  c                  ; AC84 CB 31
11772   AC86 CB 31               SLL  C                  ; AC86 CB 31
11773   AC88 CB 32               sll  d                  ; AC88 CB 32
11774   AC8A CB 32               SLL  D                  ; AC8A CB 32
11775   AC8C CB 33 CB 12         sll  de                 ; AC8C CB 33 CB 12
11776   AC90 CB 33 CB 12         SLL  DE                 ; AC90 CB 33 CB 12
11777   AC94 CB 33               sll  e                  ; AC94 CB 33
11778   AC96 CB 33               SLL  E                  ; AC96 CB 33
11779   AC98 CB 34               sll  h                  ; AC98 CB 34
11780   AC9A CB 34               SLL  H                  ; AC9A CB 34
11781   AC9C CB 35 CB 14         sll  hl                 ; AC9C CB 35 CB 14
11782   ACA0 CB 35 CB 14         SLL  HL                 ; ACA0 CB 35 CB 14
11783   ACA4 CB 35               sll  l                  ; ACA4 CB 35
11784   ACA6 CB 35               SLL  L                  ; ACA6 CB 35
11785   ACA8 CB 2E               sra  (hl)               ; ACA8 CB 2E
11786   ACAA CB 2E               SRA  (HL)               ; ACAA CB 2E
11787   ACAC DD CB 80 2E         sra  (ix+-128)          ; ACAC DD CB 80 2E
11788   ACB0 DD CB 80 2E         SRA  (IX+-128)          ; ACB0 DD CB 80 2E
11789   ACB4 DD CB FF 2E         sra  (ix+-1)            ; ACB4 DD CB FF 2E
11790   ACB8 DD CB FF 2E         SRA  (IX+-1)            ; ACB8 DD CB FF 2E
11791   ACBC DD CB 00 2E         sra  (ix+0)             ; ACBC DD CB 00 2E
11792   ACC0 DD CB 00 2E         SRA  (IX+0)             ; ACC0 DD CB 00 2E
11793   ACC4 DD CB 7F 2E         sra  (ix+127)           ; ACC4 DD CB 7F 2E
11794   ACC8 DD CB 7F 2E         SRA  (IX+127)           ; ACC8 DD CB 7F 2E
11795   ACCC DD CB 80 2F         sra  (ix+-128),a        ; ACCC DD CB 80 2F
11796   ACD0 DD CB 80 2F         SRA  (IX+-128),A        ; ACD0 DD CB 80 2F
11797   ACD4 DD CB FF 2F         sra  (ix+-1),a          ; ACD4 DD CB FF 2F
11798   ACD8 DD CB FF 2F         SRA  (IX+-1),A          ; ACD8 DD CB FF 2F
11799   ACDC DD CB 00 2F         sra  (ix+0),a           ; ACDC DD CB 00 2F
11800   ACE0 DD CB 00 2F         SRA  (IX+0),A           ; ACE0 DD CB 00 2F
11801   ACE4 DD CB 7F 2F         sra  (ix+127),a         ; ACE4 DD CB 7F 2F
11802   ACE8 DD CB 7F 2F         SRA  (IX+127),A         ; ACE8 DD CB 7F 2F
11803   ACEC DD CB 80 28         sra  (ix+-128),b        ; ACEC DD CB 80 28
11804   ACF0 DD CB 80 28         SRA  (IX+-128),B        ; ACF0 DD CB 80 28
11805   ACF4 DD CB FF 28         sra  (ix+-1),b          ; ACF4 DD CB FF 28
11806   ACF8 DD CB FF 28         SRA  (IX+-1),B          ; ACF8 DD CB FF 28
11807   ACFC DD CB 00 28         sra  (ix+0),b           ; ACFC DD CB 00 28
11808   AD00 DD CB 00 28         SRA  (IX+0),B           ; AD00 DD CB 00 28
11809   AD04 DD CB 7F 28         sra  (ix+127),b         ; AD04 DD CB 7F 28
11810   AD08 DD CB 7F 28         SRA  (IX+127),B         ; AD08 DD CB 7F 28
11811   AD0C DD CB 80 29         sra  (ix+-128),c        ; AD0C DD CB 80 29
11812   AD10 DD CB 80 29         SRA  (IX+-128),C        ; AD10 DD CB 80 29
11813   AD14 DD CB FF 29         sra  (ix+-1),c          ; AD14 DD CB FF 29
11814   AD18 DD CB FF 29         SRA  (IX+-1),C          ; AD18 DD CB FF 29
11815   AD1C DD CB 00 29         sra  (ix+0),c           ; AD1C DD CB 00 29
11816   AD20 DD CB 00 29         SRA  (IX+0),C           ; AD20 DD CB 00 29
11817   AD24 DD CB 7F 29         sra  (ix+127),c         ; AD24 DD CB 7F 29
11818   AD28 DD CB 7F 29         SRA  (IX+127),C         ; AD28 DD CB 7F 29
11819   AD2C DD CB 80 2A         sra  (ix+-128),d        ; AD2C DD CB 80 2A
11820   AD30 DD CB 80 2A         SRA  (IX+-128),D        ; AD30 DD CB 80 2A
11821   AD34 DD CB FF 2A         sra  (ix+-1),d          ; AD34 DD CB FF 2A
11822   AD38 DD CB FF 2A         SRA  (IX+-1),D          ; AD38 DD CB FF 2A
11823   AD3C DD CB 00 2A         sra  (ix+0),d           ; AD3C DD CB 00 2A
11824   AD40 DD CB 00 2A         SRA  (IX+0),D           ; AD40 DD CB 00 2A
11825   AD44 DD CB 7F 2A         sra  (ix+127),d         ; AD44 DD CB 7F 2A
11826   AD48 DD CB 7F 2A         SRA  (IX+127),D         ; AD48 DD CB 7F 2A
11827   AD4C DD CB 80 2B         sra  (ix+-128),e        ; AD4C DD CB 80 2B
11828   AD50 DD CB 80 2B         SRA  (IX+-128),E        ; AD50 DD CB 80 2B
11829   AD54 DD CB FF 2B         sra  (ix+-1),e          ; AD54 DD CB FF 2B
11830   AD58 DD CB FF 2B         SRA  (IX+-1),E          ; AD58 DD CB FF 2B
11831   AD5C DD CB 00 2B         sra  (ix+0),e           ; AD5C DD CB 00 2B
11832   AD60 DD CB 00 2B         SRA  (IX+0),E           ; AD60 DD CB 00 2B
11833   AD64 DD CB 7F 2B         sra  (ix+127),e         ; AD64 DD CB 7F 2B
11834   AD68 DD CB 7F 2B         SRA  (IX+127),E         ; AD68 DD CB 7F 2B
11835   AD6C DD CB 80 2C         sra  (ix+-128),h        ; AD6C DD CB 80 2C
11836   AD70 DD CB 80 2C         SRA  (IX+-128),H        ; AD70 DD CB 80 2C
11837   AD74 DD CB FF 2C         sra  (ix+-1),h          ; AD74 DD CB FF 2C
11838   AD78 DD CB FF 2C         SRA  (IX+-1),H          ; AD78 DD CB FF 2C
11839   AD7C DD CB 00 2C         sra  (ix+0),h           ; AD7C DD CB 00 2C
11840   AD80 DD CB 00 2C         SRA  (IX+0),H           ; AD80 DD CB 00 2C
11841   AD84 DD CB 7F 2C         sra  (ix+127),h         ; AD84 DD CB 7F 2C
11842   AD88 DD CB 7F 2C         SRA  (IX+127),H         ; AD88 DD CB 7F 2C
11843   AD8C DD CB 80 2D         sra  (ix+-128),l        ; AD8C DD CB 80 2D
11844   AD90 DD CB 80 2D         SRA  (IX+-128),L        ; AD90 DD CB 80 2D
11845   AD94 DD CB FF 2D         sra  (ix+-1),l          ; AD94 DD CB FF 2D
11846   AD98 DD CB FF 2D         SRA  (IX+-1),L          ; AD98 DD CB FF 2D
11847   AD9C DD CB 00 2D         sra  (ix+0),l           ; AD9C DD CB 00 2D
11848   ADA0 DD CB 00 2D         SRA  (IX+0),L           ; ADA0 DD CB 00 2D
11849   ADA4 DD CB 7F 2D         sra  (ix+127),l         ; ADA4 DD CB 7F 2D
11850   ADA8 DD CB 7F 2D         SRA  (IX+127),L         ; ADA8 DD CB 7F 2D
11851   ADAC FD CB 80 2E         sra  (iy+-128)          ; ADAC FD CB 80 2E
11852   ADB0 FD CB 80 2E         SRA  (IY+-128)          ; ADB0 FD CB 80 2E
11853   ADB4 FD CB FF 2E         sra  (iy+-1)            ; ADB4 FD CB FF 2E
11854   ADB8 FD CB FF 2E         SRA  (IY+-1)            ; ADB8 FD CB FF 2E
11855   ADBC FD CB 00 2E         sra  (iy+0)             ; ADBC FD CB 00 2E
11856   ADC0 FD CB 00 2E         SRA  (IY+0)             ; ADC0 FD CB 00 2E
11857   ADC4 FD CB 7F 2E         sra  (iy+127)           ; ADC4 FD CB 7F 2E
11858   ADC8 FD CB 7F 2E         SRA  (IY+127)           ; ADC8 FD CB 7F 2E
11859   ADCC FD CB 80 2F         sra  (iy+-128),a        ; ADCC FD CB 80 2F
11860   ADD0 FD CB 80 2F         SRA  (IY+-128),A        ; ADD0 FD CB 80 2F
11861   ADD4 FD CB FF 2F         sra  (iy+-1),a          ; ADD4 FD CB FF 2F
11862   ADD8 FD CB FF 2F         SRA  (IY+-1),A          ; ADD8 FD CB FF 2F
11863   ADDC FD CB 00 2F         sra  (iy+0),a           ; ADDC FD CB 00 2F
11864   ADE0 FD CB 00 2F         SRA  (IY+0),A           ; ADE0 FD CB 00 2F
11865   ADE4 FD CB 7F 2F         sra  (iy+127),a         ; ADE4 FD CB 7F 2F
11866   ADE8 FD CB 7F 2F         SRA  (IY+127),A         ; ADE8 FD CB 7F 2F
11867   ADEC FD CB 80 28         sra  (iy+-128),b        ; ADEC FD CB 80 28
11868   ADF0 FD CB 80 28         SRA  (IY+-128),B        ; ADF0 FD CB 80 28
11869   ADF4 FD CB FF 28         sra  (iy+-1),b          ; ADF4 FD CB FF 28
11870   ADF8 FD CB FF 28         SRA  (IY+-1),B          ; ADF8 FD CB FF 28
11871   ADFC FD CB 00 28         sra  (iy+0),b           ; ADFC FD CB 00 28
11872   AE00 FD CB 00 28         SRA  (IY+0),B           ; AE00 FD CB 00 28
11873   AE04 FD CB 7F 28         sra  (iy+127),b         ; AE04 FD CB 7F 28
11874   AE08 FD CB 7F 28         SRA  (IY+127),B         ; AE08 FD CB 7F 28
11875   AE0C FD CB 80 29         sra  (iy+-128),c        ; AE0C FD CB 80 29
11876   AE10 FD CB 80 29         SRA  (IY+-128),C        ; AE10 FD CB 80 29
11877   AE14 FD CB FF 29         sra  (iy+-1),c          ; AE14 FD CB FF 29
11878   AE18 FD CB FF 29         SRA  (IY+-1),C          ; AE18 FD CB FF 29
11879   AE1C FD CB 00 29         sra  (iy+0),c           ; AE1C FD CB 00 29
11880   AE20 FD CB 00 29         SRA  (IY+0),C           ; AE20 FD CB 00 29
11881   AE24 FD CB 7F 29         sra  (iy+127),c         ; AE24 FD CB 7F 29
11882   AE28 FD CB 7F 29         SRA  (IY+127),C         ; AE28 FD CB 7F 29
11883   AE2C FD CB 80 2A         sra  (iy+-128),d        ; AE2C FD CB 80 2A
11884   AE30 FD CB 80 2A         SRA  (IY+-128),D        ; AE30 FD CB 80 2A
11885   AE34 FD CB FF 2A         sra  (iy+-1),d          ; AE34 FD CB FF 2A
11886   AE38 FD CB FF 2A         SRA  (IY+-1),D          ; AE38 FD CB FF 2A
11887   AE3C FD CB 00 2A         sra  (iy+0),d           ; AE3C FD CB 00 2A
11888   AE40 FD CB 00 2A         SRA  (IY+0),D           ; AE40 FD CB 00 2A
11889   AE44 FD CB 7F 2A         sra  (iy+127),d         ; AE44 FD CB 7F 2A
11890   AE48 FD CB 7F 2A         SRA  (IY+127),D         ; AE48 FD CB 7F 2A
11891   AE4C FD CB 80 2B         sra  (iy+-128),e        ; AE4C FD CB 80 2B
11892   AE50 FD CB 80 2B         SRA  (IY+-128),E        ; AE50 FD CB 80 2B
11893   AE54 FD CB FF 2B         sra  (iy+-1),e          ; AE54 FD CB FF 2B
11894   AE58 FD CB FF 2B         SRA  (IY+-1),E          ; AE58 FD CB FF 2B
11895   AE5C FD CB 00 2B         sra  (iy+0),e           ; AE5C FD CB 00 2B
11896   AE60 FD CB 00 2B         SRA  (IY+0),E           ; AE60 FD CB 00 2B
11897   AE64 FD CB 7F 2B         sra  (iy+127),e         ; AE64 FD CB 7F 2B
11898   AE68 FD CB 7F 2B         SRA  (IY+127),E         ; AE68 FD CB 7F 2B
11899   AE6C FD CB 80 2C         sra  (iy+-128),h        ; AE6C FD CB 80 2C
11900   AE70 FD CB 80 2C         SRA  (IY+-128),H        ; AE70 FD CB 80 2C
11901   AE74 FD CB FF 2C         sra  (iy+-1),h          ; AE74 FD CB FF 2C
11902   AE78 FD CB FF 2C         SRA  (IY+-1),H          ; AE78 FD CB FF 2C
11903   AE7C FD CB 00 2C         sra  (iy+0),h           ; AE7C FD CB 00 2C
11904   AE80 FD CB 00 2C         SRA  (IY+0),H           ; AE80 FD CB 00 2C
11905   AE84 FD CB 7F 2C         sra  (iy+127),h         ; AE84 FD CB 7F 2C
11906   AE88 FD CB 7F 2C         SRA  (IY+127),H         ; AE88 FD CB 7F 2C
11907   AE8C FD CB 80 2D         sra  (iy+-128),l        ; AE8C FD CB 80 2D
11908   AE90 FD CB 80 2D         SRA  (IY+-128),L        ; AE90 FD CB 80 2D
11909   AE94 FD CB FF 2D         sra  (iy+-1),l          ; AE94 FD CB FF 2D
11910   AE98 FD CB FF 2D         SRA  (IY+-1),L          ; AE98 FD CB FF 2D
11911   AE9C FD CB 00 2D         sra  (iy+0),l           ; AE9C FD CB 00 2D
11912   AEA0 FD CB 00 2D         SRA  (IY+0),L           ; AEA0 FD CB 00 2D
11913   AEA4 FD CB 7F 2D         sra  (iy+127),l         ; AEA4 FD CB 7F 2D
11914   AEA8 FD CB 7F 2D         SRA  (IY+127),L         ; AEA8 FD CB 7F 2D
11915   AEAC CB 2E               sra  [hl]               ; AEAC CB 2E
11916   AEAE CB 2E               SRA  [HL]               ; AEAE CB 2E
11917   AEB0 DD CB 80 2E         sra  [ix+-128]          ; AEB0 DD CB 80 2E
11918   AEB4 DD CB 80 2E         SRA  [IX+-128]          ; AEB4 DD CB 80 2E
11919   AEB8 DD CB FF 2E         sra  [ix+-1]            ; AEB8 DD CB FF 2E
11920   AEBC DD CB FF 2E         SRA  [IX+-1]            ; AEBC DD CB FF 2E
11921   AEC0 DD CB 00 2E         sra  [ix+0]             ; AEC0 DD CB 00 2E
11922   AEC4 DD CB 00 2E         SRA  [IX+0]             ; AEC4 DD CB 00 2E
11923   AEC8 DD CB 7F 2E         sra  [ix+127]           ; AEC8 DD CB 7F 2E
11924   AECC DD CB 7F 2E         SRA  [IX+127]           ; AECC DD CB 7F 2E
11925   AED0 DD CB 80 2F         sra  [ix+-128],a        ; AED0 DD CB 80 2F
11926   AED4 DD CB 80 2F         SRA  [IX+-128],A        ; AED4 DD CB 80 2F
11927   AED8 DD CB FF 2F         sra  [ix+-1],a          ; AED8 DD CB FF 2F
11928   AEDC DD CB FF 2F         SRA  [IX+-1],A          ; AEDC DD CB FF 2F
11929   AEE0 DD CB 00 2F         sra  [ix+0],a           ; AEE0 DD CB 00 2F
11930   AEE4 DD CB 00 2F         SRA  [IX+0],A           ; AEE4 DD CB 00 2F
11931   AEE8 DD CB 7F 2F         sra  [ix+127],a         ; AEE8 DD CB 7F 2F
11932   AEEC DD CB 7F 2F         SRA  [IX+127],A         ; AEEC DD CB 7F 2F
11933   AEF0 DD CB 80 28         sra  [ix+-128],b        ; AEF0 DD CB 80 28
11934   AEF4 DD CB 80 28         SRA  [IX+-128],B        ; AEF4 DD CB 80 28
11935   AEF8 DD CB FF 28         sra  [ix+-1],b          ; AEF8 DD CB FF 28
11936   AEFC DD CB FF 28         SRA  [IX+-1],B          ; AEFC DD CB FF 28
11937   AF00 DD CB 00 28         sra  [ix+0],b           ; AF00 DD CB 00 28
11938   AF04 DD CB 00 28         SRA  [IX+0],B           ; AF04 DD CB 00 28
11939   AF08 DD CB 7F 28         sra  [ix+127],b         ; AF08 DD CB 7F 28
11940   AF0C DD CB 7F 28         SRA  [IX+127],B         ; AF0C DD CB 7F 28
11941   AF10 DD CB 80 29         sra  [ix+-128],c        ; AF10 DD CB 80 29
11942   AF14 DD CB 80 29         SRA  [IX+-128],C        ; AF14 DD CB 80 29
11943   AF18 DD CB FF 29         sra  [ix+-1],c          ; AF18 DD CB FF 29
11944   AF1C DD CB FF 29         SRA  [IX+-1],C          ; AF1C DD CB FF 29
11945   AF20 DD CB 00 29         sra  [ix+0],c           ; AF20 DD CB 00 29
11946   AF24 DD CB 00 29         SRA  [IX+0],C           ; AF24 DD CB 00 29
11947   AF28 DD CB 7F 29         sra  [ix+127],c         ; AF28 DD CB 7F 29
11948   AF2C DD CB 7F 29         SRA  [IX+127],C         ; AF2C DD CB 7F 29
11949   AF30 DD CB 80 2A         sra  [ix+-128],d        ; AF30 DD CB 80 2A
11950   AF34 DD CB 80 2A         SRA  [IX+-128],D        ; AF34 DD CB 80 2A
11951   AF38 DD CB FF 2A         sra  [ix+-1],d          ; AF38 DD CB FF 2A
11952   AF3C DD CB FF 2A         SRA  [IX+-1],D          ; AF3C DD CB FF 2A
11953   AF40 DD CB 00 2A         sra  [ix+0],d           ; AF40 DD CB 00 2A
11954   AF44 DD CB 00 2A         SRA  [IX+0],D           ; AF44 DD CB 00 2A
11955   AF48 DD CB 7F 2A         sra  [ix+127],d         ; AF48 DD CB 7F 2A
11956   AF4C DD CB 7F 2A         SRA  [IX+127],D         ; AF4C DD CB 7F 2A
11957   AF50 DD CB 80 2B         sra  [ix+-128],e        ; AF50 DD CB 80 2B
11958   AF54 DD CB 80 2B         SRA  [IX+-128],E        ; AF54 DD CB 80 2B
11959   AF58 DD CB FF 2B         sra  [ix+-1],e          ; AF58 DD CB FF 2B
11960   AF5C DD CB FF 2B         SRA  [IX+-1],E          ; AF5C DD CB FF 2B
11961   AF60 DD CB 00 2B         sra  [ix+0],e           ; AF60 DD CB 00 2B
11962   AF64 DD CB 00 2B         SRA  [IX+0],E           ; AF64 DD CB 00 2B
11963   AF68 DD CB 7F 2B         sra  [ix+127],e         ; AF68 DD CB 7F 2B
11964   AF6C DD CB 7F 2B         SRA  [IX+127],E         ; AF6C DD CB 7F 2B
11965   AF70 DD CB 80 2C         sra  [ix+-128],h        ; AF70 DD CB 80 2C
11966   AF74 DD CB 80 2C         SRA  [IX+-128],H        ; AF74 DD CB 80 2C
11967   AF78 DD CB FF 2C         sra  [ix+-1],h          ; AF78 DD CB FF 2C
11968   AF7C DD CB FF 2C         SRA  [IX+-1],H          ; AF7C DD CB FF 2C
11969   AF80 DD CB 00 2C         sra  [ix+0],h           ; AF80 DD CB 00 2C
11970   AF84 DD CB 00 2C         SRA  [IX+0],H           ; AF84 DD CB 00 2C
11971   AF88 DD CB 7F 2C         sra  [ix+127],h         ; AF88 DD CB 7F 2C
11972   AF8C DD CB 7F 2C         SRA  [IX+127],H         ; AF8C DD CB 7F 2C
11973   AF90 DD CB 80 2D         sra  [ix+-128],l        ; AF90 DD CB 80 2D
11974   AF94 DD CB 80 2D         SRA  [IX+-128],L        ; AF94 DD CB 80 2D
11975   AF98 DD CB FF 2D         sra  [ix+-1],l          ; AF98 DD CB FF 2D
11976   AF9C DD CB FF 2D         SRA  [IX+-1],L          ; AF9C DD CB FF 2D
11977   AFA0 DD CB 00 2D         sra  [ix+0],l           ; AFA0 DD CB 00 2D
11978   AFA4 DD CB 00 2D         SRA  [IX+0],L           ; AFA4 DD CB 00 2D
11979   AFA8 DD CB 7F 2D         sra  [ix+127],l         ; AFA8 DD CB 7F 2D
11980   AFAC DD CB 7F 2D         SRA  [IX+127],L         ; AFAC DD CB 7F 2D
11981   AFB0 FD CB 80 2E         sra  [iy+-128]          ; AFB0 FD CB 80 2E
11982   AFB4 FD CB 80 2E         SRA  [IY+-128]          ; AFB4 FD CB 80 2E
11983   AFB8 FD CB FF 2E         sra  [iy+-1]            ; AFB8 FD CB FF 2E
11984   AFBC FD CB FF 2E         SRA  [IY+-1]            ; AFBC FD CB FF 2E
11985   AFC0 FD CB 00 2E         sra  [iy+0]             ; AFC0 FD CB 00 2E
11986   AFC4 FD CB 00 2E         SRA  [IY+0]             ; AFC4 FD CB 00 2E
11987   AFC8 FD CB 7F 2E         sra  [iy+127]           ; AFC8 FD CB 7F 2E
11988   AFCC FD CB 7F 2E         SRA  [IY+127]           ; AFCC FD CB 7F 2E
11989   AFD0 FD CB 80 2F         sra  [iy+-128],a        ; AFD0 FD CB 80 2F
11990   AFD4 FD CB 80 2F         SRA  [IY+-128],A        ; AFD4 FD CB 80 2F
11991   AFD8 FD CB FF 2F         sra  [iy+-1],a          ; AFD8 FD CB FF 2F
11992   AFDC FD CB FF 2F         SRA  [IY+-1],A          ; AFDC FD CB FF 2F
11993   AFE0 FD CB 00 2F         sra  [iy+0],a           ; AFE0 FD CB 00 2F
11994   AFE4 FD CB 00 2F         SRA  [IY+0],A           ; AFE4 FD CB 00 2F
11995   AFE8 FD CB 7F 2F         sra  [iy+127],a         ; AFE8 FD CB 7F 2F
11996   AFEC FD CB 7F 2F         SRA  [IY+127],A         ; AFEC FD CB 7F 2F
11997   AFF0 FD CB 80 28         sra  [iy+-128],b        ; AFF0 FD CB 80 28
11998   AFF4 FD CB 80 28         SRA  [IY+-128],B        ; AFF4 FD CB 80 28
11999   AFF8 FD CB FF 28         sra  [iy+-1],b          ; AFF8 FD CB FF 28
12000   AFFC FD CB FF 28         SRA  [IY+-1],B          ; AFFC FD CB FF 28
12001   B000 FD CB 00 28         sra  [iy+0],b           ; B000 FD CB 00 28
12002   B004 FD CB 00 28         SRA  [IY+0],B           ; B004 FD CB 00 28
12003   B008 FD CB 7F 28         sra  [iy+127],b         ; B008 FD CB 7F 28
12004   B00C FD CB 7F 28         SRA  [IY+127],B         ; B00C FD CB 7F 28
12005   B010 FD CB 80 29         sra  [iy+-128],c        ; B010 FD CB 80 29
12006   B014 FD CB 80 29         SRA  [IY+-128],C        ; B014 FD CB 80 29
12007   B018 FD CB FF 29         sra  [iy+-1],c          ; B018 FD CB FF 29
12008   B01C FD CB FF 29         SRA  [IY+-1],C          ; B01C FD CB FF 29
12009   B020 FD CB 00 29         sra  [iy+0],c           ; B020 FD CB 00 29
12010   B024 FD CB 00 29         SRA  [IY+0],C           ; B024 FD CB 00 29
12011   B028 FD CB 7F 29         sra  [iy+127],c         ; B028 FD CB 7F 29
12012   B02C FD CB 7F 29         SRA  [IY+127],C         ; B02C FD CB 7F 29
12013   B030 FD CB 80 2A         sra  [iy+-128],d        ; B030 FD CB 80 2A
12014   B034 FD CB 80 2A         SRA  [IY+-128],D        ; B034 FD CB 80 2A
12015   B038 FD CB FF 2A         sra  [iy+-1],d          ; B038 FD CB FF 2A
12016   B03C FD CB FF 2A         SRA  [IY+-1],D          ; B03C FD CB FF 2A
12017   B040 FD CB 00 2A         sra  [iy+0],d           ; B040 FD CB 00 2A
12018   B044 FD CB 00 2A         SRA  [IY+0],D           ; B044 FD CB 00 2A
12019   B048 FD CB 7F 2A         sra  [iy+127],d         ; B048 FD CB 7F 2A
12020   B04C FD CB 7F 2A         SRA  [IY+127],D         ; B04C FD CB 7F 2A
12021   B050 FD CB 80 2B         sra  [iy+-128],e        ; B050 FD CB 80 2B
12022   B054 FD CB 80 2B         SRA  [IY+-128],E        ; B054 FD CB 80 2B
12023   B058 FD CB FF 2B         sra  [iy+-1],e          ; B058 FD CB FF 2B
12024   B05C FD CB FF 2B         SRA  [IY+-1],E          ; B05C FD CB FF 2B
12025   B060 FD CB 00 2B         sra  [iy+0],e           ; B060 FD CB 00 2B
12026   B064 FD CB 00 2B         SRA  [IY+0],E           ; B064 FD CB 00 2B
12027   B068 FD CB 7F 2B         sra  [iy+127],e         ; B068 FD CB 7F 2B
12028   B06C FD CB 7F 2B         SRA  [IY+127],E         ; B06C FD CB 7F 2B
12029   B070 FD CB 80 2C         sra  [iy+-128],h        ; B070 FD CB 80 2C
12030   B074 FD CB 80 2C         SRA  [IY+-128],H        ; B074 FD CB 80 2C
12031   B078 FD CB FF 2C         sra  [iy+-1],h          ; B078 FD CB FF 2C
12032   B07C FD CB FF 2C         SRA  [IY+-1],H          ; B07C FD CB FF 2C
12033   B080 FD CB 00 2C         sra  [iy+0],h           ; B080 FD CB 00 2C
12034   B084 FD CB 00 2C         SRA  [IY+0],H           ; B084 FD CB 00 2C
12035   B088 FD CB 7F 2C         sra  [iy+127],h         ; B088 FD CB 7F 2C
12036   B08C FD CB 7F 2C         SRA  [IY+127],H         ; B08C FD CB 7F 2C
12037   B090 FD CB 80 2D         sra  [iy+-128],l        ; B090 FD CB 80 2D
12038   B094 FD CB 80 2D         SRA  [IY+-128],L        ; B094 FD CB 80 2D
12039   B098 FD CB FF 2D         sra  [iy+-1],l          ; B098 FD CB FF 2D
12040   B09C FD CB FF 2D         SRA  [IY+-1],L          ; B09C FD CB FF 2D
12041   B0A0 FD CB 00 2D         sra  [iy+0],l           ; B0A0 FD CB 00 2D
12042   B0A4 FD CB 00 2D         SRA  [IY+0],L           ; B0A4 FD CB 00 2D
12043   B0A8 FD CB 7F 2D         sra  [iy+127],l         ; B0A8 FD CB 7F 2D
12044   B0AC FD CB 7F 2D         SRA  [IY+127],L         ; B0AC FD CB 7F 2D
12045   B0B0 CB 2F               sra  a                  ; B0B0 CB 2F
12046   B0B2 CB 2F               SRA  A                  ; B0B2 CB 2F
12047   B0B4 CB 28               sra  b                  ; B0B4 CB 28
12048   B0B6 CB 28               SRA  B                  ; B0B6 CB 28
12049   B0B8 CB 28 CB 19         sra  bc                 ; B0B8 CB 28 CB 19
12050   B0BC CB 28 CB 19         SRA  BC                 ; B0BC CB 28 CB 19
12051   B0C0 CB 29               sra  c                  ; B0C0 CB 29
12052   B0C2 CB 29               SRA  C                  ; B0C2 CB 29
12053   B0C4 CB 2A               sra  d                  ; B0C4 CB 2A
12054   B0C6 CB 2A               SRA  D                  ; B0C6 CB 2A
12055   B0C8 CB 2A CB 1B         sra  de                 ; B0C8 CB 2A CB 1B
12056   B0CC CB 2A CB 1B         SRA  DE                 ; B0CC CB 2A CB 1B
12057   B0D0 CB 2B               sra  e                  ; B0D0 CB 2B
12058   B0D2 CB 2B               SRA  E                  ; B0D2 CB 2B
12059   B0D4 CB 2C               sra  h                  ; B0D4 CB 2C
12060   B0D6 CB 2C               SRA  H                  ; B0D6 CB 2C
12061   B0D8 CB 2C CB 1D         sra  hl                 ; B0D8 CB 2C CB 1D
12062   B0DC CB 2C CB 1D         SRA  HL                 ; B0DC CB 2C CB 1D
12063   B0E0 CB 2D               sra  l                  ; B0E0 CB 2D
12064   B0E2 CB 2D               SRA  L                  ; B0E2 CB 2D
12065   B0E4 CB 3E               srl  (hl)               ; B0E4 CB 3E
12066   B0E6 CB 3E               SRL  (HL)               ; B0E6 CB 3E
12067   B0E8 DD CB 80 3E         srl  (ix+-128)          ; B0E8 DD CB 80 3E
12068   B0EC DD CB 80 3E         SRL  (IX+-128)          ; B0EC DD CB 80 3E
12069   B0F0 DD CB FF 3E         srl  (ix+-1)            ; B0F0 DD CB FF 3E
12070   B0F4 DD CB FF 3E         SRL  (IX+-1)            ; B0F4 DD CB FF 3E
12071   B0F8 DD CB 00 3E         srl  (ix+0)             ; B0F8 DD CB 00 3E
12072   B0FC DD CB 00 3E         SRL  (IX+0)             ; B0FC DD CB 00 3E
12073   B100 DD CB 7F 3E         srl  (ix+127)           ; B100 DD CB 7F 3E
12074   B104 DD CB 7F 3E         SRL  (IX+127)           ; B104 DD CB 7F 3E
12075   B108 DD CB 80 3F         srl  (ix+-128),a        ; B108 DD CB 80 3F
12076   B10C DD CB 80 3F         SRL  (IX+-128),A        ; B10C DD CB 80 3F
12077   B110 DD CB FF 3F         srl  (ix+-1),a          ; B110 DD CB FF 3F
12078   B114 DD CB FF 3F         SRL  (IX+-1),A          ; B114 DD CB FF 3F
12079   B118 DD CB 00 3F         srl  (ix+0),a           ; B118 DD CB 00 3F
12080   B11C DD CB 00 3F         SRL  (IX+0),A           ; B11C DD CB 00 3F
12081   B120 DD CB 7F 3F         srl  (ix+127),a         ; B120 DD CB 7F 3F
12082   B124 DD CB 7F 3F         SRL  (IX+127),A         ; B124 DD CB 7F 3F
12083   B128 DD CB 80 38         srl  (ix+-128),b        ; B128 DD CB 80 38
12084   B12C DD CB 80 38         SRL  (IX+-128),B        ; B12C DD CB 80 38
12085   B130 DD CB FF 38         srl  (ix+-1),b          ; B130 DD CB FF 38
12086   B134 DD CB FF 38         SRL  (IX+-1),B          ; B134 DD CB FF 38
12087   B138 DD CB 00 38         srl  (ix+0),b           ; B138 DD CB 00 38
12088   B13C DD CB 00 38         SRL  (IX+0),B           ; B13C DD CB 00 38
12089   B140 DD CB 7F 38         srl  (ix+127),b         ; B140 DD CB 7F 38
12090   B144 DD CB 7F 38         SRL  (IX+127),B         ; B144 DD CB 7F 38
12091   B148 DD CB 80 39         srl  (ix+-128),c        ; B148 DD CB 80 39
12092   B14C DD CB 80 39         SRL  (IX+-128),C        ; B14C DD CB 80 39
12093   B150 DD CB FF 39         srl  (ix+-1),c          ; B150 DD CB FF 39
12094   B154 DD CB FF 39         SRL  (IX+-1),C          ; B154 DD CB FF 39
12095   B158 DD CB 00 39         srl  (ix+0),c           ; B158 DD CB 00 39
12096   B15C DD CB 00 39         SRL  (IX+0),C           ; B15C DD CB 00 39
12097   B160 DD CB 7F 39         srl  (ix+127),c         ; B160 DD CB 7F 39
12098   B164 DD CB 7F 39         SRL  (IX+127),C         ; B164 DD CB 7F 39
12099   B168 DD CB 80 3A         srl  (ix+-128),d        ; B168 DD CB 80 3A
12100   B16C DD CB 80 3A         SRL  (IX+-128),D        ; B16C DD CB 80 3A
12101   B170 DD CB FF 3A         srl  (ix+-1),d          ; B170 DD CB FF 3A
12102   B174 DD CB FF 3A         SRL  (IX+-1),D          ; B174 DD CB FF 3A
12103   B178 DD CB 00 3A         srl  (ix+0),d           ; B178 DD CB 00 3A
12104   B17C DD CB 00 3A         SRL  (IX+0),D           ; B17C DD CB 00 3A
12105   B180 DD CB 7F 3A         srl  (ix+127),d         ; B180 DD CB 7F 3A
12106   B184 DD CB 7F 3A         SRL  (IX+127),D         ; B184 DD CB 7F 3A
12107   B188 DD CB 80 3B         srl  (ix+-128),e        ; B188 DD CB 80 3B
12108   B18C DD CB 80 3B         SRL  (IX+-128),E        ; B18C DD CB 80 3B
12109   B190 DD CB FF 3B         srl  (ix+-1),e          ; B190 DD CB FF 3B
12110   B194 DD CB FF 3B         SRL  (IX+-1),E          ; B194 DD CB FF 3B
12111   B198 DD CB 00 3B         srl  (ix+0),e           ; B198 DD CB 00 3B
12112   B19C DD CB 00 3B         SRL  (IX+0),E           ; B19C DD CB 00 3B
12113   B1A0 DD CB 7F 3B         srl  (ix+127),e         ; B1A0 DD CB 7F 3B
12114   B1A4 DD CB 7F 3B         SRL  (IX+127),E         ; B1A4 DD CB 7F 3B
12115   B1A8 DD CB 80 3C         srl  (ix+-128),h        ; B1A8 DD CB 80 3C
12116   B1AC DD CB 80 3C         SRL  (IX+-128),H        ; B1AC DD CB 80 3C
12117   B1B0 DD CB FF 3C         srl  (ix+-1),h          ; B1B0 DD CB FF 3C
12118   B1B4 DD CB FF 3C         SRL  (IX+-1),H          ; B1B4 DD CB FF 3C
12119   B1B8 DD CB 00 3C         srl  (ix+0),h           ; B1B8 DD CB 00 3C
12120   B1BC DD CB 00 3C         SRL  (IX+0),H           ; B1BC DD CB 00 3C
12121   B1C0 DD CB 7F 3C         srl  (ix+127),h         ; B1C0 DD CB 7F 3C
12122   B1C4 DD CB 7F 3C         SRL  (IX+127),H         ; B1C4 DD CB 7F 3C
12123   B1C8 DD CB 80 3D         srl  (ix+-128),l        ; B1C8 DD CB 80 3D
12124   B1CC DD CB 80 3D         SRL  (IX+-128),L        ; B1CC DD CB 80 3D
12125   B1D0 DD CB FF 3D         srl  (ix+-1),l          ; B1D0 DD CB FF 3D
12126   B1D4 DD CB FF 3D         SRL  (IX+-1),L          ; B1D4 DD CB FF 3D
12127   B1D8 DD CB 00 3D         srl  (ix+0),l           ; B1D8 DD CB 00 3D
12128   B1DC DD CB 00 3D         SRL  (IX+0),L           ; B1DC DD CB 00 3D
12129   B1E0 DD CB 7F 3D         srl  (ix+127),l         ; B1E0 DD CB 7F 3D
12130   B1E4 DD CB 7F 3D         SRL  (IX+127),L         ; B1E4 DD CB 7F 3D
12131   B1E8 FD CB 80 3E         srl  (iy+-128)          ; B1E8 FD CB 80 3E
12132   B1EC FD CB 80 3E         SRL  (IY+-128)          ; B1EC FD CB 80 3E
12133   B1F0 FD CB FF 3E         srl  (iy+-1)            ; B1F0 FD CB FF 3E
12134   B1F4 FD CB FF 3E         SRL  (IY+-1)            ; B1F4 FD CB FF 3E
12135   B1F8 FD CB 00 3E         srl  (iy+0)             ; B1F8 FD CB 00 3E
12136   B1FC FD CB 00 3E         SRL  (IY+0)             ; B1FC FD CB 00 3E
12137   B200 FD CB 7F 3E         srl  (iy+127)           ; B200 FD CB 7F 3E
12138   B204 FD CB 7F 3E         SRL  (IY+127)           ; B204 FD CB 7F 3E
12139   B208 FD CB 80 3F         srl  (iy+-128),a        ; B208 FD CB 80 3F
12140   B20C FD CB 80 3F         SRL  (IY+-128),A        ; B20C FD CB 80 3F
12141   B210 FD CB FF 3F         srl  (iy+-1),a          ; B210 FD CB FF 3F
12142   B214 FD CB FF 3F         SRL  (IY+-1),A          ; B214 FD CB FF 3F
12143   B218 FD CB 00 3F         srl  (iy+0),a           ; B218 FD CB 00 3F
12144   B21C FD CB 00 3F         SRL  (IY+0),A           ; B21C FD CB 00 3F
12145   B220 FD CB 7F 3F         srl  (iy+127),a         ; B220 FD CB 7F 3F
12146   B224 FD CB 7F 3F         SRL  (IY+127),A         ; B224 FD CB 7F 3F
12147   B228 FD CB 80 38         srl  (iy+-128),b        ; B228 FD CB 80 38
12148   B22C FD CB 80 38         SRL  (IY+-128),B        ; B22C FD CB 80 38
12149   B230 FD CB FF 38         srl  (iy+-1),b          ; B230 FD CB FF 38
12150   B234 FD CB FF 38         SRL  (IY+-1),B          ; B234 FD CB FF 38
12151   B238 FD CB 00 38         srl  (iy+0),b           ; B238 FD CB 00 38
12152   B23C FD CB 00 38         SRL  (IY+0),B           ; B23C FD CB 00 38
12153   B240 FD CB 7F 38         srl  (iy+127),b         ; B240 FD CB 7F 38
12154   B244 FD CB 7F 38         SRL  (IY+127),B         ; B244 FD CB 7F 38
12155   B248 FD CB 80 39         srl  (iy+-128),c        ; B248 FD CB 80 39
12156   B24C FD CB 80 39         SRL  (IY+-128),C        ; B24C FD CB 80 39
12157   B250 FD CB FF 39         srl  (iy+-1),c          ; B250 FD CB FF 39
12158   B254 FD CB FF 39         SRL  (IY+-1),C          ; B254 FD CB FF 39
12159   B258 FD CB 00 39         srl  (iy+0),c           ; B258 FD CB 00 39
12160   B25C FD CB 00 39         SRL  (IY+0),C           ; B25C FD CB 00 39
12161   B260 FD CB 7F 39         srl  (iy+127),c         ; B260 FD CB 7F 39
12162   B264 FD CB 7F 39         SRL  (IY+127),C         ; B264 FD CB 7F 39
12163   B268 FD CB 80 3A         srl  (iy+-128),d        ; B268 FD CB 80 3A
12164   B26C FD CB 80 3A         SRL  (IY+-128),D        ; B26C FD CB 80 3A
12165   B270 FD CB FF 3A         srl  (iy+-1),d          ; B270 FD CB FF 3A
12166   B274 FD CB FF 3A         SRL  (IY+-1),D          ; B274 FD CB FF 3A
12167   B278 FD CB 00 3A         srl  (iy+0),d           ; B278 FD CB 00 3A
12168   B27C FD CB 00 3A         SRL  (IY+0),D           ; B27C FD CB 00 3A
12169   B280 FD CB 7F 3A         srl  (iy+127),d         ; B280 FD CB 7F 3A
12170   B284 FD CB 7F 3A         SRL  (IY+127),D         ; B284 FD CB 7F 3A
12171   B288 FD CB 80 3B         srl  (iy+-128),e        ; B288 FD CB 80 3B
12172   B28C FD CB 80 3B         SRL  (IY+-128),E        ; B28C FD CB 80 3B
12173   B290 FD CB FF 3B         srl  (iy+-1),e          ; B290 FD CB FF 3B
12174   B294 FD CB FF 3B         SRL  (IY+-1),E          ; B294 FD CB FF 3B
12175   B298 FD CB 00 3B         srl  (iy+0),e           ; B298 FD CB 00 3B
12176   B29C FD CB 00 3B         SRL  (IY+0),E           ; B29C FD CB 00 3B
12177   B2A0 FD CB 7F 3B         srl  (iy+127),e         ; B2A0 FD CB 7F 3B
12178   B2A4 FD CB 7F 3B         SRL  (IY+127),E         ; B2A4 FD CB 7F 3B
12179   B2A8 FD CB 80 3C         srl  (iy+-128),h        ; B2A8 FD CB 80 3C
12180   B2AC FD CB 80 3C         SRL  (IY+-128),H        ; B2AC FD CB 80 3C
12181   B2B0 FD CB FF 3C         srl  (iy+-1),h          ; B2B0 FD CB FF 3C
12182   B2B4 FD CB FF 3C         SRL  (IY+-1),H          ; B2B4 FD CB FF 3C
12183   B2B8 FD CB 00 3C         srl  (iy+0),h           ; B2B8 FD CB 00 3C
12184   B2BC FD CB 00 3C         SRL  (IY+0),H           ; B2BC FD CB 00 3C
12185   B2C0 FD CB 7F 3C         srl  (iy+127),h         ; B2C0 FD CB 7F 3C
12186   B2C4 FD CB 7F 3C         SRL  (IY+127),H         ; B2C4 FD CB 7F 3C
12187   B2C8 FD CB 80 3D         srl  (iy+-128),l        ; B2C8 FD CB 80 3D
12188   B2CC FD CB 80 3D         SRL  (IY+-128),L        ; B2CC FD CB 80 3D
12189   B2D0 FD CB FF 3D         srl  (iy+-1),l          ; B2D0 FD CB FF 3D
12190   B2D4 FD CB FF 3D         SRL  (IY+-1),L          ; B2D4 FD CB FF 3D
12191   B2D8 FD CB 00 3D         srl  (iy+0),l           ; B2D8 FD CB 00 3D
12192   B2DC FD CB 00 3D         SRL  (IY+0),L           ; B2DC FD CB 00 3D
12193   B2E0 FD CB 7F 3D         srl  (iy+127),l         ; B2E0 FD CB 7F 3D
12194   B2E4 FD CB 7F 3D         SRL  (IY+127),L         ; B2E4 FD CB 7F 3D
12195   B2E8 CB 3E               srl  [hl]               ; B2E8 CB 3E
12196   B2EA CB 3E               SRL  [HL]               ; B2EA CB 3E
12197   B2EC DD CB 80 3E         srl  [ix+-128]          ; B2EC DD CB 80 3E
12198   B2F0 DD CB 80 3E         SRL  [IX+-128]          ; B2F0 DD CB 80 3E
12199   B2F4 DD CB FF 3E         srl  [ix+-1]            ; B2F4 DD CB FF 3E
12200   B2F8 DD CB FF 3E         SRL  [IX+-1]            ; B2F8 DD CB FF 3E
12201   B2FC DD CB 00 3E         srl  [ix+0]             ; B2FC DD CB 00 3E
12202   B300 DD CB 00 3E         SRL  [IX+0]             ; B300 DD CB 00 3E
12203   B304 DD CB 7F 3E         srl  [ix+127]           ; B304 DD CB 7F 3E
12204   B308 DD CB 7F 3E         SRL  [IX+127]           ; B308 DD CB 7F 3E
12205   B30C DD CB 80 3F         srl  [ix+-128],a        ; B30C DD CB 80 3F
12206   B310 DD CB 80 3F         SRL  [IX+-128],A        ; B310 DD CB 80 3F
12207   B314 DD CB FF 3F         srl  [ix+-1],a          ; B314 DD CB FF 3F
12208   B318 DD CB FF 3F         SRL  [IX+-1],A          ; B318 DD CB FF 3F
12209   B31C DD CB 00 3F         srl  [ix+0],a           ; B31C DD CB 00 3F
12210   B320 DD CB 00 3F         SRL  [IX+0],A           ; B320 DD CB 00 3F
12211   B324 DD CB 7F 3F         srl  [ix+127],a         ; B324 DD CB 7F 3F
12212   B328 DD CB 7F 3F         SRL  [IX+127],A         ; B328 DD CB 7F 3F
12213   B32C DD CB 80 38         srl  [ix+-128],b        ; B32C DD CB 80 38
12214   B330 DD CB 80 38         SRL  [IX+-128],B        ; B330 DD CB 80 38
12215   B334 DD CB FF 38         srl  [ix+-1],b          ; B334 DD CB FF 38
12216   B338 DD CB FF 38         SRL  [IX+-1],B          ; B338 DD CB FF 38
12217   B33C DD CB 00 38         srl  [ix+0],b           ; B33C DD CB 00 38
12218   B340 DD CB 00 38         SRL  [IX+0],B           ; B340 DD CB 00 38
12219   B344 DD CB 7F 38         srl  [ix+127],b         ; B344 DD CB 7F 38
12220   B348 DD CB 7F 38         SRL  [IX+127],B         ; B348 DD CB 7F 38
12221   B34C DD CB 80 39         srl  [ix+-128],c        ; B34C DD CB 80 39
12222   B350 DD CB 80 39         SRL  [IX+-128],C        ; B350 DD CB 80 39
12223   B354 DD CB FF 39         srl  [ix+-1],c          ; B354 DD CB FF 39
12224   B358 DD CB FF 39         SRL  [IX+-1],C          ; B358 DD CB FF 39
12225   B35C DD CB 00 39         srl  [ix+0],c           ; B35C DD CB 00 39
12226   B360 DD CB 00 39         SRL  [IX+0],C           ; B360 DD CB 00 39
12227   B364 DD CB 7F 39         srl  [ix+127],c         ; B364 DD CB 7F 39
12228   B368 DD CB 7F 39         SRL  [IX+127],C         ; B368 DD CB 7F 39
12229   B36C DD CB 80 3A         srl  [ix+-128],d        ; B36C DD CB 80 3A
12230   B370 DD CB 80 3A         SRL  [IX+-128],D        ; B370 DD CB 80 3A
12231   B374 DD CB FF 3A         srl  [ix+-1],d          ; B374 DD CB FF 3A
12232   B378 DD CB FF 3A         SRL  [IX+-1],D          ; B378 DD CB FF 3A
12233   B37C DD CB 00 3A         srl  [ix+0],d           ; B37C DD CB 00 3A
12234   B380 DD CB 00 3A         SRL  [IX+0],D           ; B380 DD CB 00 3A
12235   B384 DD CB 7F 3A         srl  [ix+127],d         ; B384 DD CB 7F 3A
12236   B388 DD CB 7F 3A         SRL  [IX+127],D         ; B388 DD CB 7F 3A
12237   B38C DD CB 80 3B         srl  [ix+-128],e        ; B38C DD CB 80 3B
12238   B390 DD CB 80 3B         SRL  [IX+-128],E        ; B390 DD CB 80 3B
12239   B394 DD CB FF 3B         srl  [ix+-1],e          ; B394 DD CB FF 3B
12240   B398 DD CB FF 3B         SRL  [IX+-1],E          ; B398 DD CB FF 3B
12241   B39C DD CB 00 3B         srl  [ix+0],e           ; B39C DD CB 00 3B
12242   B3A0 DD CB 00 3B         SRL  [IX+0],E           ; B3A0 DD CB 00 3B
12243   B3A4 DD CB 7F 3B         srl  [ix+127],e         ; B3A4 DD CB 7F 3B
12244   B3A8 DD CB 7F 3B         SRL  [IX+127],E         ; B3A8 DD CB 7F 3B
12245   B3AC DD CB 80 3C         srl  [ix+-128],h        ; B3AC DD CB 80 3C
12246   B3B0 DD CB 80 3C         SRL  [IX+-128],H        ; B3B0 DD CB 80 3C
12247   B3B4 DD CB FF 3C         srl  [ix+-1],h          ; B3B4 DD CB FF 3C
12248   B3B8 DD CB FF 3C         SRL  [IX+-1],H          ; B3B8 DD CB FF 3C
12249   B3BC DD CB 00 3C         srl  [ix+0],h           ; B3BC DD CB 00 3C
12250   B3C0 DD CB 00 3C         SRL  [IX+0],H           ; B3C0 DD CB 00 3C
12251   B3C4 DD CB 7F 3C         srl  [ix+127],h         ; B3C4 DD CB 7F 3C
12252   B3C8 DD CB 7F 3C         SRL  [IX+127],H         ; B3C8 DD CB 7F 3C
12253   B3CC DD CB 80 3D         srl  [ix+-128],l        ; B3CC DD CB 80 3D
12254   B3D0 DD CB 80 3D         SRL  [IX+-128],L        ; B3D0 DD CB 80 3D
12255   B3D4 DD CB FF 3D         srl  [ix+-1],l          ; B3D4 DD CB FF 3D
12256   B3D8 DD CB FF 3D         SRL  [IX+-1],L          ; B3D8 DD CB FF 3D
12257   B3DC DD CB 00 3D         srl  [ix+0],l           ; B3DC DD CB 00 3D
12258   B3E0 DD CB 00 3D         SRL  [IX+0],L           ; B3E0 DD CB 00 3D
12259   B3E4 DD CB 7F 3D         srl  [ix+127],l         ; B3E4 DD CB 7F 3D
12260   B3E8 DD CB 7F 3D         SRL  [IX+127],L         ; B3E8 DD CB 7F 3D
12261   B3EC FD CB 80 3E         srl  [iy+-128]          ; B3EC FD CB 80 3E
12262   B3F0 FD CB 80 3E         SRL  [IY+-128]          ; B3F0 FD CB 80 3E
12263   B3F4 FD CB FF 3E         srl  [iy+-1]            ; B3F4 FD CB FF 3E
12264   B3F8 FD CB FF 3E         SRL  [IY+-1]            ; B3F8 FD CB FF 3E
12265   B3FC FD CB 00 3E         srl  [iy+0]             ; B3FC FD CB 00 3E
12266   B400 FD CB 00 3E         SRL  [IY+0]             ; B400 FD CB 00 3E
12267   B404 FD CB 7F 3E         srl  [iy+127]           ; B404 FD CB 7F 3E
12268   B408 FD CB 7F 3E         SRL  [IY+127]           ; B408 FD CB 7F 3E
12269   B40C FD CB 80 3F         srl  [iy+-128],a        ; B40C FD CB 80 3F
12270   B410 FD CB 80 3F         SRL  [IY+-128],A        ; B410 FD CB 80 3F
12271   B414 FD CB FF 3F         srl  [iy+-1],a          ; B414 FD CB FF 3F
12272   B418 FD CB FF 3F         SRL  [IY+-1],A          ; B418 FD CB FF 3F
12273   B41C FD CB 00 3F         srl  [iy+0],a           ; B41C FD CB 00 3F
12274   B420 FD CB 00 3F         SRL  [IY+0],A           ; B420 FD CB 00 3F
12275   B424 FD CB 7F 3F         srl  [iy+127],a         ; B424 FD CB 7F 3F
12276   B428 FD CB 7F 3F         SRL  [IY+127],A         ; B428 FD CB 7F 3F
12277   B42C FD CB 80 38         srl  [iy+-128],b        ; B42C FD CB 80 38
12278   B430 FD CB 80 38         SRL  [IY+-128],B        ; B430 FD CB 80 38
12279   B434 FD CB FF 38         srl  [iy+-1],b          ; B434 FD CB FF 38
12280   B438 FD CB FF 38         SRL  [IY+-1],B          ; B438 FD CB FF 38
12281   B43C FD CB 00 38         srl  [iy+0],b           ; B43C FD CB 00 38
12282   B440 FD CB 00 38         SRL  [IY+0],B           ; B440 FD CB 00 38
12283   B444 FD CB 7F 38         srl  [iy+127],b         ; B444 FD CB 7F 38
12284   B448 FD CB 7F 38         SRL  [IY+127],B         ; B448 FD CB 7F 38
12285   B44C FD CB 80 39         srl  [iy+-128],c        ; B44C FD CB 80 39
12286   B450 FD CB 80 39         SRL  [IY+-128],C        ; B450 FD CB 80 39
12287   B454 FD CB FF 39         srl  [iy+-1],c          ; B454 FD CB FF 39
12288   B458 FD CB FF 39         SRL  [IY+-1],C          ; B458 FD CB FF 39
12289   B45C FD CB 00 39         srl  [iy+0],c           ; B45C FD CB 00 39
12290   B460 FD CB 00 39         SRL  [IY+0],C           ; B460 FD CB 00 39
12291   B464 FD CB 7F 39         srl  [iy+127],c         ; B464 FD CB 7F 39
12292   B468 FD CB 7F 39         SRL  [IY+127],C         ; B468 FD CB 7F 39
12293   B46C FD CB 80 3A         srl  [iy+-128],d        ; B46C FD CB 80 3A
12294   B470 FD CB 80 3A         SRL  [IY+-128],D        ; B470 FD CB 80 3A
12295   B474 FD CB FF 3A         srl  [iy+-1],d          ; B474 FD CB FF 3A
12296   B478 FD CB FF 3A         SRL  [IY+-1],D          ; B478 FD CB FF 3A
12297   B47C FD CB 00 3A         srl  [iy+0],d           ; B47C FD CB 00 3A
12298   B480 FD CB 00 3A         SRL  [IY+0],D           ; B480 FD CB 00 3A
12299   B484 FD CB 7F 3A         srl  [iy+127],d         ; B484 FD CB 7F 3A
12300   B488 FD CB 7F 3A         SRL  [IY+127],D         ; B488 FD CB 7F 3A
12301   B48C FD CB 80 3B         srl  [iy+-128],e        ; B48C FD CB 80 3B
12302   B490 FD CB 80 3B         SRL  [IY+-128],E        ; B490 FD CB 80 3B
12303   B494 FD CB FF 3B         srl  [iy+-1],e          ; B494 FD CB FF 3B
12304   B498 FD CB FF 3B         SRL  [IY+-1],E          ; B498 FD CB FF 3B
12305   B49C FD CB 00 3B         srl  [iy+0],e           ; B49C FD CB 00 3B
12306   B4A0 FD CB 00 3B         SRL  [IY+0],E           ; B4A0 FD CB 00 3B
12307   B4A4 FD CB 7F 3B         srl  [iy+127],e         ; B4A4 FD CB 7F 3B
12308   B4A8 FD CB 7F 3B         SRL  [IY+127],E         ; B4A8 FD CB 7F 3B
12309   B4AC FD CB 80 3C         srl  [iy+-128],h        ; B4AC FD CB 80 3C
12310   B4B0 FD CB 80 3C         SRL  [IY+-128],H        ; B4B0 FD CB 80 3C
12311   B4B4 FD CB FF 3C         srl  [iy+-1],h          ; B4B4 FD CB FF 3C
12312   B4B8 FD CB FF 3C         SRL  [IY+-1],H          ; B4B8 FD CB FF 3C
12313   B4BC FD CB 00 3C         srl  [iy+0],h           ; B4BC FD CB 00 3C
12314   B4C0 FD CB 00 3C         SRL  [IY+0],H           ; B4C0 FD CB 00 3C
12315   B4C4 FD CB 7F 3C         srl  [iy+127],h         ; B4C4 FD CB 7F 3C
12316   B4C8 FD CB 7F 3C         SRL  [IY+127],H         ; B4C8 FD CB 7F 3C
12317   B4CC FD CB 80 3D         srl  [iy+-128],l        ; B4CC FD CB 80 3D
12318   B4D0 FD CB 80 3D         SRL  [IY+-128],L        ; B4D0 FD CB 80 3D
12319   B4D4 FD CB FF 3D         srl  [iy+-1],l          ; B4D4 FD CB FF 3D
12320   B4D8 FD CB FF 3D         SRL  [IY+-1],L          ; B4D8 FD CB FF 3D
12321   B4DC FD CB 00 3D         srl  [iy+0],l           ; B4DC FD CB 00 3D
12322   B4E0 FD CB 00 3D         SRL  [IY+0],L           ; B4E0 FD CB 00 3D
12323   B4E4 FD CB 7F 3D         srl  [iy+127],l         ; B4E4 FD CB 7F 3D
12324   B4E8 FD CB 7F 3D         SRL  [IY+127],L         ; B4E8 FD CB 7F 3D
12325   B4EC CB 3F               srl  a                  ; B4EC CB 3F
12326   B4EE CB 3F               SRL  A                  ; B4EE CB 3F
12327   B4F0 CB 38               srl  b                  ; B4F0 CB 38
12328   B4F2 CB 38               SRL  B                  ; B4F2 CB 38
12329   B4F4 CB 38 CB 19         srl  bc                 ; B4F4 CB 38 CB 19
12330   B4F8 CB 38 CB 19         SRL  BC                 ; B4F8 CB 38 CB 19
12331   B4FC CB 39               srl  c                  ; B4FC CB 39
12332   B4FE CB 39               SRL  C                  ; B4FE CB 39
12333   B500 CB 3A               srl  d                  ; B500 CB 3A
12334   B502 CB 3A               SRL  D                  ; B502 CB 3A
12335   B504 CB 3A CB 1B         srl  de                 ; B504 CB 3A CB 1B
12336   B508 CB 3A CB 1B         SRL  DE                 ; B508 CB 3A CB 1B
12337   B50C CB 3B               srl  e                  ; B50C CB 3B
12338   B50E CB 3B               SRL  E                  ; B50E CB 3B
12339   B510 CB 3C               srl  h                  ; B510 CB 3C
12340   B512 CB 3C               SRL  H                  ; B512 CB 3C
12341   B514 CB 3C CB 1D         srl  hl                 ; B514 CB 3C CB 1D
12342   B518 CB 3C CB 1D         SRL  HL                 ; B518 CB 3C CB 1D
12343   B51C CB 3D               srl  l                  ; B51C CB 3D
12344   B51E CB 3D               SRL  L                  ; B51E CB 3D
12345   B520                     stop                    ; B520 DD DD 00
12345   B520 DD DD 00    >	db 0xDD, 0xDD, 0x00
12346   B523                     STOP                    ; B523 DD DD 00
12346   B523 DD DD 00    >	db 0xDD, 0xDD, 0x00
12347   B526 96                  sub  (hl)               ; B526 96
12348   B527 96                  SUB  (HL)               ; B527 96
12349   B528 DD 96 80            sub  (ix+-128)          ; B528 DD 96 80
12350   B52B DD 96 80            SUB  (IX+-128)          ; B52B DD 96 80
12351   B52E DD 96 FF            sub  (ix+-1)            ; B52E DD 96 FF
12352   B531 DD 96 FF            SUB  (IX+-1)            ; B531 DD 96 FF
12353   B534 DD 96 00            sub  (ix+0)             ; B534 DD 96 00
12354   B537 DD 96 00            SUB  (IX+0)             ; B537 DD 96 00
12355   B53A DD 96 7F            sub  (ix+127)           ; B53A DD 96 7F
12356   B53D DD 96 7F            SUB  (IX+127)           ; B53D DD 96 7F
12357   B540 FD 96 80            sub  (iy+-128)          ; B540 FD 96 80
12358   B543 FD 96 80            SUB  (IY+-128)          ; B543 FD 96 80
12359   B546 FD 96 FF            sub  (iy+-1)            ; B546 FD 96 FF
12360   B549 FD 96 FF            SUB  (IY+-1)            ; B549 FD 96 FF
12361   B54C FD 96 00            sub  (iy+0)             ; B54C FD 96 00
12362   B54F FD 96 00            SUB  (IY+0)             ; B54F FD 96 00
12363   B552 FD 96 7F            sub  (iy+127)           ; B552 FD 96 7F
12364   B555 FD 96 7F            SUB  (IY+127)           ; B555 FD 96 7F
12365   B558 D6 80               sub  -128               ; B558 D6 80
12366   B55A D6 80               SUB  -128               ; B55A D6 80
12367   B55C D6 FF               sub  -1                 ; B55C D6 FF
12368   B55E D6 FF               SUB  -1                 ; B55E D6 FF
12369   B560 D6 00               sub  0                  ; B560 D6 00
12370   B562 D6 00               SUB  0                  ; B562 D6 00
12371   B564 D6 7F               sub  127                ; B564 D6 7F
12372   B566 D6 7F               SUB  127                ; B566 D6 7F
12373   B568 D6 FF               sub  255                ; B568 D6 FF
12374   B56A D6 FF               SUB  255                ; B56A D6 FF
12375   B56C 96                  sub  [hl]               ; B56C 96
12376   B56D 96                  SUB  [HL]               ; B56D 96
12377   B56E DD 96 80            sub  [ix+-128]          ; B56E DD 96 80
12378   B571 DD 96 80            SUB  [IX+-128]          ; B571 DD 96 80
12379   B574 DD 96 FF            sub  [ix+-1]            ; B574 DD 96 FF
12380   B577 DD 96 FF            SUB  [IX+-1]            ; B577 DD 96 FF
12381   B57A DD 96 00            sub  [ix+0]             ; B57A DD 96 00
12382   B57D DD 96 00            SUB  [IX+0]             ; B57D DD 96 00
12383   B580 DD 96 7F            sub  [ix+127]           ; B580 DD 96 7F
12384   B583 DD 96 7F            SUB  [IX+127]           ; B583 DD 96 7F
12385   B586 FD 96 80            sub  [iy+-128]          ; B586 FD 96 80
12386   B589 FD 96 80            SUB  [IY+-128]          ; B589 FD 96 80
12387   B58C FD 96 FF            sub  [iy+-1]            ; B58C FD 96 FF
12388   B58F FD 96 FF            SUB  [IY+-1]            ; B58F FD 96 FF
12389   B592 FD 96 00            sub  [iy+0]             ; B592 FD 96 00
12390   B595 FD 96 00            SUB  [IY+0]             ; B595 FD 96 00
12391   B598 FD 96 7F            sub  [iy+127]           ; B598 FD 96 7F
12392   B59B FD 96 7F            SUB  [IY+127]           ; B59B FD 96 7F
12393   B59E 97                  sub  a                  ; B59E 97
12394   B59F 97                  SUB  A                  ; B59F 97
12395   B5A0 90                  sub  b                  ; B5A0 90
12396   B5A1 90                  SUB  B                  ; B5A1 90
12397   B5A2 91                  sub  c                  ; B5A2 91
12398   B5A3 91                  SUB  C                  ; B5A3 91
12399   B5A4 92                  sub  d                  ; B5A4 92
12400   B5A5 92                  SUB  D                  ; B5A5 92
12401   B5A6 93                  sub  e                  ; B5A6 93
12402   B5A7 93                  SUB  E                  ; B5A7 93
12403   B5A8 94                  sub  h                  ; B5A8 94
12404   B5A9 94                  SUB  H                  ; B5A9 94
12405   B5AA B7 ED 42            sub  hl,bc              ; B5AA B7 ED 42
12406   B5AD B7 ED 42            SUB  HL,BC              ; B5AD B7 ED 42
12407   B5B0 B7 ED 52            sub  hl,de              ; B5B0 B7 ED 52
12408   B5B3 B7 ED 52            SUB  HL,DE              ; B5B3 B7 ED 52
12409   B5B6 B7 ED 62            sub  hl,hl              ; B5B6 B7 ED 62
12410   B5B9 B7 ED 62            SUB  HL,HL              ; B5B9 B7 ED 62
12411   B5BC B7 ED 72            sub  hl,sp              ; B5BC B7 ED 72
12412   B5BF B7 ED 72            SUB  HL,SP              ; B5BF B7 ED 72
12413   B5C2 DD 94               sub  hx                 ; B5C2 DD 94
12414   B5C4 DD 94               SUB  HX                 ; B5C4 DD 94
12415   B5C6 FD 94               sub  hy                 ; B5C6 FD 94
12416   B5C8 FD 94               SUB  HY                 ; B5C8 FD 94
12417   B5CA DD 94               sub  ixh                ; B5CA DD 94
12418   B5CC DD 94               SUB  IXH                ; B5CC DD 94
12419   B5CE DD 95               sub  ixl                ; B5CE DD 95
12420   B5D0 DD 95               SUB  IXL                ; B5D0 DD 95
12421   B5D2 FD 94               sub  iyh                ; B5D2 FD 94
12422   B5D4 FD 94               SUB  IYH                ; B5D4 FD 94
12423   B5D6 FD 95               sub  iyl                ; B5D6 FD 95
12424   B5D8 FD 95               SUB  IYL                ; B5D8 FD 95
12425   B5DA 95                  sub  l                  ; B5DA 95
12426   B5DB 95                  SUB  L                  ; B5DB 95
12427   B5DC DD 95               sub  lx                 ; B5DC DD 95
12428   B5DE DD 95               SUB  LX                 ; B5DE DD 95
12429   B5E0 FD 95               sub  ly                 ; B5E0 FD 95
12430   B5E2 FD 95               SUB  LY                 ; B5E2 FD 95
12431   B5E4 DD 94               sub  xh                 ; B5E4 DD 94
12432   B5E6 DD 94               SUB  XH                 ; B5E6 DD 94
12433   B5E8 DD 95               sub  xl                 ; B5E8 DD 95
12434   B5EA DD 95               SUB  XL                 ; B5EA DD 95
12435   B5EC FD 94               sub  yh                 ; B5EC FD 94
12436   B5EE FD 94               SUB  YH                 ; B5EE FD 94
12437   B5F0 FD 95               sub  yl                 ; B5F0 FD 95
12438   B5F2 FD 95               SUB  YL                 ; B5F2 FD 95
12439   B5F4 AE                  xor  (hl)               ; B5F4 AE
12440   B5F5 AE                  XOR  (HL)               ; B5F5 AE
12441   B5F6 DD AE 80            xor  (ix+-128)          ; B5F6 DD AE 80
12442   B5F9 DD AE 80            XOR  (IX+-128)          ; B5F9 DD AE 80
12443   B5FC DD AE FF            xor  (ix+-1)            ; B5FC DD AE FF
12444   B5FF DD AE FF            XOR  (IX+-1)            ; B5FF DD AE FF
12445   B602 DD AE 00            xor  (ix+0)             ; B602 DD AE 00
12446   B605 DD AE 00            XOR  (IX+0)             ; B605 DD AE 00
12447   B608 DD AE 7F            xor  (ix+127)           ; B608 DD AE 7F
12448   B60B DD AE 7F            XOR  (IX+127)           ; B60B DD AE 7F
12449   B60E FD AE 80            xor  (iy+-128)          ; B60E FD AE 80
12450   B611 FD AE 80            XOR  (IY+-128)          ; B611 FD AE 80
12451   B614 FD AE FF            xor  (iy+-1)            ; B614 FD AE FF
12452   B617 FD AE FF            XOR  (IY+-1)            ; B617 FD AE FF
12453   B61A FD AE 00            xor  (iy+0)             ; B61A FD AE 00
12454   B61D FD AE 00            XOR  (IY+0)             ; B61D FD AE 00
12455   B620 FD AE 7F            xor  (iy+127)           ; B620 FD AE 7F
12456   B623 FD AE 7F            XOR  (IY+127)           ; B623 FD AE 7F
12457   B626 EE 80               xor  -128               ; B626 EE 80
12458   B628 EE 80               XOR  -128               ; B628 EE 80
12459   B62A EE FF               xor  -1                 ; B62A EE FF
12460   B62C EE FF               XOR  -1                 ; B62C EE FF
12461   B62E EE 00               xor  0                  ; B62E EE 00
12462   B630 EE 00               XOR  0                  ; B630 EE 00
12463   B632 EE 7F               xor  127                ; B632 EE 7F
12464   B634 EE 7F               XOR  127                ; B634 EE 7F
12465   B636 EE FF               xor  255                ; B636 EE FF
12466   B638 EE FF               XOR  255                ; B638 EE FF
12467   B63A AE                  xor  [hl]               ; B63A AE
12468   B63B AE                  XOR  [HL]               ; B63B AE
12469   B63C DD AE 80            xor  [ix+-128]          ; B63C DD AE 80
12470   B63F DD AE 80            XOR  [IX+-128]          ; B63F DD AE 80
12471   B642 DD AE FF            xor  [ix+-1]            ; B642 DD AE FF
12472   B645 DD AE FF            XOR  [IX+-1]            ; B645 DD AE FF
12473   B648 DD AE 00            xor  [ix+0]             ; B648 DD AE 00
12474   B64B DD AE 00            XOR  [IX+0]             ; B64B DD AE 00
12475   B64E DD AE 7F            xor  [ix+127]           ; B64E DD AE 7F
12476   B651 DD AE 7F            XOR  [IX+127]           ; B651 DD AE 7F
12477   B654 FD AE 80            xor  [iy+-128]          ; B654 FD AE 80
12478   B657 FD AE 80            XOR  [IY+-128]          ; B657 FD AE 80
12479   B65A FD AE FF            xor  [iy+-1]            ; B65A FD AE FF
12480   B65D FD AE FF            XOR  [IY+-1]            ; B65D FD AE FF
12481   B660 FD AE 00            xor  [iy+0]             ; B660 FD AE 00
12482   B663 FD AE 00            XOR  [IY+0]             ; B663 FD AE 00
12483   B666 FD AE 7F            xor  [iy+127]           ; B666 FD AE 7F
12484   B669 FD AE 7F            XOR  [IY+127]           ; B669 FD AE 7F
12485   B66C AF                  xor  a                  ; B66C AF
12486   B66D AF                  XOR  A                  ; B66D AF
12487   B66E A8                  xor  b                  ; B66E A8
12488   B66F A8                  XOR  B                  ; B66F A8
12489   B670 A9                  xor  c                  ; B670 A9
12490   B671 A9                  XOR  C                  ; B671 A9
12491   B672 AA                  xor  d                  ; B672 AA
12492   B673 AA                  XOR  D                  ; B673 AA
12493   B674 AB                  xor  e                  ; B674 AB
12494   B675 AB                  XOR  E                  ; B675 AB
12495   B676 AC                  xor  h                  ; B676 AC
12496   B677 AC                  XOR  H                  ; B677 AC
12497   B678 DD AC               xor  hx                 ; B678 DD AC
12498   B67A DD AC               XOR  HX                 ; B67A DD AC
12499   B67C FD AC               xor  hy                 ; B67C FD AC
12500   B67E FD AC               XOR  HY                 ; B67E FD AC
12501   B680 DD AC               xor  ixh                ; B680 DD AC
12502   B682 DD AC               XOR  IXH                ; B682 DD AC
12503   B684 DD AD               xor  ixl                ; B684 DD AD
12504   B686 DD AD               XOR  IXL                ; B686 DD AD
12505   B688 FD AC               xor  iyh                ; B688 FD AC
12506   B68A FD AC               XOR  IYH                ; B68A FD AC
12507   B68C FD AD               xor  iyl                ; B68C FD AD
12508   B68E FD AD               XOR  IYL                ; B68E FD AD
12509   B690 AD                  xor  l                  ; B690 AD
12510   B691 AD                  XOR  L                  ; B691 AD
12511   B692 DD AD               xor  lx                 ; B692 DD AD
12512   B694 DD AD               XOR  LX                 ; B694 DD AD
12513   B696 FD AD               xor  ly                 ; B696 FD AD
12514   B698 FD AD               XOR  LY                 ; B698 FD AD
12515   B69A DD AC               xor  xh                 ; B69A DD AC
12516   B69C DD AC               XOR  XH                 ; B69C DD AC
12517   B69E DD AD               xor  xl                 ; B69E DD AD
12518   B6A0 DD AD               XOR  XL                 ; B6A0 DD AD
12519   B6A2 FD AC               xor  yh                 ; B6A2 FD AC
12520   B6A4 FD AC               XOR  YH                 ; B6A4 FD AC
12521   B6A6 FD AD               xor  yl                 ; B6A6 FD AD
12522   B6A8 FD AD               XOR  YL                 ; B6A8 FD AD
12523   B6AA             
